(dp1
S'name'
p2
(dp3
S'length'
p4
I512
sS'unique'
p5
I00
sS'sortable'
p6
I2
sS'sql'
p7
S'CHAR(512)'
p8
sS'notnull'
p9
I00
sS'type'
p10
S'string'
p11
ssS'posting'
p12
(dp13
g4
I32768
sg5
I00
sg6
I4
sg7
S'TEXT'
p14
sg9
I00
sg10
S'text'
p15
ssS'nome'
p16
(dp17
S'sortable'
p18
I2
sS'sql'
p19
S'CHAR(512)'
p20
sS'length'
p21
I512
sS'notnull'
p22
I00
sS'unique'
p23
I00
sS'type'
<<<<<<< HEAD
p20
S'reference user_id'
p21
ssS'name'
p22
(dp23
=======
p24
S'string'
p25
ssS'id'
p26
(dp27
>>>>>>> work
g4
I512
sg5
I00
sg6
<<<<<<< HEAD
I2
sg7
S'CHAR(512)'
p24
sg9
I00
sg10
S'string'
p25
ssS'posting'
p26
(dp27
=======
I1
sg7
S'INTEGER PRIMARY KEY AUTOINCREMENT'
p28
sg9
I00
sg10
S'id'
p29
ssS'email'
p30
(dp31
>>>>>>> work
g4
I32768
sg5
I00
sg6
I3
sg7
<<<<<<< HEAD
S'TEXT'
p28
sg9
I00
sg10
S'text'
p29
ssS'nome'
p30
(dp31
=======
S'CHAR(512)'
p32
sg9
I00
sg10
g11
ssS'id_post'
p33
(dp34
>>>>>>> work
S'sortable'
p35
I2
sS'sql'
p36
S'INTEGER REFERENCES user_id (id) ON DELETE CASCADE'
p37
sS'length'
p38
I512
sS'notnull'
p39
I00
sS'unique'
p40
I00
sS'type'
p41
S'reference user_id'
p42
ss.