(dp1
S'output'
p2
S"<type 'exceptions.SyntaxError'> invalid syntax (contact.py, line 9)"
p3
sS'layer'
p4
S'/home/diego/web2py/applications/irecycle/controllers/contact.py'
p5
sS'code'
p6
S'def contact():\n\tu_cont = User(a0 or me)\n\tcont = SQLFORM(db.contacts)\n\tif cont.process().accepted:\n\t\tfor name in u_cont:\n\t\t\tif cont.name == name:\n\t\t\t\tc_dastro = T()\n\t\t\tresponse.flash = "Obrigado!"\n\tinput_text = cont.elements(_type="text")[]\n\tinput_text["_required"] = ["required"]\n\treturn dict(cont=cont)\nresponse._vars=response._caller(contact)\n'
p7
sS'snapshot'
p8
(dp9
S'exception'
p10
(dp11
S'__getslice__'
p12
S"<method-wrapper '__getslice__' of exceptions.SyntaxError object>"
p13
sS'text'
p14
S'\'\\tinput_text = cont.elements(_type="text")[]\\n\''
p15
sS'__str__'
p16
S"<method-wrapper '__str__' of exceptions.SyntaxError object>"
p17
sS'__reduce__'
p18
S'<built-in method __reduce__ of exceptions.SyntaxError object>'
p19
sS'__dict__'
p20
S'{}'
p21
sS'__sizeof__'
p22
S'<built-in method __sizeof__ of exceptions.SyntaxError object>'
p23
sS'__init__'
p24
S"<method-wrapper '__init__' of exceptions.SyntaxError object>"
p25
sS'__setattr__'
p26
S"<method-wrapper '__setattr__' of exceptions.SyntaxError object>"
p27
sS'__reduce_ex__'
p28
S'<built-in method __reduce_ex__ of exceptions.SyntaxError object>'
p29
sS'__new__'
p30
S'<built-in method __new__ of type object>'
p31
sS'__format__'
p32
S'<built-in method __format__ of exceptions.SyntaxError object>'
p33
sS'__class__'
p34
S"<type 'exceptions.SyntaxError'>"
p35
sS'filename'
p36
S"'/home/diego/web2py/applications/irecycle/controllers/contact.py'"
p37
sS'lineno'
p38
S'9'
sS'msg'
p39
S"'invalid syntax'"
p40
sS'__doc__'
p41
S"'Invalid syntax.'"
p42
sS'__getitem__'
p43
S"<method-wrapper '__getitem__' of exceptions.SyntaxError object>"
p44
sS'__setstate__'
p45
S'<built-in method __setstate__ of exceptions.SyntaxError object>'
p46
sS'__getattribute__'
p47
S"<method-wrapper '__getattribute__' of exceptions.SyntaxError object>"
p48
sS'print_file_and_line'
p49
S'None'
p50
sS'args'
p51
S'(\'invalid syntax\', (\'/home/diego/web2py/applications/irecycle/controllers/contact.py\', 9, 43, \'\\tinput_text = cont.elements(_type="text")[]\\n\'))'
p52
sS'__subclasshook__'
p53
S'<built-in method __subclasshook__ of type object>'
p54
sS'offset'
p55
S'43'
p56
sS'__unicode__'
p57
S'<built-in method __unicode__ of exceptions.SyntaxError object>'
p58
sS'__delattr__'
p59
S"<method-wrapper '__delattr__' of exceptions.SyntaxError object>"
p60
sS'__repr__'
p61
S"<method-wrapper '__repr__' of exceptions.SyntaxError object>"
p62
sS'__hash__'
p63
S"<method-wrapper '__hash__' of exceptions.SyntaxError object>"
p64
ssS'evalue'
p65
S'invalid syntax (contact.py, line 9)'
p66
sS'request'
p67
ccopy_reg
_reconstructor
p68
(cgluon.html
BEAUTIFY
p69
c__builtin__
object
p70
NtRp71
(dp72
S'attributes'
p73
(dp74
sS'components'
p75
(lp76
g68
(cgluon.html
TABLE
p77
g70
NtRp78
(dp79
g73
(dp80
S'level'
p81
I5
ssS'parent'
p82
Nsg75
(lp83
g68
(cgluon.html
TR
p84
g70
NtRp85
(dp86
g73
(dp87
sg82
g78
sg75
(lp88
g68
(cgluon.html
TD
p89
g70
NtRp90
(dp91
g73
(dp92
S'_style'
p93
S'font-weight:bold;vertical-align:top'
p94
ssg82
g85
sg75
(lp95
S'ajax'
p96
asbag68
(g89
g70
NtRp97
(dp98
g73
(dp99
S'_valign'
p100
S'top'
p101
ssg82
g85
sg75
(lp102
S':'
asbag68
(g89
g70
NtRp103
(dp104
g73
(dp105
sg82
g85
sg75
(lp106
g68
(g69
g70
NtRp107
(dp108
g73
(dp109
g81
I5
ssg82
g103
sg75
(lp110
S'False'
p111
asbasbasbag68
(g84
g70
NtRp112
(dp113
g73
(dp114
sg82
g78
sg75
(lp115
g68
(g89
g70
NtRp116
(dp117
g73
(dp118
g93
g94
ssg82
g112
sg75
(lp119
S'application'
p120
asbag68
(g89
g70
NtRp121
(dp122
g73
(dp123
g100
g101
ssg82
g112
sg75
(lp124
S':'
asbag68
(g89
g70
NtRp125
(dp126
g73
(dp127
sg82
g112
sg75
(lp128
g68
(g69
g70
NtRp129
(dp130
g73
(dp131
g81
I5
ssg82
g125
sg75
(lp132
S'irecycle'
p133
asbasbasbag68
(g84
g70
NtRp134
(dp135
g73
(dp136
sg82
g78
sg75
(lp137
g68
(g89
g70
NtRp138
(dp139
g73
(dp140
g93
g94
ssg82
g134
sg75
(lp141
g51
asbag68
(g89
g70
NtRp142
(dp143
g73
(dp144
g100
g101
ssg82
g134
sg75
(lp145
S':'
asbag68
(g89
g70
NtRp146
(dp147
g73
(dp148
sg82
g134
sg75
(lp149
g68
(g69
g70
NtRp150
(dp151
g73
(dp152
g81
I5
ssg82
g146
sg75
(lp153
g68
(g77
g70
NtRp154
(dp155
g73
(dp156
g81
I4
ssg82
Nsg75
(lp157
sbasbasbasbag68
(g84
g70
NtRp158
(dp159
g73
(dp160
sg82
g78
sg75
(lp161
g68
(g89
g70
NtRp162
(dp163
g73
(dp164
g93
g94
ssg82
g158
sg75
(lp165
S'body'
p166
asbag68
(g89
g70
NtRp167
(dp168
g73
(dp169
g100
g101
ssg82
g158
sg75
(lp170
S':'
asbag68
(g89
g70
NtRp171
(dp172
g73
(dp173
sg82
g158
sg75
(lp174
g68
(g69
g70
NtRp175
(dp176
g73
(dp177
g81
I5
ssg82
g171
sg75
(lp178
S'<cStringIO.StringO object at 0x2997228>'
p179
asbasbasbag68
(g84
g70
NtRp180
(dp181
g73
(dp182
sg82
g78
sg75
(lp183
g68
(g89
g70
NtRp184
(dp185
g73
(dp186
g93
g94
ssg82
g180
sg75
(lp187
S'cid'
p188
asbag68
(g89
g70
NtRp189
(dp190
g73
(dp191
g100
g101
ssg82
g180
sg75
(lp192
S':'
asbag68
(g89
g70
NtRp193
(dp194
g73
(dp195
sg82
g180
sg75
(lp196
g68
(g69
g70
NtRp197
(dp198
g73
(dp199
g81
I5
ssg82
g193
sg75
(lp200
S'None'
p201
asbasbasbag68
(g84
g70
NtRp202
(dp203
g73
(dp204
sg82
g78
sg75
(lp205
g68
(g89
g70
NtRp206
(dp207
g73
(dp208
g93
g94
ssg82
g202
sg75
(lp209
S'client'
p210
asbag68
(g89
g70
NtRp211
(dp212
g73
(dp213
g100
g101
ssg82
g202
sg75
(lp214
S':'
asbag68
(g89
g70
NtRp215
(dp216
g73
(dp217
sg82
g202
sg75
(lp218
g68
(g69
g70
NtRp219
(dp220
g73
(dp221
g81
I5
ssg82
g215
sg75
(lp222
S'127.0.0.1'
p223
asbasbasbag68
(g84
g70
NtRp224
(dp225
g73
(dp226
sg82
g78
sg75
(lp227
g68
(g89
g70
NtRp228
(dp229
g73
(dp230
g93
g94
ssg82
g224
sg75
(lp231
S'controller'
p232
asbag68
(g89
g70
NtRp233
(dp234
g73
(dp235
g100
g101
ssg82
g224
sg75
(lp236
S':'
asbag68
(g89
g70
NtRp237
(dp238
g73
(dp239
sg82
g224
sg75
(lp240
g68
(g69
g70
NtRp241
(dp242
g73
(dp243
g81
I5
ssg82
g237
sg75
(lp244
S'contact'
p245
asbasbasbag68
(g84
g70
NtRp246
(dp247
g73
(dp248
sg82
g78
sg75
(lp249
g68
(g89
g70
NtRp250
(dp251
g73
(dp252
g93
g94
ssg82
g246
sg75
(lp253
S'cookies'
p254
asbag68
(g89
g70
NtRp255
(dp256
g73
(dp257
g100
g101
ssg82
g246
sg75
(lp258
S':'
asbag68
(g89
g70
NtRp259
(dp260
g73
(dp261
sg82
g246
sg75
(lp262
g68
(g69
g70
NtRp263
(dp264
g73
(dp265
g81
I5
ssg82
g259
sg75
(lp266
g68
(g77
g70
NtRp267
(dp268
g73
(dp269
g81
I4
ssg82
Nsg75
(lp270
g68
(g84
g70
NtRp271
(dp272
g73
(dp273
sg82
g267
sg75
(lp274
g68
(g89
g70
NtRp275
(dp276
g73
(dp277
g93
g94
ssg82
g271
sg75
(lp278
S'session_id_admin'
p279
asbag68
(g89
g70
NtRp280
(dp281
g73
(dp282
g100
g101
ssg82
g271
sg75
(lp283
S':'
asbag68
(g89
g70
NtRp284
(dp285
g73
(dp286
sg82
g271
sg75
(lp287
g68
(g69
g70
NtRp288
(dp289
g73
(dp290
g81
I4
ssg82
g284
sg75
(lp291
S'127.0.0.1-e9b49389-2418-4b45-bd80-845c8869c15c'
p292
ag68
(g77
g70
NtRp293
(dp294
g73
(dp295
g81
I3
ssg82
Nsg75
(lp296
g68
(g84
g70
NtRp297
(dp298
g73
(dp299
sg82
g293
sg75
(lp300
g68
(g89
g70
NtRp301
(dp302
g73
(dp303
g93
g94
ssg82
g297
sg75
(lp304
S'comment'
p305
asbag68
(g89
g70
NtRp306
(dp307
g73
(dp308
g100
g101
ssg82
g297
sg75
(lp309
S':'
asbag68
(g89
g70
NtRp310
(dp311
g73
(dp312
sg82
g297
sg75
(lp313
g68
(g69
g70
NtRp314
(dp315
g73
(dp316
g81
I3
ssg82
g310
sg75
(lp317
S''
asbasbasbag68
(g84
g70
NtRp318
(dp319
g73
(dp320
sg82
g293
sg75
(lp321
g68
(g89
g70
NtRp322
(dp323
g73
(dp324
g93
g94
ssg82
g318
sg75
(lp325
S'domain'
p326
asbag68
(g89
g70
NtRp327
(dp328
g73
(dp329
g100
g101
ssg82
g318
sg75
(lp330
S':'
asbag68
(g89
g70
NtRp331
(dp332
g73
(dp333
sg82
g318
sg75
(lp334
g68
(g69
g70
NtRp335
(dp336
g73
(dp337
g81
I3
ssg82
g331
sg75
(lp338
S''
asbasbasbag68
(g84
g70
NtRp339
(dp340
g73
(dp341
sg82
g293
sg75
(lp342
g68
(g89
g70
NtRp343
(dp344
g73
(dp345
g93
g94
ssg82
g339
sg75
(lp346
S'expires'
p347
asbag68
(g89
g70
NtRp348
(dp349
g73
(dp350
g100
g101
ssg82
g339
sg75
(lp351
S':'
asbag68
(g89
g70
NtRp352
(dp353
g73
(dp354
sg82
g339
sg75
(lp355
g68
(g69
g70
NtRp356
(dp357
g73
(dp358
g81
I3
ssg82
g352
sg75
(lp359
S''
asbasbasbag68
(g84
g70
NtRp360
(dp361
g73
(dp362
sg82
g293
sg75
(lp363
g68
(g89
g70
NtRp364
(dp365
g73
(dp366
g93
g94
ssg82
g360
sg75
(lp367
S'httponly'
p368
asbag68
(g89
g70
NtRp369
(dp370
g73
(dp371
g100
g101
ssg82
g360
sg75
(lp372
S':'
asbag68
(g89
g70
NtRp373
(dp374
g73
(dp375
sg82
g360
sg75
(lp376
g68
(g69
g70
NtRp377
(dp378
g73
(dp379
g81
I3
ssg82
g373
sg75
(lp380
S''
asbasbasbag68
(g84
g70
NtRp381
(dp382
g73
(dp383
sg82
g293
sg75
(lp384
g68
(g89
g70
NtRp385
(dp386
g73
(dp387
g93
g94
ssg82
g381
sg75
(lp388
S'max-age'
p389
asbag68
(g89
g70
NtRp390
(dp391
g73
(dp392
g100
g101
ssg82
g381
sg75
(lp393
S':'
asbag68
(g89
g70
NtRp394
(dp395
g73
(dp396
sg82
g381
sg75
(lp397
g68
(g69
g70
NtRp398
(dp399
g73
(dp400
g81
I3
ssg82
g394
sg75
(lp401
S''
asbasbasbag68
(g84
g70
NtRp402
(dp403
g73
(dp404
sg82
g293
sg75
(lp405
g68
(g89
g70
NtRp406
(dp407
g73
(dp408
g93
g94
ssg82
g402
sg75
(lp409
S'path'
p410
asbag68
(g89
g70
NtRp411
(dp412
g73
(dp413
g100
g101
ssg82
g402
sg75
(lp414
S':'
asbag68
(g89
g70
NtRp415
(dp416
g73
(dp417
sg82
g402
sg75
(lp418
g68
(g69
g70
NtRp419
(dp420
g73
(dp421
g81
I3
ssg82
g415
sg75
(lp422
S''
asbasbasbag68
(g84
g70
NtRp423
(dp424
g73
(dp425
sg82
g293
sg75
(lp426
g68
(g89
g70
NtRp427
(dp428
g73
(dp429
g93
g94
ssg82
g423
sg75
(lp430
S'secure'
p431
asbag68
(g89
g70
NtRp432
(dp433
g73
(dp434
g100
g101
ssg82
g423
sg75
(lp435
S':'
asbag68
(g89
g70
NtRp436
(dp437
g73
(dp438
sg82
g423
sg75
(lp439
g68
(g69
g70
NtRp440
(dp441
g73
(dp442
g81
I3
ssg82
g436
sg75
(lp443
S''
asbasbasbag68
(g84
g70
NtRp444
(dp445
g73
(dp446
sg82
g293
sg75
(lp447
g68
(g89
g70
NtRp448
(dp449
g73
(dp450
g93
g94
ssg82
g444
sg75
(lp451
S'version'
p452
asbag68
(g89
g70
NtRp453
(dp454
g73
(dp455
g100
g101
ssg82
g444
sg75
(lp456
S':'
asbag68
(g89
g70
NtRp457
(dp458
g73
(dp459
sg82
g444
sg75
(lp460
g68
(g69
g70
NtRp461
(dp462
g73
(dp463
g81
I3
ssg82
g457
sg75
(lp464
S''
asbasbasbasbasbasbasbag68
(g84
g70
NtRp465
(dp466
g73
(dp467
sg82
g267
sg75
(lp468
g68
(g89
g70
NtRp469
(dp470
g73
(dp471
g93
g94
ssg82
g465
sg75
(lp472
S'session_id_irecycle'
p473
asbag68
(g89
g70
NtRp474
(dp475
g73
(dp476
g100
g101
ssg82
g465
sg75
(lp477
S':'
asbag68
(g89
g70
NtRp478
(dp479
g73
(dp480
sg82
g465
sg75
(lp481
g68
(g69
g70
NtRp482
(dp483
g73
(dp484
g81
I4
ssg82
g478
sg75
(lp485
S'127.0.0.1-10f67e0b-8b95-4045-9f3c-2e1e4dff1c83'
p486
ag68
(g77
g70
NtRp487
(dp488
g73
(dp489
g81
I3
ssg82
Nsg75
(lp490
g68
(g84
g70
NtRp491
(dp492
g73
(dp493
sg82
g487
sg75
(lp494
g68
(g89
g70
NtRp495
(dp496
g73
(dp497
g93
g94
ssg82
g491
sg75
(lp498
g305
asbag68
(g89
g70
NtRp499
(dp500
g73
(dp501
g100
g101
ssg82
g491
sg75
(lp502
S':'
asbag68
(g89
g70
NtRp503
(dp504
g73
(dp505
sg82
g491
sg75
(lp506
g68
(g69
g70
NtRp507
(dp508
g73
(dp509
g81
I3
ssg82
g503
sg75
(lp510
S''
asbasbasbag68
(g84
g70
NtRp511
(dp512
g73
(dp513
sg82
g487
sg75
(lp514
g68
(g89
g70
NtRp515
(dp516
g73
(dp517
g93
g94
ssg82
g511
sg75
(lp518
g326
asbag68
(g89
g70
NtRp519
(dp520
g73
(dp521
g100
g101
ssg82
g511
sg75
(lp522
S':'
asbag68
(g89
g70
NtRp523
(dp524
g73
(dp525
sg82
g511
sg75
(lp526
g68
(g69
g70
NtRp527
(dp528
g73
(dp529
g81
I3
ssg82
g523
sg75
(lp530
S''
asbasbasbag68
(g84
g70
NtRp531
(dp532
g73
(dp533
sg82
g487
sg75
(lp534
g68
(g89
g70
NtRp535
(dp536
g73
(dp537
g93
g94
ssg82
g531
sg75
(lp538
g347
asbag68
(g89
g70
NtRp539
(dp540
g73
(dp541
g100
g101
ssg82
g531
sg75
(lp542
S':'
asbag68
(g89
g70
NtRp543
(dp544
g73
(dp545
sg82
g531
sg75
(lp546
g68
(g69
g70
NtRp547
(dp548
g73
(dp549
g81
I3
ssg82
g543
sg75
(lp550
S''
asbasbasbag68
(g84
g70
NtRp551
(dp552
g73
(dp553
sg82
g487
sg75
(lp554
g68
(g89
g70
NtRp555
(dp556
g73
(dp557
g93
g94
ssg82
g551
sg75
(lp558
g368
asbag68
(g89
g70
NtRp559
(dp560
g73
(dp561
g100
g101
ssg82
g551
sg75
(lp562
S':'
asbag68
(g89
g70
NtRp563
(dp564
g73
(dp565
sg82
g551
sg75
(lp566
g68
(g69
g70
NtRp567
(dp568
g73
(dp569
g81
I3
ssg82
g563
sg75
(lp570
S''
asbasbasbag68
(g84
g70
NtRp571
(dp572
g73
(dp573
sg82
g487
sg75
(lp574
g68
(g89
g70
NtRp575
(dp576
g73
(dp577
g93
g94
ssg82
g571
sg75
(lp578
g389
asbag68
(g89
g70
NtRp579
(dp580
g73
(dp581
g100
g101
ssg82
g571
sg75
(lp582
S':'
asbag68
(g89
g70
NtRp583
(dp584
g73
(dp585
sg82
g571
sg75
(lp586
g68
(g69
g70
NtRp587
(dp588
g73
(dp589
g81
I3
ssg82
g583
sg75
(lp590
S''
asbasbasbag68
(g84
g70
NtRp591
(dp592
g73
(dp593
sg82
g487
sg75
(lp594
g68
(g89
g70
NtRp595
(dp596
g73
(dp597
g93
g94
ssg82
g591
sg75
(lp598
g410
asbag68
(g89
g70
NtRp599
(dp600
g73
(dp601
g100
g101
ssg82
g591
sg75
(lp602
S':'
asbag68
(g89
g70
NtRp603
(dp604
g73
(dp605
sg82
g591
sg75
(lp606
g68
(g69
g70
NtRp607
(dp608
g73
(dp609
g81
I3
ssg82
g603
sg75
(lp610
S''
asbasbasbag68
(g84
g70
NtRp611
(dp612
g73
(dp613
sg82
g487
sg75
(lp614
g68
(g89
g70
NtRp615
(dp616
g73
(dp617
g93
g94
ssg82
g611
sg75
(lp618
g431
asbag68
(g89
g70
NtRp619
(dp620
g73
(dp621
g100
g101
ssg82
g611
sg75
(lp622
S':'
asbag68
(g89
g70
NtRp623
(dp624
g73
(dp625
sg82
g611
sg75
(lp626
g68
(g69
g70
NtRp627
(dp628
g73
(dp629
g81
I3
ssg82
g623
sg75
(lp630
S''
asbasbasbag68
(g84
g70
NtRp631
(dp632
g73
(dp633
sg82
g487
sg75
(lp634
g68
(g89
g70
NtRp635
(dp636
g73
(dp637
g93
g94
ssg82
g631
sg75
(lp638
g452
asbag68
(g89
g70
NtRp639
(dp640
g73
(dp641
g100
g101
ssg82
g631
sg75
(lp642
S':'
asbag68
(g89
g70
NtRp643
(dp644
g73
(dp645
sg82
g631
sg75
(lp646
g68
(g69
g70
NtRp647
(dp648
g73
(dp649
g81
I3
ssg82
g643
sg75
(lp650
S''
asbasbasbasbasbasbasbasbasbasbasbag68
(g84
g70
NtRp651
(dp652
g73
(dp653
sg82
g78
sg75
(lp654
g68
(g89
g70
NtRp655
(dp656
g73
(dp657
g93
g94
ssg82
g651
sg75
(lp658
S'env'
p659
asbag68
(g89
g70
NtRp660
(dp661
g73
(dp662
g100
g101
ssg82
g651
sg75
(lp663
S':'
asbag68
(g89
g70
NtRp664
(dp665
g73
(dp666
sg82
g651
sg75
(lp667
g68
(g69
g70
NtRp668
(dp669
g73
(dp670
g81
I5
ssg82
g664
sg75
(lp671
g68
(g77
g70
NtRp672
(dp673
g73
(dp674
g81
I4
ssg82
Nsg75
(lp675
g68
(g84
g70
NtRp676
(dp677
g73
(dp678
sg82
g672
sg75
(lp679
g68
(g89
g70
NtRp680
(dp681
g73
(dp682
g93
g94
ssg82
g676
sg75
(lp683
S'app_folders'
p684
asbag68
(g89
g70
NtRp685
(dp686
g73
(dp687
g100
g101
ssg82
g676
sg75
(lp688
S':'
asbag68
(g89
g70
NtRp689
(dp690
g73
(dp691
sg82
g676
sg75
(lp692
g68
(g69
g70
NtRp693
(dp694
g73
(dp695
g81
I4
ssg82
g689
sg75
(lp696
S"set(['/home/diego/web2py/applications/irecycle/', '/home/diego/web2py/applications/admin/'])"
p697
asbasbasbag68
(g84
g70
NtRp698
(dp699
g73
(dp700
sg82
g672
sg75
(lp701
g68
(g89
g70
NtRp702
(dp703
g73
(dp704
g93
g94
ssg82
g698
sg75
(lp705
S'applications_parent'
p706
asbag68
(g89
g70
NtRp707
(dp708
g73
(dp709
g100
g101
ssg82
g698
sg75
(lp710
S':'
asbag68
(g89
g70
NtRp711
(dp712
g73
(dp713
sg82
g698
sg75
(lp714
g68
(g69
g70
NtRp715
(dp716
g73
(dp717
g81
I4
ssg82
g711
sg75
(lp718
S'/home/diego/web2py'
p719
asbasbasbag68
(g84
g70
NtRp720
(dp721
g73
(dp722
sg82
g672
sg75
(lp723
g68
(g89
g70
NtRp724
(dp725
g73
(dp726
g93
g94
ssg82
g720
sg75
(lp727
S'cmd_args'
p728
asbag68
(g89
g70
NtRp729
(dp730
g73
(dp731
g100
g101
ssg82
g720
sg75
(lp732
S':'
asbag68
(g89
g70
NtRp733
(dp734
g73
(dp735
sg82
g720
sg75
(lp736
g68
(g69
g70
NtRp737
(dp738
g73
(dp739
g81
I4
ssg82
g733
sg75
(lp740
g68
(g77
g70
NtRp741
(dp742
g73
(dp743
g81
I3
ssg82
Nsg75
(lp744
sbasbasbasbag68
(g84
g70
NtRp745
(dp746
g73
(dp747
sg82
g672
sg75
(lp748
g68
(g89
g70
NtRp749
(dp750
g73
(dp751
g93
g94
ssg82
g745
sg75
(lp752
S'cmd_options'
p753
asbag68
(g89
g70
NtRp754
(dp755
g73
(dp756
g100
g101
ssg82
g745
sg75
(lp757
S':'
asbag68
(g89
g70
NtRp758
(dp759
g73
(dp760
sg82
g745
sg75
(lp761
g68
(g69
g70
NtRp762
(dp763
g73
(dp764
g81
I4
ssg82
g758
sg75
(lp765
S"<Values at 0x2991488: {'verbose': False, 'ip': '127.0.0.1', 'with_scheduler': False, 'ips': ['172.30.6.210'], 'shutdown_timeout': 5, 'taskbar': False, 'port': 8000, 'maxthreads': None, 'softcron': False, 'server_name': 'madagascar', 'bpython': False, 'nogui': False, 'pid_filename': 'httpserver.pid', 'extcron': False, 'runcron': False, 'run_system_tests': False, 'test': None, 'folder': '/home/diego/web2py', 'config': '', 'minthreads': None, 'winservice': '', 'shell': None, 'run': '', 'log_filename': 'httpserver.log', 'debuglevel': 30, 'args': [''], 'socket_timeout': 5, 'ssl_ca_certificate': None, 'scheduler': None, 'profiler_filename': None, 'ssl_private_key': '', 'scheduler_groups': None, 'password': '1234', 'request_queue_size': 5, 'ssl_certificate': '', 'cronjob': False, 'numthreads': None, 'quiet': False, 'interfaces': None, 'import_models': False, 'timeout': 10, 'plain': False, 'nobanner': False}>"
p766
asbasbasbag68
(g84
g70
NtRp767
(dp768
g73
(dp769
sg82
g672
sg75
(lp770
g68
(g89
g70
NtRp771
(dp772
g73
(dp773
g93
g94
ssg82
g767
sg75
(lp774
S'db_sessions'
p775
asbag68
(g89
g70
NtRp776
(dp777
g73
(dp778
g100
g101
ssg82
g767
sg75
(lp779
S':'
asbag68
(g89
g70
NtRp780
(dp781
g73
(dp782
sg82
g767
sg75
(lp783
g68
(g69
g70
NtRp784
(dp785
g73
(dp786
g81
I4
ssg82
g780
sg75
(lp787
S'set([])'
p788
asbasbasbag68
(g84
g70
NtRp789
(dp790
g73
(dp791
sg82
g672
sg75
(lp792
g68
(g89
g70
NtRp793
(dp794
g73
(dp795
g93
g94
ssg82
g789
sg75
(lp796
S'debugging'
p797
asbag68
(g89
g70
NtRp798
(dp799
g73
(dp800
g100
g101
ssg82
g789
sg75
(lp801
S':'
asbag68
(g89
g70
NtRp802
(dp803
g73
(dp804
sg82
g789
sg75
(lp805
g68
(g69
g70
NtRp806
(dp807
g73
(dp808
g81
I4
ssg82
g802
sg75
(lp809
g111
asbasbasbag68
(g84
g70
NtRp810
(dp811
g73
(dp812
sg82
g672
sg75
(lp813
g68
(g89
g70
NtRp814
(dp815
g73
(dp816
g93
g94
ssg82
g810
sg75
(lp817
S'gluon_parent'
p818
asbag68
(g89
g70
NtRp819
(dp820
g73
(dp821
g100
g101
ssg82
g810
sg75
(lp822
S':'
asbag68
(g89
g70
NtRp823
(dp824
g73
(dp825
sg82
g810
sg75
(lp826
g68
(g69
g70
NtRp827
(dp828
g73
(dp829
g81
I4
ssg82
g823
sg75
(lp830
S'/home/diego/web2py'
p831
asbasbasbag68
(g84
g70
NtRp832
(dp833
g73
(dp834
sg82
g672
sg75
(lp835
g68
(g89
g70
NtRp836
(dp837
g73
(dp838
g93
g94
ssg82
g832
sg75
(lp839
S'http_accept'
p840
asbag68
(g89
g70
NtRp841
(dp842
g73
(dp843
g100
g101
ssg82
g832
sg75
(lp844
S':'
asbag68
(g89
g70
NtRp845
(dp846
g73
(dp847
sg82
g832
sg75
(lp848
g68
(g69
g70
NtRp849
(dp850
g73
(dp851
g81
I4
ssg82
g845
sg75
(lp852
S'text/html,application/xhtml+xml,application/xml;q=0.9,*/*;q=0.8'
p853
asbasbasbag68
(g84
g70
NtRp854
(dp855
g73
(dp856
sg82
g672
sg75
(lp857
g68
(g89
g70
NtRp858
(dp859
g73
(dp860
g93
g94
ssg82
g854
sg75
(lp861
S'http_accept_charset'
p862
asbag68
(g89
g70
NtRp863
(dp864
g73
(dp865
g100
g101
ssg82
g854
sg75
(lp866
S':'
asbag68
(g89
g70
NtRp867
(dp868
g73
(dp869
sg82
g854
sg75
(lp870
g68
(g69
g70
NtRp871
(dp872
g73
(dp873
g81
I4
ssg82
g867
sg75
(lp874
S'ISO-8859-1,utf-8;q=0.7,*;q=0.3'
p875
asbasbasbag68
(g84
g70
NtRp876
(dp877
g73
(dp878
sg82
g672
sg75
(lp879
g68
(g89
g70
NtRp880
(dp881
g73
(dp882
g93
g94
ssg82
g876
sg75
(lp883
S'http_accept_encoding'
p884
asbag68
(g89
g70
NtRp885
(dp886
g73
(dp887
g100
g101
ssg82
g876
sg75
(lp888
S':'
asbag68
(g89
g70
NtRp889
(dp890
g73
(dp891
sg82
g876
sg75
(lp892
g68
(g69
g70
NtRp893
(dp894
g73
(dp895
g81
I4
ssg82
g889
sg75
(lp896
S'gzip,deflate,sdch'
p897
asbasbasbag68
(g84
g70
NtRp898
(dp899
g73
(dp900
sg82
g672
sg75
(lp901
g68
(g89
g70
NtRp902
(dp903
g73
(dp904
g93
g94
ssg82
g898
sg75
(lp905
S'http_accept_language'
p906
asbag68
(g89
g70
NtRp907
(dp908
g73
(dp909
g100
g101
ssg82
g898
sg75
(lp910
S':'
asbag68
(g89
g70
NtRp911
(dp912
g73
(dp913
sg82
g898
sg75
(lp914
g68
(g69
g70
NtRp915
(dp916
g73
(dp917
g81
I4
ssg82
g911
sg75
(lp918
S'pt-BR,pt;q=0.8,en-US;q=0.6,en;q=0.4'
p919
asbasbasbag68
(g84
g70
NtRp920
(dp921
g73
(dp922
sg82
g672
sg75
(lp923
g68
(g89
g70
NtRp924
(dp925
g73
(dp926
g93
g94
ssg82
g920
sg75
(lp927
S'http_cache_control'
p928
asbag68
(g89
g70
NtRp929
(dp930
g73
(dp931
g100
g101
ssg82
g920
sg75
(lp932
S':'
asbag68
(g89
g70
NtRp933
(dp934
g73
(dp935
sg82
g920
sg75
(lp936
g68
(g69
g70
NtRp937
(dp938
g73
(dp939
g81
I4
ssg82
g933
sg75
(lp940
S'max-age=0'
p941
asbasbasbag68
(g84
g70
NtRp942
(dp943
g73
(dp944
sg82
g672
sg75
(lp945
g68
(g89
g70
NtRp946
(dp947
g73
(dp948
g93
g94
ssg82
g942
sg75
(lp949
S'http_connection'
p950
asbag68
(g89
g70
NtRp951
(dp952
g73
(dp953
g100
g101
ssg82
g942
sg75
(lp954
S':'
asbag68
(g89
g70
NtRp955
(dp956
g73
(dp957
sg82
g942
sg75
(lp958
g68
(g69
g70
NtRp959
(dp960
g73
(dp961
g81
I4
ssg82
g955
sg75
(lp962
S'keep-alive'
p963
asbasbasbag68
(g84
g70
NtRp964
(dp965
g73
(dp966
sg82
g672
sg75
(lp967
g68
(g89
g70
NtRp968
(dp969
g73
(dp970
g93
g94
ssg82
g964
sg75
(lp971
S'http_cookie'
p972
asbag68
(g89
g70
NtRp973
(dp974
g73
(dp975
g100
g101
ssg82
g964
sg75
(lp976
S':'
asbag68
(g89
g70
NtRp977
(dp978
g73
(dp979
sg82
g964
sg75
(lp980
g68
(g69
g70
NtRp981
(dp982
g73
(dp983
g81
I4
ssg82
g977
sg75
(lp984
S'session_id_irecycle=127.0.0.1-10f67e0b-8b95-4045-9f3c-2e1e4dff1c83; session_id_admin=127.0.0.1-e9b49389-2418-4b45-bd80-845c8869c15c'
p985
asbasbasbag68
(g84
g70
NtRp986
(dp987
g73
(dp988
sg82
g672
sg75
(lp989
g68
(g89
g70
NtRp990
(dp991
g73
(dp992
g93
g94
ssg82
g986
sg75
(lp993
S'http_host'
p994
asbag68
(g89
g70
NtRp995
(dp996
g73
(dp997
g100
g101
ssg82
g986
sg75
(lp998
S':'
asbag68
(g89
g70
NtRp999
(dp1000
g73
(dp1001
sg82
g986
sg75
(lp1002
g68
(g69
g70
NtRp1003
(dp1004
g73
(dp1005
g81
I4
ssg82
g999
sg75
(lp1006
S'localhost:8000'
p1007
asbasbasbag68
(g84
g70
NtRp1008
(dp1009
g73
(dp1010
sg82
g672
sg75
(lp1011
g68
(g89
g70
NtRp1012
(dp1013
g73
(dp1014
g93
g94
ssg82
g1008
sg75
(lp1015
S'http_referer'
p1016
asbag68
(g89
g70
NtRp1017
(dp1018
g73
(dp1019
g100
g101
ssg82
g1008
sg75
(lp1020
S':'
asbag68
(g89
g70
NtRp1021
(dp1022
g73
(dp1023
sg82
g1008
sg75
(lp1024
g68
(g69
g70
NtRp1025
(dp1026
g73
(dp1027
g81
I4
ssg82
g1021
sg75
(lp1028
S'http://localhost:8000/irecycle/default/index'
p1029
asbasbasbag68
(g84
g70
NtRp1030
(dp1031
g73
(dp1032
sg82
g672
sg75
(lp1033
g68
(g89
g70
NtRp1034
(dp1035
g73
(dp1036
g93
g94
ssg82
g1030
sg75
(lp1037
S'http_user_agent'
p1038
asbag68
(g89
g70
NtRp1039
(dp1040
g73
(dp1041
g100
g101
ssg82
g1030
sg75
(lp1042
S':'
asbag68
(g89
g70
NtRp1043
(dp1044
g73
(dp1045
sg82
g1030
sg75
(lp1046
g68
(g69
g70
NtRp1047
(dp1048
g73
(dp1049
g81
I4
ssg82
g1043
sg75
(lp1050
S'Mozilla/5.0 (X11; Linux x86_64) AppleWebKit/537.17 (KHTML, like Gecko) Chrome/24.0.1312.52 Safari/537.17'
p1051
asbasbasbag68
(g84
g70
NtRp1052
(dp1053
g73
(dp1054
sg82
g672
sg75
(lp1055
g68
(g89
g70
NtRp1056
(dp1057
g73
(dp1058
g93
g94
ssg82
g1052
sg75
(lp1059
S'is_jython'
p1060
asbag68
(g89
g70
NtRp1061
(dp1062
g73
(dp1063
g100
g101
ssg82
g1052
sg75
(lp1064
S':'
asbag68
(g89
g70
NtRp1065
(dp1066
g73
(dp1067
sg82
g1052
sg75
(lp1068
g68
(g69
g70
NtRp1069
(dp1070
g73
(dp1071
g81
I4
ssg82
g1065
sg75
(lp1072
g111
asbasbasbag68
(g84
g70
NtRp1073
(dp1074
g73
(dp1075
sg82
g672
sg75
(lp1076
g68
(g89
g70
NtRp1077
(dp1078
g73
(dp1079
g93
g94
ssg82
g1073
sg75
(lp1080
S'is_pypy'
p1081
asbag68
(g89
g70
NtRp1082
(dp1083
g73
(dp1084
g100
g101
ssg82
g1073
sg75
(lp1085
S':'
asbag68
(g89
g70
NtRp1086
(dp1087
g73
(dp1088
sg82
g1073
sg75
(lp1089
g68
(g69
g70
NtRp1090
(dp1091
g73
(dp1092
g81
I4
ssg82
g1086
sg75
(lp1093
g111
asbasbasbag68
(g84
g70
NtRp1094
(dp1095
g73
(dp1096
sg82
g672
sg75
(lp1097
g68
(g89
g70
NtRp1098
(dp1099
g73
(dp1100
g93
g94
ssg82
g1094
sg75
(lp1101
S'local_hosts'
p1102
asbag68
(g89
g70
NtRp1103
(dp1104
g73
(dp1105
g100
g101
ssg82
g1094
sg75
(lp1106
S':'
asbag68
(g89
g70
NtRp1107
(dp1108
g73
(dp1109
sg82
g1094
sg75
(lp1110
g68
(g69
g70
NtRp1111
(dp1112
g73
(dp1113
g81
I4
ssg82
g1107
sg75
(lp1114
g68
(g77
g70
NtRp1115
(dp1116
g73
(dp1117
g81
I3
ssg82
Nsg75
(lp1118
g68
(g84
g70
NtRp1119
(dp1120
g73
(dp1121
sg82
g1115
sg75
(lp1122
g68
(g89
g70
NtRp1123
(dp1124
g73
(dp1125
sg82
g1119
sg75
(lp1126
g68
(g69
g70
NtRp1127
(dp1128
g73
(dp1129
g81
I3
ssg82
g1123
sg75
(lp1130
S'::1'
p1131
asbasbasbag68
(g84
g70
NtRp1132
(dp1133
g73
(dp1134
sg82
g1115
sg75
(lp1135
g68
(g89
g70
NtRp1136
(dp1137
g73
(dp1138
sg82
g1132
sg75
(lp1139
g68
(g69
g70
NtRp1140
(dp1141
g73
(dp1142
g81
I3
ssg82
g1136
sg75
(lp1143
S'madagascar'
p1144
asbasbasbag68
(g84
g70
NtRp1145
(dp1146
g73
(dp1147
sg82
g1115
sg75
(lp1148
g68
(g89
g70
NtRp1149
(dp1150
g73
(dp1151
sg82
g1145
sg75
(lp1152
g68
(g69
g70
NtRp1153
(dp1154
g73
(dp1155
g81
I3
ssg82
g1149
sg75
(lp1156
S'::ffff:127.0.0.1'
p1157
asbasbasbag68
(g84
g70
NtRp1158
(dp1159
g73
(dp1160
sg82
g1115
sg75
(lp1161
g68
(g89
g70
NtRp1162
(dp1163
g73
(dp1164
sg82
g1158
sg75
(lp1165
g68
(g69
g70
NtRp1166
(dp1167
g73
(dp1168
g81
I3
ssg82
g1162
sg75
(lp1169
S'127.0.0.1'
p1170
asbasbasbag68
(g84
g70
NtRp1171
(dp1172
g73
(dp1173
sg82
g1115
sg75
(lp1174
g68
(g89
g70
NtRp1175
(dp1176
g73
(dp1177
sg82
g1171
sg75
(lp1178
g68
(g69
g70
NtRp1179
(dp1180
g73
(dp1181
g81
I3
ssg82
g1175
sg75
(lp1182
S'172.30.6.210'
p1183
asbasbasbasbasbasbasbag68
(g84
g70
NtRp1184
(dp1185
g73
(dp1186
sg82
g672
sg75
(lp1187
g68
(g89
g70
NtRp1188
(dp1189
g73
(dp1190
g93
g94
ssg82
g1184
sg75
(lp1191
S'path_info'
p1192
asbag68
(g89
g70
NtRp1193
(dp1194
g73
(dp1195
g100
g101
ssg82
g1184
sg75
(lp1196
S':'
asbag68
(g89
g70
NtRp1197
(dp1198
g73
(dp1199
sg82
g1184
sg75
(lp1200
g68
(g69
g70
NtRp1201
(dp1202
g73
(dp1203
g81
I4
ssg82
g1197
sg75
(lp1204
S'/irecycle/contact/contact'
p1205
asbasbasbag68
(g84
g70
NtRp1206
(dp1207
g73
(dp1208
sg82
g672
sg75
(lp1209
g68
(g89
g70
NtRp1210
(dp1211
g73
(dp1212
g93
g94
ssg82
g1206
sg75
(lp1213
S'query_string'
p1214
asbag68
(g89
g70
NtRp1215
(dp1216
g73
(dp1217
g100
g101
ssg82
g1206
sg75
(lp1218
S':'
asbag68
(g89
g70
NtRp1219
(dp1220
g73
(dp1221
sg82
g1206
sg75
(lp1222
g68
(g69
g70
NtRp1223
(dp1224
g73
(dp1225
g81
I4
ssg82
g1219
sg75
(lp1226
S''
asbasbasbag68
(g84
g70
NtRp1227
(dp1228
g73
(dp1229
sg82
g672
sg75
(lp1230
g68
(g89
g70
NtRp1231
(dp1232
g73
(dp1233
g93
g94
ssg82
g1227
sg75
(lp1234
S'remote_addr'
p1235
asbag68
(g89
g70
NtRp1236
(dp1237
g73
(dp1238
g100
g101
ssg82
g1227
sg75
(lp1239
S':'
asbag68
(g89
g70
NtRp1240
(dp1241
g73
(dp1242
sg82
g1227
sg75
(lp1243
g68
(g69
g70
NtRp1244
(dp1245
g73
(dp1246
g81
I4
ssg82
g1240
sg75
(lp1247
g223
asbasbasbag68
(g84
g70
NtRp1248
(dp1249
g73
(dp1250
sg82
g672
sg75
(lp1251
g68
(g89
g70
NtRp1252
(dp1253
g73
(dp1254
g93
g94
ssg82
g1248
sg75
(lp1255
S'remote_port'
p1256
asbag68
(g89
g70
NtRp1257
(dp1258
g73
(dp1259
g100
g101
ssg82
g1248
sg75
(lp1260
S':'
asbag68
(g89
g70
NtRp1261
(dp1262
g73
(dp1263
sg82
g1248
sg75
(lp1264
g68
(g69
g70
NtRp1265
(dp1266
g73
(dp1267
g81
I4
ssg82
g1261
sg75
(lp1268
S'58274'
p1269
asbasbasbag68
(g84
g70
NtRp1270
(dp1271
g73
(dp1272
sg82
g672
sg75
(lp1273
g68
(g89
g70
NtRp1274
(dp1275
g73
(dp1276
g93
g94
ssg82
g1270
sg75
(lp1277
S'request_method'
p1278
asbag68
(g89
g70
NtRp1279
(dp1280
g73
(dp1281
g100
g101
ssg82
g1270
sg75
(lp1282
S':'
asbag68
(g89
g70
NtRp1283
(dp1284
g73
(dp1285
sg82
g1270
sg75
(lp1286
g68
(g69
g70
NtRp1287
(dp1288
g73
(dp1289
g81
I4
ssg82
g1283
sg75
(lp1290
S'GET'
p1291
asbasbasbag68
(g84
g70
NtRp1292
(dp1293
g73
(dp1294
sg82
g672
sg75
(lp1295
g68
(g89
g70
NtRp1296
(dp1297
g73
(dp1298
g93
g94
ssg82
g1292
sg75
(lp1299
S'request_uri'
p1300
asbag68
(g89
g70
NtRp1301
(dp1302
g73
(dp1303
g100
g101
ssg82
g1292
sg75
(lp1304
S':'
asbag68
(g89
g70
NtRp1305
(dp1306
g73
(dp1307
sg82
g1292
sg75
(lp1308
g68
(g69
g70
NtRp1309
(dp1310
g73
(dp1311
g81
I4
ssg82
g1305
sg75
(lp1312
g1205
asbasbasbag68
(g84
g70
NtRp1313
(dp1314
g73
(dp1315
sg82
g672
sg75
(lp1316
g68
(g89
g70
NtRp1317
(dp1318
g73
(dp1319
g93
g94
ssg82
g1313
sg75
(lp1320
S'script_name'
p1321
asbag68
(g89
g70
NtRp1322
(dp1323
g73
(dp1324
g100
g101
ssg82
g1313
sg75
(lp1325
S':'
asbag68
(g89
g70
NtRp1326
(dp1327
g73
(dp1328
sg82
g1313
sg75
(lp1329
g68
(g69
g70
NtRp1330
(dp1331
g73
(dp1332
g81
I4
ssg82
g1326
sg75
(lp1333
S''
asbasbasbag68
(g84
g70
NtRp1334
(dp1335
g73
(dp1336
sg82
g672
sg75
(lp1337
g68
(g89
g70
NtRp1338
(dp1339
g73
(dp1340
g93
g94
ssg82
g1334
sg75
(lp1341
S'server_name'
p1342
asbag68
(g89
g70
NtRp1343
(dp1344
g73
(dp1345
g100
g101
ssg82
g1334
sg75
(lp1346
S':'
asbag68
(g89
g70
NtRp1347
(dp1348
g73
(dp1349
sg82
g1334
sg75
(lp1350
g68
(g69
g70
NtRp1351
(dp1352
g73
(dp1353
g81
I4
ssg82
g1347
sg75
(lp1354
S'madagascar'
p1355
asbasbasbag68
(g84
g70
NtRp1356
(dp1357
g73
(dp1358
sg82
g672
sg75
(lp1359
g68
(g89
g70
NtRp1360
(dp1361
g73
(dp1362
g93
g94
ssg82
g1356
sg75
(lp1363
S'server_port'
p1364
asbag68
(g89
g70
NtRp1365
(dp1366
g73
(dp1367
g100
g101
ssg82
g1356
sg75
(lp1368
S':'
asbag68
(g89
g70
NtRp1369
(dp1370
g73
(dp1371
sg82
g1356
sg75
(lp1372
g68
(g69
g70
NtRp1373
(dp1374
g73
(dp1375
g81
I4
ssg82
g1369
sg75
(lp1376
S'8000'
p1377
asbasbasbag68
(g84
g70
NtRp1378
(dp1379
g73
(dp1380
sg82
g672
sg75
(lp1381
g68
(g89
g70
NtRp1382
(dp1383
g73
(dp1384
g93
g94
ssg82
g1378
sg75
(lp1385
S'server_protocol'
p1386
asbag68
(g89
g70
NtRp1387
(dp1388
g73
(dp1389
g100
g101
ssg82
g1378
sg75
(lp1390
S':'
asbag68
(g89
g70
NtRp1391
(dp1392
g73
(dp1393
sg82
g1378
sg75
(lp1394
g68
(g69
g70
NtRp1395
(dp1396
g73
(dp1397
g81
I4
ssg82
g1391
sg75
(lp1398
S'HTTP/1.1'
p1399
asbasbasbag68
(g84
g70
NtRp1400
(dp1401
g73
(dp1402
sg82
g672
sg75
(lp1403
g68
(g89
g70
NtRp1404
(dp1405
g73
(dp1406
g93
g94
ssg82
g1400
sg75
(lp1407
S'server_software'
p1408
asbag68
(g89
g70
NtRp1409
(dp1410
g73
(dp1411
g100
g101
ssg82
g1400
sg75
(lp1412
S':'
asbag68
(g89
g70
NtRp1413
(dp1414
g73
(dp1415
sg82
g1400
sg75
(lp1416
g68
(g69
g70
NtRp1417
(dp1418
g73
(dp1419
g81
I4
ssg82
g1413
sg75
(lp1420
S'Rocket 1.2.6'
p1421
asbasbasbag68
(g84
g70
NtRp1422
(dp1423
g73
(dp1424
sg82
g672
sg75
(lp1425
g68
(g89
g70
NtRp1426
(dp1427
g73
(dp1428
g93
g94
ssg82
g1422
sg75
(lp1429
S'web2py_path'
p1430
asbag68
(g89
g70
NtRp1431
(dp1432
g73
(dp1433
g100
g101
ssg82
g1422
sg75
(lp1434
S':'
asbag68
(g89
g70
NtRp1435
(dp1436
g73
(dp1437
sg82
g1422
sg75
(lp1438
g68
(g69
g70
NtRp1439
(dp1440
g73
(dp1441
g81
I4
ssg82
g1435
sg75
(lp1442
g719
asbasbasbag68
(g84
g70
NtRp1443
(dp1444
g73
(dp1445
sg82
g672
sg75
(lp1446
g68
(g89
g70
NtRp1447
(dp1448
g73
(dp1449
g93
g94
ssg82
g1443
sg75
(lp1450
S'web2py_version'
p1451
asbag68
(g89
g70
NtRp1452
(dp1453
g73
(dp1454
g100
g101
ssg82
g1443
sg75
(lp1455
S':'
asbag68
(g89
g70
NtRp1456
(dp1457
g73
(dp1458
sg82
g1443
sg75
(lp1459
g68
(g69
g70
NtRp1460
(dp1461
g73
(dp1462
g81
I4
ssg82
g1456
sg75
(lp1463
g68
(g77
g70
NtRp1464
(dp1465
g73
(dp1466
g81
I3
ssg82
Nsg75
(lp1467
g68
(g84
g70
NtRp1468
(dp1469
g73
(dp1470
sg82
g1464
sg75
(lp1471
g68
(g89
g70
NtRp1472
(dp1473
g73
(dp1474
sg82
g1468
sg75
(lp1475
g68
(g69
g70
NtRp1476
(dp1477
g73
(dp1478
g81
I3
ssg82
g1472
sg75
(lp1479
S'2'
asbasbasbag68
(g84
g70
NtRp1480
(dp1481
g73
(dp1482
sg82
g1464
sg75
(lp1483
g68
(g89
g70
NtRp1484
(dp1485
g73
(dp1486
sg82
g1480
sg75
(lp1487
g68
(g69
g70
NtRp1488
(dp1489
g73
(dp1490
g81
I3
ssg82
g1484
sg75
(lp1491
S'3'
asbasbasbag68
(g84
g70
NtRp1492
(dp1493
g73
(dp1494
sg82
g1464
sg75
(lp1495
g68
(g89
g70
NtRp1496
(dp1497
g73
(dp1498
sg82
g1492
sg75
(lp1499
g68
(g69
g70
NtRp1500
(dp1501
g73
(dp1502
g81
I3
ssg82
g1496
sg75
(lp1503
S'2'
asbasbasbag68
(g84
g70
NtRp1504
(dp1505
g73
(dp1506
sg82
g1464
sg75
(lp1507
g68
(g89
g70
NtRp1508
(dp1509
g73
(dp1510
sg82
g1504
sg75
(lp1511
g68
(g69
g70
NtRp1512
(dp1513
g73
(dp1514
g81
I3
ssg82
g1508
sg75
(lp1515
S'datetime.datetime(2012, 12, 17, 15, 3, 30)'
p1516
asbasbasbag68
(g84
g70
NtRp1517
(dp1518
g73
(dp1519
sg82
g1464
sg75
(lp1520
g68
(g89
g70
NtRp1521
(dp1522
g73
(dp1523
sg82
g1517
sg75
(lp1524
g68
(g69
g70
NtRp1525
(dp1526
g73
(dp1527
g81
I3
ssg82
g1521
sg75
(lp1528
S'stable'
p1529
asbasbasbasbasbasbasbag68
(g84
g70
NtRp1530
(dp1531
g73
(dp1532
sg82
g672
sg75
(lp1533
g68
(g89
g70
NtRp1534
(dp1535
g73
(dp1536
g93
g94
ssg82
g1530
sg75
(lp1537
S'wsgi_errors'
p1538
asbag68
(g89
g70
NtRp1539
(dp1540
g73
(dp1541
g100
g101
ssg82
g1530
sg75
(lp1542
S':'
asbag68
(g89
g70
NtRp1543
(dp1544
g73
(dp1545
sg82
g1530
sg75
(lp1546
g68
(g69
g70
NtRp1547
(dp1548
g73
(dp1549
g81
I4
ssg82
g1543
sg75
(lp1550
S"<open file '<stderr>', mode 'w' at 0x7f2c54870270>"
p1551
asbasbasbag68
(g84
g70
NtRp1552
(dp1553
g73
(dp1554
sg82
g672
sg75
(lp1555
g68
(g89
g70
NtRp1556
(dp1557
g73
(dp1558
g93
g94
ssg82
g1552
sg75
(lp1559
S'wsgi_file_wrapper'
p1560
asbag68
(g89
g70
NtRp1561
(dp1562
g73
(dp1563
g100
g101
ssg82
g1552
sg75
(lp1564
S':'
asbag68
(g89
g70
NtRp1565
(dp1566
g73
(dp1567
sg82
g1552
sg75
(lp1568
g68
(g69
g70
NtRp1569
(dp1570
g73
(dp1571
g81
I4
ssg82
g1565
sg75
(lp1572
S'<class wsgiref.util.FileWrapper at 0x28f0738>'
p1573
asbasbasbag68
(g84
g70
NtRp1574
(dp1575
g73
(dp1576
sg82
g672
sg75
(lp1577
g68
(g89
g70
NtRp1578
(dp1579
g73
(dp1580
g93
g94
ssg82
g1574
sg75
(lp1581
S'wsgi_input'
p1582
asbag68
(g89
g70
NtRp1583
(dp1584
g73
(dp1585
g100
g101
ssg82
g1574
sg75
(lp1586
S':'
asbag68
(g89
g70
NtRp1587
(dp1588
g73
(dp1589
sg82
g1574
sg75
(lp1590
g68
(g69
g70
NtRp1591
(dp1592
g73
(dp1593
g81
I4
ssg82
g1587
sg75
(lp1594
S'<socket._fileobject object at 0x7f2c4010ebd0>'
p1595
asbasbasbag68
(g84
g70
NtRp1596
(dp1597
g73
(dp1598
sg82
g672
sg75
(lp1599
g68
(g89
g70
NtRp1600
(dp1601
g73
(dp1602
g93
g94
ssg82
g1596
sg75
(lp1603
S'wsgi_multiprocess'
p1604
asbag68
(g89
g70
NtRp1605
(dp1606
g73
(dp1607
g100
g101
ssg82
g1596
sg75
(lp1608
S':'
asbag68
(g89
g70
NtRp1609
(dp1610
g73
(dp1611
sg82
g1596
sg75
(lp1612
g68
(g69
g70
NtRp1613
(dp1614
g73
(dp1615
g81
I4
ssg82
g1609
sg75
(lp1616
g111
asbasbasbag68
(g84
g70
NtRp1617
(dp1618
g73
(dp1619
sg82
g672
sg75
(lp1620
g68
(g89
g70
NtRp1621
(dp1622
g73
(dp1623
g93
g94
ssg82
g1617
sg75
(lp1624
S'wsgi_multithread'
p1625
asbag68
(g89
g70
NtRp1626
(dp1627
g73
(dp1628
g100
g101
ssg82
g1617
sg75
(lp1629
S':'
asbag68
(g89
g70
NtRp1630
(dp1631
g73
(dp1632
sg82
g1617
sg75
(lp1633
g68
(g69
g70
NtRp1634
(dp1635
g73
(dp1636
g81
I4
ssg82
g1630
sg75
(lp1637
S'True'
p1638
asbasbasbag68
(g84
g70
NtRp1639
(dp1640
g73
(dp1641
sg82
g672
sg75
(lp1642
g68
(g89
g70
NtRp1643
(dp1644
g73
(dp1645
g93
g94
ssg82
g1639
sg75
(lp1646
S'wsgi_run_once'
p1647
asbag68
(g89
g70
NtRp1648
(dp1649
g73
(dp1650
g100
g101
ssg82
g1639
sg75
(lp1651
S':'
asbag68
(g89
g70
NtRp1652
(dp1653
g73
(dp1654
sg82
g1639
sg75
(lp1655
g68
(g69
g70
NtRp1656
(dp1657
g73
(dp1658
g81
I4
ssg82
g1652
sg75
(lp1659
g111
asbasbasbag68
(g84
g70
NtRp1660
(dp1661
g73
(dp1662
sg82
g672
sg75
(lp1663
g68
(g89
g70
NtRp1664
(dp1665
g73
(dp1666
g93
g94
ssg82
g1660
sg75
(lp1667
S'wsgi_url_scheme'
p1668
asbag68
(g89
g70
NtRp1669
(dp1670
g73
(dp1671
g100
g101
ssg82
g1660
sg75
(lp1672
S':'
asbag68
(g89
g70
NtRp1673
(dp1674
g73
(dp1675
sg82
g1660
sg75
(lp1676
g68
(g69
g70
NtRp1677
(dp1678
g73
(dp1679
g81
I4
ssg82
g1673
sg75
(lp1680
S'http'
p1681
asbasbasbag68
(g84
g70
NtRp1682
(dp1683
g73
(dp1684
sg82
g672
sg75
(lp1685
g68
(g89
g70
NtRp1686
(dp1687
g73
(dp1688
g93
g94
ssg82
g1682
sg75
(lp1689
S'wsgi_version'
p1690
asbag68
(g89
g70
NtRp1691
(dp1692
g73
(dp1693
g100
g101
ssg82
g1682
sg75
(lp1694
S':'
asbag68
(g89
g70
NtRp1695
(dp1696
g73
(dp1697
sg82
g1682
sg75
(lp1698
g68
(g69
g70
NtRp1699
(dp1700
g73
(dp1701
g81
I4
ssg82
g1695
sg75
(lp1702
g68
(g77
g70
NtRp1703
(dp1704
g73
(dp1705
g81
I3
ssg82
Nsg75
(lp1706
g68
(g84
g70
NtRp1707
(dp1708
g73
(dp1709
sg82
g1703
sg75
(lp1710
g68
(g89
g70
NtRp1711
(dp1712
g73
(dp1713
sg82
g1707
sg75
(lp1714
g68
(g69
g70
NtRp1715
(dp1716
g73
(dp1717
g81
I3
ssg82
g1711
sg75
(lp1718
S'1'
asbasbasbag68
(g84
g70
NtRp1719
(dp1720
g73
(dp1721
sg82
g1703
sg75
(lp1722
g68
(g89
g70
NtRp1723
(dp1724
g73
(dp1725
sg82
g1719
sg75
(lp1726
g68
(g69
g70
NtRp1727
(dp1728
g73
(dp1729
g81
I3
ssg82
g1723
sg75
(lp1730
S'0'
asbasbasbasbasbasbasbasbasbasbasbag68
(g84
g70
NtRp1731
(dp1732
g73
(dp1733
sg82
g78
sg75
(lp1734
g68
(g89
g70
NtRp1735
(dp1736
g73
(dp1737
g93
g94
ssg82
g1731
sg75
(lp1738
S'extension'
p1739
asbag68
(g89
g70
NtRp1740
(dp1741
g73
(dp1742
g100
g101
ssg82
g1731
sg75
(lp1743
S':'
asbag68
(g89
g70
NtRp1744
(dp1745
g73
(dp1746
sg82
g1731
sg75
(lp1747
g68
(g69
g70
NtRp1748
(dp1749
g73
(dp1750
g81
I5
ssg82
g1744
sg75
(lp1751
S'html'
p1752
asbasbasbag68
(g84
g70
NtRp1753
(dp1754
g73
(dp1755
sg82
g78
sg75
(lp1756
g68
(g89
g70
NtRp1757
(dp1758
g73
(dp1759
g93
g94
ssg82
g1753
sg75
(lp1760
S'folder'
p1761
asbag68
(g89
g70
NtRp1762
(dp1763
g73
(dp1764
g100
g101
ssg82
g1753
sg75
(lp1765
S':'
asbag68
(g89
g70
NtRp1766
(dp1767
g73
(dp1768
sg82
g1753
sg75
(lp1769
g68
(g69
g70
NtRp1770
(dp1771
g73
(dp1772
g81
I5
ssg82
g1766
sg75
(lp1773
S'/home/diego/web2py/applications/irecycle/'
p1774
asbasbasbag68
(g84
g70
NtRp1775
(dp1776
g73
(dp1777
sg82
g78
sg75
(lp1778
g68
(g89
g70
NtRp1779
(dp1780
g73
(dp1781
g93
g94
ssg82
g1775
sg75
(lp1782
S'function'
p1783
asbag68
(g89
g70
NtRp1784
(dp1785
g73
(dp1786
g100
g101
ssg82
g1775
sg75
(lp1787
S':'
asbag68
(g89
g70
NtRp1788
(dp1789
g73
(dp1790
sg82
g1775
sg75
(lp1791
g68
(g69
g70
NtRp1792
(dp1793
g73
(dp1794
g81
I5
ssg82
g1788
sg75
(lp1795
S'contact'
p1796
asbasbasbag68
(g84
g70
NtRp1797
(dp1798
g73
(dp1799
sg82
g78
sg75
(lp1800
g68
(g89
g70
NtRp1801
(dp1802
g73
(dp1803
g93
g94
ssg82
g1797
sg75
(lp1804
S'get_vars'
p1805
asbag68
(g89
g70
NtRp1806
(dp1807
g73
(dp1808
g100
g101
ssg82
g1797
sg75
(lp1809
S':'
asbag68
(g89
g70
NtRp1810
(dp1811
g73
(dp1812
sg82
g1797
sg75
(lp1813
g68
(g69
g70
NtRp1814
(dp1815
g73
(dp1816
g81
I5
ssg82
g1810
sg75
(lp1817
g68
(g77
g70
NtRp1818
(dp1819
g73
(dp1820
g81
I4
ssg82
Nsg75
(lp1821
sbasbasbasbag68
(g84
g70
NtRp1822
(dp1823
g73
(dp1824
sg82
g78
sg75
(lp1825
g68
(g89
g70
NtRp1826
(dp1827
g73
(dp1828
g93
g94
ssg82
g1822
sg75
(lp1829
S'global_settings'
p1830
asbag68
(g89
g70
NtRp1831
(dp1832
g73
(dp1833
g100
g101
ssg82
g1822
sg75
(lp1834
S':'
asbag68
(g89
g70
NtRp1835
(dp1836
g73
(dp1837
sg82
g1822
sg75
(lp1838
g68
(g69
g70
NtRp1839
(dp1840
g73
(dp1841
g81
I5
ssg82
g1835
sg75
(lp1842
g68
(g77
g70
NtRp1843
(dp1844
g73
(dp1845
g81
I4
ssg82
Nsg75
(lp1846
g68
(g84
g70
NtRp1847
(dp1848
g73
(dp1849
sg82
g1843
sg75
(lp1850
g68
(g89
g70
NtRp1851
(dp1852
g73
(dp1853
g93
g94
ssg82
g1847
sg75
(lp1854
g684
asbag68
(g89
g70
NtRp1855
(dp1856
g73
(dp1857
g100
g101
ssg82
g1847
sg75
(lp1858
S':'
asbag68
(g89
g70
NtRp1859
(dp1860
g73
(dp1861
sg82
g1847
sg75
(lp1862
g68
(g69
g70
NtRp1863
(dp1864
g73
(dp1865
g81
I4
ssg82
g1859
sg75
(lp1866
S"set(['/home/diego/web2py/applications/irecycle/', '/home/diego/web2py/applications/admin/'])"
p1867
asbasbasbag68
(g84
g70
NtRp1868
(dp1869
g73
(dp1870
sg82
g1843
sg75
(lp1871
g68
(g89
g70
NtRp1872
(dp1873
g73
(dp1874
g93
g94
ssg82
g1868
sg75
(lp1875
g706
asbag68
(g89
g70
NtRp1876
(dp1877
g73
(dp1878
g100
g101
ssg82
g1868
sg75
(lp1879
S':'
asbag68
(g89
g70
NtRp1880
(dp1881
g73
(dp1882
sg82
g1868
sg75
(lp1883
g68
(g69
g70
NtRp1884
(dp1885
g73
(dp1886
g81
I4
ssg82
g1880
sg75
(lp1887
g719
asbasbasbag68
(g84
g70
NtRp1888
(dp1889
g73
(dp1890
sg82
g1843
sg75
(lp1891
g68
(g89
g70
NtRp1892
(dp1893
g73
(dp1894
g93
g94
ssg82
g1888
sg75
(lp1895
g728
asbag68
(g89
g70
NtRp1896
(dp1897
g73
(dp1898
g100
g101
ssg82
g1888
sg75
(lp1899
S':'
asbag68
(g89
g70
NtRp1900
(dp1901
g73
(dp1902
sg82
g1888
sg75
(lp1903
g68
(g69
g70
NtRp1904
(dp1905
g73
(dp1906
g81
I4
ssg82
g1900
sg75
(lp1907
g68
(g77
g70
NtRp1908
(dp1909
g73
(dp1910
g81
I3
ssg82
Nsg75
(lp1911
sbasbasbasbag68
(g84
g70
NtRp1912
(dp1913
g73
(dp1914
sg82
g1843
sg75
(lp1915
g68
(g89
g70
NtRp1916
(dp1917
g73
(dp1918
g93
g94
ssg82
g1912
sg75
(lp1919
g753
asbag68
(g89
g70
NtRp1920
(dp1921
g73
(dp1922
g100
g101
ssg82
g1912
sg75
(lp1923
S':'
asbag68
(g89
g70
NtRp1924
(dp1925
g73
(dp1926
sg82
g1912
sg75
(lp1927
g68
(g69
g70
NtRp1928
(dp1929
g73
(dp1930
g81
I4
ssg82
g1924
sg75
(lp1931
S"<Values at 0x2991488: {'verbose': False, 'ip': '127.0.0.1', 'with_scheduler': False, 'ips': ['172.30.6.210'], 'shutdown_timeout': 5, 'taskbar': False, 'port': 8000, 'maxthreads': None, 'softcron': False, 'server_name': 'madagascar', 'bpython': False, 'nogui': False, 'pid_filename': 'httpserver.pid', 'extcron': False, 'runcron': False, 'run_system_tests': False, 'test': None, 'folder': '/home/diego/web2py', 'config': '', 'minthreads': None, 'winservice': '', 'shell': None, 'run': '', 'log_filename': 'httpserver.log', 'debuglevel': 30, 'args': [''], 'socket_timeout': 5, 'ssl_ca_certificate': None, 'scheduler': None, 'profiler_filename': None, 'ssl_private_key': '', 'scheduler_groups': None, 'password': '1234', 'request_queue_size': 5, 'ssl_certificate': '', 'cronjob': False, 'numthreads': None, 'quiet': False, 'interfaces': None, 'import_models': False, 'timeout': 10, 'plain': False, 'nobanner': False}>"
p1932
asbasbasbag68
(g84
g70
NtRp1933
(dp1934
g73
(dp1935
sg82
g1843
sg75
(lp1936
g68
(g89
g70
NtRp1937
(dp1938
g73
(dp1939
g93
g94
ssg82
g1933
sg75
(lp1940
g775
asbag68
(g89
g70
NtRp1941
(dp1942
g73
(dp1943
g100
g101
ssg82
g1933
sg75
(lp1944
S':'
asbag68
(g89
g70
NtRp1945
(dp1946
g73
(dp1947
sg82
g1933
sg75
(lp1948
g68
(g69
g70
NtRp1949
(dp1950
g73
(dp1951
g81
I4
ssg82
g1945
sg75
(lp1952
S'set([])'
p1953
asbasbasbag68
(g84
g70
NtRp1954
(dp1955
g73
(dp1956
sg82
g1843
sg75
(lp1957
g68
(g89
g70
NtRp1958
(dp1959
g73
(dp1960
g93
g94
ssg82
g1954
sg75
(lp1961
g797
asbag68
(g89
g70
NtRp1962
(dp1963
g73
(dp1964
g100
g101
ssg82
g1954
sg75
(lp1965
S':'
asbag68
(g89
g70
NtRp1966
(dp1967
g73
(dp1968
sg82
g1954
sg75
(lp1969
g68
(g69
g70
NtRp1970
(dp1971
g73
(dp1972
g81
I4
ssg82
g1966
sg75
(lp1973
g111
asbasbasbag68
(g84
g70
NtRp1974
(dp1975
g73
(dp1976
sg82
g1843
sg75
(lp1977
g68
(g89
g70
NtRp1978
(dp1979
g73
(dp1980
g93
g94
ssg82
g1974
sg75
(lp1981
g818
asbag68
(g89
g70
NtRp1982
(dp1983
g73
(dp1984
g100
g101
ssg82
g1974
sg75
(lp1985
S':'
asbag68
(g89
g70
NtRp1986
(dp1987
g73
(dp1988
sg82
g1974
sg75
(lp1989
g68
(g69
g70
NtRp1990
(dp1991
g73
(dp1992
g81
I4
ssg82
g1986
sg75
(lp1993
g831
asbasbasbag68
(g84
g70
NtRp1994
(dp1995
g73
(dp1996
sg82
g1843
sg75
(lp1997
g68
(g89
g70
NtRp1998
(dp1999
g73
(dp2000
g93
g94
ssg82
g1994
sg75
(lp2001
g1060
asbag68
(g89
g70
NtRp2002
(dp2003
g73
(dp2004
g100
g101
ssg82
g1994
sg75
(lp2005
S':'
asbag68
(g89
g70
NtRp2006
(dp2007
g73
(dp2008
sg82
g1994
sg75
(lp2009
g68
(g69
g70
NtRp2010
(dp2011
g73
(dp2012
g81
I4
ssg82
g2006
sg75
(lp2013
g111
asbasbasbag68
(g84
g70
NtRp2014
(dp2015
g73
(dp2016
sg82
g1843
sg75
(lp2017
g68
(g89
g70
NtRp2018
(dp2019
g73
(dp2020
g93
g94
ssg82
g2014
sg75
(lp2021
g1081
asbag68
(g89
g70
NtRp2022
(dp2023
g73
(dp2024
g100
g101
ssg82
g2014
sg75
(lp2025
S':'
asbag68
(g89
g70
NtRp2026
(dp2027
g73
(dp2028
sg82
g2014
sg75
(lp2029
g68
(g69
g70
NtRp2030
(dp2031
g73
(dp2032
g81
I4
ssg82
g2026
sg75
(lp2033
g111
asbasbasbag68
(g84
g70
NtRp2034
(dp2035
g73
(dp2036
sg82
g1843
sg75
(lp2037
g68
(g89
g70
NtRp2038
(dp2039
g73
(dp2040
g93
g94
ssg82
g2034
sg75
(lp2041
g1102
asbag68
(g89
g70
NtRp2042
(dp2043
g73
(dp2044
g100
g101
ssg82
g2034
sg75
(lp2045
S':'
asbag68
(g89
g70
NtRp2046
(dp2047
g73
(dp2048
sg82
g2034
sg75
(lp2049
g68
(g69
g70
NtRp2050
(dp2051
g73
(dp2052
g81
I4
ssg82
g2046
sg75
(lp2053
g68
(g77
g70
NtRp2054
(dp2055
g73
(dp2056
g81
I3
ssg82
Nsg75
(lp2057
g68
(g84
g70
NtRp2058
(dp2059
g73
(dp2060
sg82
g2054
sg75
(lp2061
g68
(g89
g70
NtRp2062
(dp2063
g73
(dp2064
sg82
g2058
sg75
(lp2065
g68
(g69
g70
NtRp2066
(dp2067
g73
(dp2068
g81
I3
ssg82
g2062
sg75
(lp2069
g1131
asbasbasbag68
(g84
g70
NtRp2070
(dp2071
g73
(dp2072
sg82
g2054
sg75
(lp2073
g68
(g89
g70
NtRp2074
(dp2075
g73
(dp2076
sg82
g2070
sg75
(lp2077
g68
(g69
g70
NtRp2078
(dp2079
g73
(dp2080
g81
I3
ssg82
g2074
sg75
(lp2081
g1144
asbasbasbag68
(g84
g70
NtRp2082
(dp2083
g73
(dp2084
sg82
g2054
sg75
(lp2085
g68
(g89
g70
NtRp2086
(dp2087
g73
(dp2088
sg82
g2082
sg75
(lp2089
g68
(g69
g70
NtRp2090
(dp2091
g73
(dp2092
g81
I3
ssg82
g2086
sg75
(lp2093
g1157
asbasbasbag68
(g84
g70
NtRp2094
(dp2095
g73
(dp2096
sg82
g2054
sg75
(lp2097
g68
(g89
g70
NtRp2098
(dp2099
g73
(dp2100
sg82
g2094
sg75
(lp2101
g68
(g69
g70
NtRp2102
(dp2103
g73
(dp2104
g81
I3
ssg82
g2098
sg75
(lp2105
g1170
asbasbasbag68
(g84
g70
NtRp2106
(dp2107
g73
(dp2108
sg82
g2054
sg75
(lp2109
g68
(g89
g70
NtRp2110
(dp2111
g73
(dp2112
sg82
g2106
sg75
(lp2113
g68
(g69
g70
NtRp2114
(dp2115
g73
(dp2116
g81
I3
ssg82
g2110
sg75
(lp2117
g1183
asbasbasbasbasbasbasbag68
(g84
g70
NtRp2118
(dp2119
g73
(dp2120
sg82
g1843
sg75
(lp2121
g68
(g89
g70
NtRp2122
(dp2123
g73
(dp2124
g93
g94
ssg82
g2118
sg75
(lp2125
g1451
asbag68
(g89
g70
NtRp2126
(dp2127
g73
(dp2128
g100
g101
ssg82
g2118
sg75
(lp2129
S':'
asbag68
(g89
g70
NtRp2130
(dp2131
g73
(dp2132
sg82
g2118
sg75
(lp2133
g68
(g69
g70
NtRp2134
(dp2135
g73
(dp2136
g81
I4
ssg82
g2130
sg75
(lp2137
g68
(g77
g70
NtRp2138
(dp2139
g73
(dp2140
g81
I3
ssg82
Nsg75
(lp2141
g68
(g84
g70
NtRp2142
(dp2143
g73
(dp2144
sg82
g2138
sg75
(lp2145
g68
(g89
g70
NtRp2146
(dp2147
g73
(dp2148
sg82
g2142
sg75
(lp2149
g68
(g69
g70
NtRp2150
(dp2151
g73
(dp2152
g81
I3
ssg82
g2146
sg75
(lp2153
S'2'
asbasbasbag68
(g84
g70
NtRp2154
(dp2155
g73
(dp2156
sg82
g2138
sg75
(lp2157
g68
(g89
g70
NtRp2158
(dp2159
g73
(dp2160
sg82
g2154
sg75
(lp2161
g68
(g69
g70
NtRp2162
(dp2163
g73
(dp2164
g81
I3
ssg82
g2158
sg75
(lp2165
S'3'
asbasbasbag68
(g84
g70
NtRp2166
(dp2167
g73
(dp2168
sg82
g2138
sg75
(lp2169
g68
(g89
g70
NtRp2170
(dp2171
g73
(dp2172
sg82
g2166
sg75
(lp2173
g68
(g69
g70
NtRp2174
(dp2175
g73
(dp2176
g81
I3
ssg82
g2170
sg75
(lp2177
S'2'
asbasbasbag68
(g84
g70
NtRp2178
(dp2179
g73
(dp2180
sg82
g2138
sg75
(lp2181
g68
(g89
g70
NtRp2182
(dp2183
g73
(dp2184
sg82
g2178
sg75
(lp2185
g68
(g69
g70
NtRp2186
(dp2187
g73
(dp2188
g81
I3
ssg82
g2182
sg75
(lp2189
S'datetime.datetime(2012, 12, 17, 15, 3, 30)'
p2190
asbasbasbag68
(g84
g70
NtRp2191
(dp2192
g73
(dp2193
sg82
g2138
sg75
(lp2194
g68
(g89
g70
NtRp2195
(dp2196
g73
(dp2197
sg82
g2191
sg75
(lp2198
g68
(g69
g70
NtRp2199
(dp2200
g73
(dp2201
g81
I3
ssg82
g2195
sg75
(lp2202
g1529
asbasbasbasbasbasbasbasbasbasbasbag68
(g84
g70
NtRp2203
(dp2204
g73
(dp2205
sg82
g78
sg75
(lp2206
g68
(g89
g70
NtRp2207
(dp2208
g73
(dp2209
g93
g94
ssg82
g2203
sg75
(lp2210
S'is_https'
p2211
asbag68
(g89
g70
NtRp2212
(dp2213
g73
(dp2214
g100
g101
ssg82
g2203
sg75
(lp2215
S':'
asbag68
(g89
g70
NtRp2216
(dp2217
g73
(dp2218
sg82
g2203
sg75
(lp2219
g68
(g69
g70
NtRp2220
(dp2221
g73
(dp2222
g81
I5
ssg82
g2216
sg75
(lp2223
g111
asbasbasbag68
(g84
g70
NtRp2224
(dp2225
g73
(dp2226
sg82
g78
sg75
(lp2227
g68
(g89
g70
NtRp2228
(dp2229
g73
(dp2230
g93
g94
ssg82
g2224
sg75
(lp2231
S'is_local'
p2232
asbag68
(g89
g70
NtRp2233
(dp2234
g73
(dp2235
g100
g101
ssg82
g2224
sg75
(lp2236
S':'
asbag68
(g89
g70
NtRp2237
(dp2238
g73
(dp2239
sg82
g2224
sg75
(lp2240
g68
(g69
g70
NtRp2241
(dp2242
g73
(dp2243
g81
I5
ssg82
g2237
sg75
(lp2244
g1638
asbasbasbag68
(g84
g70
NtRp2245
(dp2246
g73
(dp2247
sg82
g78
sg75
(lp2248
g68
(g89
g70
NtRp2249
(dp2250
g73
(dp2251
g93
g94
ssg82
g2245
sg75
(lp2252
S'is_restful'
p2253
asbag68
(g89
g70
NtRp2254
(dp2255
g73
(dp2256
g100
g101
ssg82
g2245
sg75
(lp2257
S':'
asbag68
(g89
g70
NtRp2258
(dp2259
g73
(dp2260
sg82
g2245
sg75
(lp2261
g68
(g69
g70
NtRp2262
(dp2263
g73
(dp2264
g81
I5
ssg82
g2258
sg75
(lp2265
g111
asbasbasbag68
(g84
g70
NtRp2266
(dp2267
g73
(dp2268
sg82
g78
sg75
(lp2269
g68
(g89
g70
NtRp2270
(dp2271
g73
(dp2272
g93
g94
ssg82
g2266
sg75
(lp2273
S'now'
p2274
asbag68
(g89
g70
NtRp2275
(dp2276
g73
(dp2277
g100
g101
ssg82
g2266
sg75
(lp2278
S':'
asbag68
(g89
g70
NtRp2279
(dp2280
g73
(dp2281
sg82
g2266
sg75
(lp2282
g68
(g69
g70
NtRp2283
(dp2284
g73
(dp2285
g81
I5
ssg82
g2279
sg75
(lp2286
S'datetime.datetime(2013, 2, 2, 11, 11, 46, 229278)'
p2287
asbasbasbag68
(g84
g70
NtRp2288
(dp2289
g73
(dp2290
sg82
g78
sg75
(lp2291
g68
(g89
g70
NtRp2292
(dp2293
g73
(dp2294
g93
g94
ssg82
g2288
sg75
(lp2295
S'post_vars'
p2296
asbag68
(g89
g70
NtRp2297
(dp2298
g73
(dp2299
g100
g101
ssg82
g2288
sg75
(lp2300
S':'
asbag68
(g89
g70
NtRp2301
(dp2302
g73
(dp2303
sg82
g2288
sg75
(lp2304
g68
(g69
g70
NtRp2305
(dp2306
g73
(dp2307
g81
I5
ssg82
g2301
sg75
(lp2308
g68
(g77
g70
NtRp2309
(dp2310
g73
(dp2311
g81
I4
ssg82
Nsg75
(lp2312
sbasbasbasbag68
(g84
g70
NtRp2313
(dp2314
g73
(dp2315
sg82
g78
sg75
(lp2316
g68
(g89
g70
NtRp2317
(dp2318
g73
(dp2319
g93
g94
ssg82
g2313
sg75
(lp2320
S'raw_args'
p2321
asbag68
(g89
g70
NtRp2322
(dp2323
g73
(dp2324
g100
g101
ssg82
g2313
sg75
(lp2325
S':'
asbag68
(g89
g70
NtRp2326
(dp2327
g73
(dp2328
sg82
g2313
sg75
(lp2329
g68
(g69
g70
NtRp2330
(dp2331
g73
(dp2332
g81
I5
ssg82
g2326
sg75
(lp2333
S''
asbasbasbag68
(g84
g70
NtRp2334
(dp2335
g73
(dp2336
sg82
g78
sg75
(lp2337
g68
(g89
g70
NtRp2338
(dp2339
g73
(dp2340
g93
g94
ssg82
g2334
sg75
(lp2341
S'raw_extension'
p2342
asbag68
(g89
g70
NtRp2343
(dp2344
g73
(dp2345
g100
g101
ssg82
g2334
sg75
(lp2346
S':'
asbag68
(g89
g70
NtRp2347
(dp2348
g73
(dp2349
sg82
g2334
sg75
(lp2350
g68
(g69
g70
NtRp2351
(dp2352
g73
(dp2353
g81
I5
ssg82
g2347
sg75
(lp2354
S'None'
p2355
asbasbasbag68
(g84
g70
NtRp2356
(dp2357
g73
(dp2358
sg82
g78
sg75
(lp2359
g68
(g89
g70
NtRp2360
(dp2361
g73
(dp2362
g93
g94
ssg82
g2356
sg75
(lp2363
S'url'
p2364
asbag68
(g89
g70
NtRp2365
(dp2366
g73
(dp2367
g100
g101
ssg82
g2356
sg75
(lp2368
S':'
asbag68
(g89
g70
NtRp2369
(dp2370
g73
(dp2371
sg82
g2356
sg75
(lp2372
g68
(g69
g70
NtRp2373
(dp2374
g73
(dp2375
g81
I5
ssg82
g2369
sg75
(lp2376
g1205
asbasbasbag68
(g84
g70
NtRp2377
(dp2378
g73
(dp2379
sg82
g78
sg75
(lp2380
g68
(g89
g70
NtRp2381
(dp2382
g73
(dp2383
g93
g94
ssg82
g2377
sg75
(lp2384
S'utcnow'
p2385
asbag68
(g89
g70
NtRp2386
(dp2387
g73
(dp2388
g100
g101
ssg82
g2377
sg75
(lp2389
S':'
asbag68
(g89
g70
NtRp2390
(dp2391
g73
(dp2392
sg82
g2377
sg75
(lp2393
g68
(g69
g70
NtRp2394
(dp2395
g73
(dp2396
g81
I5
ssg82
g2390
sg75
(lp2397
S'datetime.datetime(2013, 2, 2, 13, 11, 46, 229293)'
p2398
asbasbasbag68
(g84
g70
NtRp2399
(dp2400
g73
(dp2401
sg82
g78
sg75
(lp2402
g68
(g89
g70
NtRp2403
(dp2404
g73
(dp2405
g93
g94
ssg82
g2399
sg75
(lp2406
S'uuid'
p2407
asbag68
(g89
g70
NtRp2408
(dp2409
g73
(dp2410
g100
g101
ssg82
g2399
sg75
(lp2411
S':'
asbag68
(g89
g70
NtRp2412
(dp2413
g73
(dp2414
sg82
g2399
sg75
(lp2415
g68
(g69
g70
NtRp2416
(dp2417
g73
(dp2418
g81
I5
ssg82
g2412
sg75
(lp2419
S'irecycle/127.0.0.1.2013-02-02.11-11-46.d4562536-8008-471d-92b3-8594f1809c61'
p2420
asbasbasbag68
(g84
g70
NtRp2421
(dp2422
g73
(dp2423
sg82
g78
sg75
(lp2424
g68
(g89
g70
NtRp2425
(dp2426
g73
(dp2427
g93
g94
ssg82
g2421
sg75
(lp2428
S'vars'
p2429
asbag68
(g89
g70
NtRp2430
(dp2431
g73
(dp2432
g100
g101
ssg82
g2421
sg75
(lp2433
S':'
asbag68
(g89
g70
NtRp2434
(dp2435
g73
(dp2436
sg82
g2421
sg75
(lp2437
g68
(g69
g70
NtRp2438
(dp2439
g73
(dp2440
g81
I5
ssg82
g2434
sg75
(lp2441
g68
(g77
g70
NtRp2442
(dp2443
g73
(dp2444
g81
I4
ssg82
Nsg75
(lp2445
sbasbasbasbag68
(g84
g70
NtRp2446
(dp2447
g73
(dp2448
sg82
g78
sg75
(lp2449
g68
(g89
g70
NtRp2450
(dp2451
g73
(dp2452
g93
g94
ssg82
g2446
sg75
(lp2453
S'wsgi'
p2454
asbag68
(g89
g70
NtRp2455
(dp2456
g73
(dp2457
g100
g101
ssg82
g2446
sg75
(lp2458
S':'
asbag68
(g89
g70
NtRp2459
(dp2460
g73
(dp2461
sg82
g2446
sg75
(lp2462
g68
(g69
g70
NtRp2463
(dp2464
g73
(dp2465
g81
I5
ssg82
g2459
sg75
(lp2466
g68
(g77
g70
NtRp2467
(dp2468
g73
(dp2469
g81
I4
ssg82
Nsg75
(lp2470
g68
(g84
g70
NtRp2471
(dp2472
g73
(dp2473
sg82
g2467
sg75
(lp2474
g68
(g89
g70
NtRp2475
(dp2476
g73
(dp2477
g93
g94
ssg82
g2471
sg75
(lp2478
S'environ'
p2479
asbag68
(g89
g70
NtRp2480
(dp2481
g73
(dp2482
g100
g101
ssg82
g2471
sg75
(lp2483
S':'
asbag68
(g89
g70
NtRp2484
(dp2485
g73
(dp2486
sg82
g2471
sg75
(lp2487
g68
(g69
g70
NtRp2488
(dp2489
g73
(dp2490
g81
I4
ssg82
g2484
sg75
(lp2491
g68
(g77
g70
NtRp2492
(dp2493
g73
(dp2494
g81
I3
ssg82
Nsg75
(lp2495
g68
(g84
g70
NtRp2496
(dp2497
g73
(dp2498
sg82
g2492
sg75
(lp2499
g68
(g89
g70
NtRp2500
(dp2501
g73
(dp2502
g93
g94
ssg82
g2496
sg75
(lp2503
S'HTTP_ACCEPT'
p2504
asbag68
(g89
g70
NtRp2505
(dp2506
g73
(dp2507
g100
g101
ssg82
g2496
sg75
(lp2508
S':'
asbag68
(g89
g70
NtRp2509
(dp2510
g73
(dp2511
sg82
g2496
sg75
(lp2512
g68
(g69
g70
NtRp2513
(dp2514
g73
(dp2515
g81
I3
ssg82
g2509
sg75
(lp2516
g853
asbasbasbag68
(g84
g70
NtRp2517
(dp2518
g73
(dp2519
sg82
g2492
sg75
(lp2520
g68
(g89
g70
NtRp2521
(dp2522
g73
(dp2523
g93
g94
ssg82
g2517
sg75
(lp2524
S'HTTP_ACCEPT_CHARSET'
p2525
asbag68
(g89
g70
NtRp2526
(dp2527
g73
(dp2528
g100
g101
ssg82
g2517
sg75
(lp2529
S':'
asbag68
(g89
g70
NtRp2530
(dp2531
g73
(dp2532
sg82
g2517
sg75
(lp2533
g68
(g69
g70
NtRp2534
(dp2535
g73
(dp2536
g81
I3
ssg82
g2530
sg75
(lp2537
g875
asbasbasbag68
(g84
g70
NtRp2538
(dp2539
g73
(dp2540
sg82
g2492
sg75
(lp2541
g68
(g89
g70
NtRp2542
(dp2543
g73
(dp2544
g93
g94
ssg82
g2538
sg75
(lp2545
S'HTTP_ACCEPT_ENCODING'
p2546
asbag68
(g89
g70
NtRp2547
(dp2548
g73
(dp2549
g100
g101
ssg82
g2538
sg75
(lp2550
S':'
asbag68
(g89
g70
NtRp2551
(dp2552
g73
(dp2553
sg82
g2538
sg75
(lp2554
g68
(g69
g70
NtRp2555
(dp2556
g73
(dp2557
g81
I3
ssg82
g2551
sg75
(lp2558
g897
asbasbasbag68
(g84
g70
NtRp2559
(dp2560
g73
(dp2561
sg82
g2492
sg75
(lp2562
g68
(g89
g70
NtRp2563
(dp2564
g73
(dp2565
g93
g94
ssg82
g2559
sg75
(lp2566
S'HTTP_ACCEPT_LANGUAGE'
p2567
asbag68
(g89
g70
NtRp2568
(dp2569
g73
(dp2570
g100
g101
ssg82
g2559
sg75
(lp2571
S':'
asbag68
(g89
g70
NtRp2572
(dp2573
g73
(dp2574
sg82
g2559
sg75
(lp2575
g68
(g69
g70
NtRp2576
(dp2577
g73
(dp2578
g81
I3
ssg82
g2572
sg75
(lp2579
g919
asbasbasbag68
(g84
g70
NtRp2580
(dp2581
g73
(dp2582
sg82
g2492
sg75
(lp2583
g68
(g89
g70
NtRp2584
(dp2585
g73
(dp2586
g93
g94
ssg82
g2580
sg75
(lp2587
S'HTTP_CACHE_CONTROL'
p2588
asbag68
(g89
g70
NtRp2589
(dp2590
g73
(dp2591
g100
g101
ssg82
g2580
sg75
(lp2592
S':'
asbag68
(g89
g70
NtRp2593
(dp2594
g73
(dp2595
sg82
g2580
sg75
(lp2596
g68
(g69
g70
NtRp2597
(dp2598
g73
(dp2599
g81
I3
ssg82
g2593
sg75
(lp2600
g941
asbasbasbag68
(g84
g70
NtRp2601
(dp2602
g73
(dp2603
sg82
g2492
sg75
(lp2604
g68
(g89
g70
NtRp2605
(dp2606
g73
(dp2607
g93
g94
ssg82
g2601
sg75
(lp2608
S'HTTP_CONNECTION'
p2609
asbag68
(g89
g70
NtRp2610
(dp2611
g73
(dp2612
g100
g101
ssg82
g2601
sg75
(lp2613
S':'
asbag68
(g89
g70
NtRp2614
(dp2615
g73
(dp2616
sg82
g2601
sg75
(lp2617
g68
(g69
g70
NtRp2618
(dp2619
g73
(dp2620
g81
I3
ssg82
g2614
sg75
(lp2621
g963
asbasbasbag68
(g84
g70
NtRp2622
(dp2623
g73
(dp2624
sg82
g2492
sg75
(lp2625
g68
(g89
g70
NtRp2626
(dp2627
g73
(dp2628
g93
g94
ssg82
g2622
sg75
(lp2629
S'HTTP_COOKIE'
p2630
asbag68
(g89
g70
NtRp2631
(dp2632
g73
(dp2633
g100
g101
ssg82
g2622
sg75
(lp2634
S':'
asbag68
(g89
g70
NtRp2635
(dp2636
g73
(dp2637
sg82
g2622
sg75
(lp2638
g68
(g69
g70
NtRp2639
(dp2640
g73
(dp2641
g81
I3
ssg82
g2635
sg75
(lp2642
g985
asbasbasbag68
(g84
g70
NtRp2643
(dp2644
g73
(dp2645
sg82
g2492
sg75
(lp2646
g68
(g89
g70
NtRp2647
(dp2648
g73
(dp2649
g93
g94
ssg82
g2643
sg75
(lp2650
S'HTTP_HOST'
p2651
asbag68
(g89
g70
NtRp2652
(dp2653
g73
(dp2654
g100
g101
ssg82
g2643
sg75
(lp2655
S':'
asbag68
(g89
g70
NtRp2656
(dp2657
g73
(dp2658
sg82
g2643
sg75
(lp2659
g68
(g69
g70
NtRp2660
(dp2661
g73
(dp2662
g81
I3
ssg82
g2656
sg75
(lp2663
g1007
asbasbasbag68
(g84
g70
NtRp2664
(dp2665
g73
(dp2666
sg82
g2492
sg75
(lp2667
g68
(g89
g70
NtRp2668
(dp2669
g73
(dp2670
g93
g94
ssg82
g2664
sg75
(lp2671
S'HTTP_REFERER'
p2672
asbag68
(g89
g70
NtRp2673
(dp2674
g73
(dp2675
g100
g101
ssg82
g2664
sg75
(lp2676
S':'
asbag68
(g89
g70
NtRp2677
(dp2678
g73
(dp2679
sg82
g2664
sg75
(lp2680
g68
(g69
g70
NtRp2681
(dp2682
g73
(dp2683
g81
I3
ssg82
g2677
sg75
(lp2684
g1029
asbasbasbag68
(g84
g70
NtRp2685
(dp2686
g73
(dp2687
sg82
g2492
sg75
(lp2688
g68
(g89
g70
NtRp2689
(dp2690
g73
(dp2691
g93
g94
ssg82
g2685
sg75
(lp2692
S'HTTP_USER_AGENT'
p2693
asbag68
(g89
g70
NtRp2694
(dp2695
g73
(dp2696
g100
g101
ssg82
g2685
sg75
(lp2697
S':'
asbag68
(g89
g70
NtRp2698
(dp2699
g73
(dp2700
sg82
g2685
sg75
(lp2701
g68
(g69
g70
NtRp2702
(dp2703
g73
(dp2704
g81
I3
ssg82
g2698
sg75
(lp2705
g1051
asbasbasbag68
(g84
g70
NtRp2706
(dp2707
g73
(dp2708
sg82
g2492
sg75
(lp2709
g68
(g89
g70
NtRp2710
(dp2711
g73
(dp2712
g93
g94
ssg82
g2706
sg75
(lp2713
S'PATH_INFO'
p2714
asbag68
(g89
g70
NtRp2715
(dp2716
g73
(dp2717
g100
g101
ssg82
g2706
sg75
(lp2718
S':'
asbag68
(g89
g70
NtRp2719
(dp2720
g73
(dp2721
sg82
g2706
sg75
(lp2722
g68
(g69
g70
NtRp2723
(dp2724
g73
(dp2725
g81
I3
ssg82
g2719
sg75
(lp2726
g1205
asbasbasbag68
(g84
g70
NtRp2727
(dp2728
g73
(dp2729
sg82
g2492
sg75
(lp2730
g68
(g89
g70
NtRp2731
(dp2732
g73
(dp2733
g93
g94
ssg82
g2727
sg75
(lp2734
S'QUERY_STRING'
p2735
asbag68
(g89
g70
NtRp2736
(dp2737
g73
(dp2738
g100
g101
ssg82
g2727
sg75
(lp2739
S':'
asbag68
(g89
g70
NtRp2740
(dp2741
g73
(dp2742
sg82
g2727
sg75
(lp2743
g68
(g69
g70
NtRp2744
(dp2745
g73
(dp2746
g81
I3
ssg82
g2740
sg75
(lp2747
S''
asbasbasbag68
(g84
g70
NtRp2748
(dp2749
g73
(dp2750
sg82
g2492
sg75
(lp2751
g68
(g89
g70
NtRp2752
(dp2753
g73
(dp2754
g93
g94
ssg82
g2748
sg75
(lp2755
S'REMOTE_ADDR'
p2756
asbag68
(g89
g70
NtRp2757
(dp2758
g73
(dp2759
g100
g101
ssg82
g2748
sg75
(lp2760
S':'
asbag68
(g89
g70
NtRp2761
(dp2762
g73
(dp2763
sg82
g2748
sg75
(lp2764
g68
(g69
g70
NtRp2765
(dp2766
g73
(dp2767
g81
I3
ssg82
g2761
sg75
(lp2768
g223
asbasbasbag68
(g84
g70
NtRp2769
(dp2770
g73
(dp2771
sg82
g2492
sg75
(lp2772
g68
(g89
g70
NtRp2773
(dp2774
g73
(dp2775
g93
g94
ssg82
g2769
sg75
(lp2776
S'REMOTE_PORT'
p2777
asbag68
(g89
g70
NtRp2778
(dp2779
g73
(dp2780
g100
g101
ssg82
g2769
sg75
(lp2781
S':'
asbag68
(g89
g70
NtRp2782
(dp2783
g73
(dp2784
sg82
g2769
sg75
(lp2785
g68
(g69
g70
NtRp2786
(dp2787
g73
(dp2788
g81
I3
ssg82
g2782
sg75
(lp2789
g1269
asbasbasbag68
(g84
g70
NtRp2790
(dp2791
g73
(dp2792
sg82
g2492
sg75
(lp2793
g68
(g89
g70
NtRp2794
(dp2795
g73
(dp2796
g93
g94
ssg82
g2790
sg75
(lp2797
S'REQUEST_METHOD'
p2798
asbag68
(g89
g70
NtRp2799
(dp2800
g73
(dp2801
g100
g101
ssg82
g2790
sg75
(lp2802
S':'
asbag68
(g89
g70
NtRp2803
(dp2804
g73
(dp2805
sg82
g2790
sg75
(lp2806
g68
(g69
g70
NtRp2807
(dp2808
g73
(dp2809
g81
I3
ssg82
g2803
sg75
(lp2810
g1291
asbasbasbag68
(g84
g70
NtRp2811
(dp2812
g73
(dp2813
sg82
g2492
sg75
(lp2814
g68
(g89
g70
NtRp2815
(dp2816
g73
(dp2817
g93
g94
ssg82
g2811
sg75
(lp2818
S'REQUEST_URI'
p2819
asbag68
(g89
g70
NtRp2820
(dp2821
g73
(dp2822
g100
g101
ssg82
g2811
sg75
(lp2823
S':'
asbag68
(g89
g70
NtRp2824
(dp2825
g73
(dp2826
sg82
g2811
sg75
(lp2827
g68
(g69
g70
NtRp2828
(dp2829
g73
(dp2830
g81
I3
ssg82
g2824
sg75
(lp2831
g1205
asbasbasbag68
(g84
g70
NtRp2832
(dp2833
g73
(dp2834
sg82
g2492
sg75
(lp2835
g68
(g89
g70
NtRp2836
(dp2837
g73
(dp2838
g93
g94
ssg82
g2832
sg75
(lp2839
S'SCRIPT_NAME'
p2840
asbag68
(g89
g70
NtRp2841
(dp2842
g73
(dp2843
g100
g101
ssg82
g2832
sg75
(lp2844
S':'
asbag68
(g89
g70
NtRp2845
(dp2846
g73
(dp2847
sg82
g2832
sg75
(lp2848
g68
(g69
g70
NtRp2849
(dp2850
g73
(dp2851
g81
I3
ssg82
g2845
sg75
(lp2852
S''
asbasbasbag68
(g84
g70
NtRp2853
(dp2854
g73
(dp2855
sg82
g2492
sg75
(lp2856
g68
(g89
g70
NtRp2857
(dp2858
g73
(dp2859
g93
g94
ssg82
g2853
sg75
(lp2860
S'SERVER_NAME'
p2861
asbag68
(g89
g70
NtRp2862
(dp2863
g73
(dp2864
g100
g101
ssg82
g2853
sg75
(lp2865
S':'
asbag68
(g89
g70
NtRp2866
(dp2867
g73
(dp2868
sg82
g2853
sg75
(lp2869
g68
(g69
g70
NtRp2870
(dp2871
g73
(dp2872
g81
I3
ssg82
g2866
sg75
(lp2873
g1355
asbasbasbag68
(g84
g70
NtRp2874
(dp2875
g73
(dp2876
sg82
g2492
sg75
(lp2877
g68
(g89
g70
NtRp2878
(dp2879
g73
(dp2880
g93
g94
ssg82
g2874
sg75
(lp2881
S'SERVER_PORT'
p2882
asbag68
(g89
g70
NtRp2883
(dp2884
g73
(dp2885
g100
g101
ssg82
g2874
sg75
(lp2886
S':'
asbag68
(g89
g70
NtRp2887
(dp2888
g73
(dp2889
sg82
g2874
sg75
(lp2890
g68
(g69
g70
NtRp2891
(dp2892
g73
(dp2893
g81
I3
ssg82
g2887
sg75
(lp2894
g1377
asbasbasbag68
(g84
g70
NtRp2895
(dp2896
g73
(dp2897
sg82
g2492
sg75
(lp2898
g68
(g89
g70
NtRp2899
(dp2900
g73
(dp2901
g93
g94
ssg82
g2895
sg75
(lp2902
S'SERVER_PROTOCOL'
p2903
asbag68
(g89
g70
NtRp2904
(dp2905
g73
(dp2906
g100
g101
ssg82
g2895
sg75
(lp2907
S':'
asbag68
(g89
g70
NtRp2908
(dp2909
g73
(dp2910
sg82
g2895
sg75
(lp2911
g68
(g69
g70
NtRp2912
(dp2913
g73
(dp2914
g81
I3
ssg82
g2908
sg75
(lp2915
g1399
asbasbasbag68
(g84
g70
NtRp2916
(dp2917
g73
(dp2918
sg82
g2492
sg75
(lp2919
g68
(g89
g70
NtRp2920
(dp2921
g73
(dp2922
g93
g94
ssg82
g2916
sg75
(lp2923
S'SERVER_SOFTWARE'
p2924
asbag68
(g89
g70
NtRp2925
(dp2926
g73
(dp2927
g100
g101
ssg82
g2916
sg75
(lp2928
S':'
asbag68
(g89
g70
NtRp2929
(dp2930
g73
(dp2931
sg82
g2916
sg75
(lp2932
g68
(g69
g70
NtRp2933
(dp2934
g73
(dp2935
g81
I3
ssg82
g2929
sg75
(lp2936
g1421
asbasbasbag68
(g84
g70
NtRp2937
(dp2938
g73
(dp2939
sg82
g2492
sg75
(lp2940
g68
(g89
g70
NtRp2941
(dp2942
g73
(dp2943
g93
g94
ssg82
g2937
sg75
(lp2944
S'wsgi.errors'
p2945
asbag68
(g89
g70
NtRp2946
(dp2947
g73
(dp2948
g100
g101
ssg82
g2937
sg75
(lp2949
S':'
asbag68
(g89
g70
NtRp2950
(dp2951
g73
(dp2952
sg82
g2937
sg75
(lp2953
g68
(g69
g70
NtRp2954
(dp2955
g73
(dp2956
g81
I3
ssg82
g2950
sg75
(lp2957
S"<open file '<stderr>', mode 'w' at 0x7f2c54870270>"
p2958
asbasbasbag68
(g84
g70
NtRp2959
(dp2960
g73
(dp2961
sg82
g2492
sg75
(lp2962
g68
(g89
g70
NtRp2963
(dp2964
g73
(dp2965
g93
g94
ssg82
g2959
sg75
(lp2966
S'wsgi.file_wrapper'
p2967
asbag68
(g89
g70
NtRp2968
(dp2969
g73
(dp2970
g100
g101
ssg82
g2959
sg75
(lp2971
S':'
asbag68
(g89
g70
NtRp2972
(dp2973
g73
(dp2974
sg82
g2959
sg75
(lp2975
g68
(g69
g70
NtRp2976
(dp2977
g73
(dp2978
g81
I3
ssg82
g2972
sg75
(lp2979
S'<class wsgiref.util.FileWrapper at 0x28f0738>'
p2980
asbasbasbag68
(g84
g70
NtRp2981
(dp2982
g73
(dp2983
sg82
g2492
sg75
(lp2984
g68
(g89
g70
NtRp2985
(dp2986
g73
(dp2987
g93
g94
ssg82
g2981
sg75
(lp2988
S'wsgi.input'
p2989
asbag68
(g89
g70
NtRp2990
(dp2991
g73
(dp2992
g100
g101
ssg82
g2981
sg75
(lp2993
S':'
asbag68
(g89
g70
NtRp2994
(dp2995
g73
(dp2996
sg82
g2981
sg75
(lp2997
g68
(g69
g70
NtRp2998
(dp2999
g73
(dp3000
g81
I3
ssg82
g2994
sg75
(lp3001
S'<cStringIO.StringO object at 0x2997228>'
p3002
asbasbasbag68
(g84
g70
NtRp3003
(dp3004
g73
(dp3005
sg82
g2492
sg75
(lp3006
g68
(g89
g70
NtRp3007
(dp3008
g73
(dp3009
g93
g94
ssg82
g3003
sg75
(lp3010
S'wsgi.multiprocess'
p3011
asbag68
(g89
g70
NtRp3012
(dp3013
g73
(dp3014
g100
g101
ssg82
g3003
sg75
(lp3015
S':'
asbag68
(g89
g70
NtRp3016
(dp3017
g73
(dp3018
sg82
g3003
sg75
(lp3019
g68
(g69
g70
NtRp3020
(dp3021
g73
(dp3022
g81
I3
ssg82
g3016
sg75
(lp3023
g111
asbasbasbag68
(g84
g70
NtRp3024
(dp3025
g73
(dp3026
sg82
g2492
sg75
(lp3027
g68
(g89
g70
NtRp3028
(dp3029
g73
(dp3030
g93
g94
ssg82
g3024
sg75
(lp3031
S'wsgi.multithread'
p3032
asbag68
(g89
g70
NtRp3033
(dp3034
g73
(dp3035
g100
g101
ssg82
g3024
sg75
(lp3036
S':'
asbag68
(g89
g70
NtRp3037
(dp3038
g73
(dp3039
sg82
g3024
sg75
(lp3040
g68
(g69
g70
NtRp3041
(dp3042
g73
(dp3043
g81
I3
ssg82
g3037
sg75
(lp3044
g1638
asbasbasbag68
(g84
g70
NtRp3045
(dp3046
g73
(dp3047
sg82
g2492
sg75
(lp3048
g68
(g89
g70
NtRp3049
(dp3050
g73
(dp3051
g93
g94
ssg82
g3045
sg75
(lp3052
S'wsgi.run_once'
p3053
asbag68
(g89
g70
NtRp3054
(dp3055
g73
(dp3056
g100
g101
ssg82
g3045
sg75
(lp3057
S':'
asbag68
(g89
g70
NtRp3058
(dp3059
g73
(dp3060
sg82
g3045
sg75
(lp3061
g68
(g69
g70
NtRp3062
(dp3063
g73
(dp3064
g81
I3
ssg82
g3058
sg75
(lp3065
g111
asbasbasbag68
(g84
g70
NtRp3066
(dp3067
g73
(dp3068
sg82
g2492
sg75
(lp3069
g68
(g89
g70
NtRp3070
(dp3071
g73
(dp3072
g93
g94
ssg82
g3066
sg75
(lp3073
S'wsgi.url_scheme'
p3074
asbag68
(g89
g70
NtRp3075
(dp3076
g73
(dp3077
g100
g101
ssg82
g3066
sg75
(lp3078
S':'
asbag68
(g89
g70
NtRp3079
(dp3080
g73
(dp3081
sg82
g3066
sg75
(lp3082
g68
(g69
g70
NtRp3083
(dp3084
g73
(dp3085
g81
I3
ssg82
g3079
sg75
(lp3086
g1681
asbasbasbag68
(g84
g70
NtRp3087
(dp3088
g73
(dp3089
sg82
g2492
sg75
(lp3090
g68
(g89
g70
NtRp3091
(dp3092
g73
(dp3093
g93
g94
ssg82
g3087
sg75
(lp3094
S'wsgi.version'
p3095
asbag68
(g89
g70
NtRp3096
(dp3097
g73
(dp3098
g100
g101
ssg82
g3087
sg75
(lp3099
S':'
asbag68
(g89
g70
NtRp3100
(dp3101
g73
(dp3102
sg82
g3087
sg75
(lp3103
g68
(g69
g70
NtRp3104
(dp3105
g73
(dp3106
g81
I3
ssg82
g3100
sg75
(lp3107
S'1'
asbasbasbasbasbasbasbasbasbasbasbasbasbsS'frames'
p3108
(lp3109
(dp3110
S'file'
p3111
S'/home/diego/web2py/gluon/restricted.py'
p3112
sS'dump'
p3113
(dp3114
S'code'
p3115
S"'def contact():\\n\\tu_cont = User(a0 or me)\\n\\tcont = ...t=cont)\\nresponse._vars=response._caller(contact)\\n'"
p3116
sS'layer'
p3117
S"'/home/diego/web2py/applications/irecycle/controllers/contact.py'"
p3118
sS'global compile2'
p3119
S'<function compile2>'
p3120
sS'ccode'
p3121
S'undefined'
p3122
ssS'lnum'
p3123
I211
sS'lines'
p3124
(dp3125
I206
S"    environment['__name__'] = '__restricted__'"
p3126
sI207
S'    try:'
p3127
sI208
S'        if isinstance(code, types.CodeType):'
p3128
sI209
S'            ccode = code'
p3129
sI210
S'        else:'
p3130
sI211
S'            ccode = compile2(code, layer)'
p3131
sI212
S'        exec ccode in environment'
p3132
sI213
S'    except HTTP:'
p3133
sI214
S'        raise'
p3134
sI215
S'    except RestrictedError:'
p3135
ssS'call'
p3136
S"(code='def contact():\\n\\tu_cont = User(a0 or me)\\n\\tcont = ...t=cont)\\nresponse._vars=response._caller(contact)\\n', environment={'A': <class 'gluon.html.A'>, 'Auth': <class 'gluon.tools.Auth'>, 'B': <class 'gluon.html.B'>, 'BEAUTIFY': <class 'gluon.html.BEAUTIFY'>, 'BODY': <class 'gluon.html.BODY'>, 'BR': <class 'gluon.html.BR'>, 'BUTTON': <class 'gluon.html.BUTTON'>, 'CAT': <class 'gluon.html.CAT'>, 'CENTER': <class 'gluon.html.CENTER'>, 'CLEANUP': <class 'gluon.validators.CLEANUP'>, ...}, layer='/home/diego/web2py/applications/irecycle/controllers/contact.py')"
p3137
sS'func'
p3138
S'restricted'
p3139
sa(dp3140
g3111
S'/home/diego/web2py/gluon/restricted.py'
p3141
sg3113
(dp3142
S'builtincompile'
p3143
S'<built-in function compile>'
p3144
sS'code'
p3145
S"'def contact():\\n\\tu_cont = User(a0 or me)\\n\\tcont = ...t=cont)\\nresponse._vars=response._caller(contact)\\n'"
p3146
sS'code.rstrip'
p3147
S'<built-in method rstrip of str object>'
p3148
sS').replace'
p3149
g3122
sS'layer'
p3150
S"'/home/diego/web2py/applications/irecycle/controllers/contact.py'"
p3151
ssg3123
I194
sg3124
(dp3152
I192
S"    The +'\\n' is necessary else compile fails when code ends in a comment."
p3153
sI193
S'    """'
p3154
sI194
S"    return compile(code.rstrip().replace('\\r\\n', '\\n') + '\\n', layer, 'exec')"
p3155
sI195
S''
sI196
S''
sI197
S"def restricted(code, environment=None, layer='Unknown'):"
p3156
sI198
S'    """'
p3157
sI189
S''
sI190
S'def compile2(code, layer):'
p3158
sI191
S'    """'
p3159
ssg3136
S"(code='def contact():\\n\\tu_cont = User(a0 or me)\\n\\tcont = ...t=cont)\\nresponse._vars=response._caller(contact)\\n', layer='/home/diego/web2py/applications/irecycle/controllers/contact.py')"
p3160
sg3138
S'compile2'
p3161
sasS'pyver'
p3162
S'Python 2.7.3: /usr/bin/python'
p3163
sS'session'
p3164
g68
(g69
g70
NtRp3165
(dp3166
g73
(dp3167
sg75
(lp3168
g68
(g77
g70
NtRp3169
(dp3170
g73
(dp3171
g81
I5
ssg82
Nsg75
(lp3172
g68
(g84
g70
NtRp3173
(dp3174
g73
(dp3175
sg82
g3169
sg75
(lp3176
g68
(g89
g70
NtRp3177
(dp3178
g73
(dp3179
g93
g94
ssg82
g3173
sg75
(lp3180
S'auth'
p3181
asbag68
(g89
g70
NtRp3182
(dp3183
g73
(dp3184
g100
g101
ssg82
g3173
sg75
(lp3185
S':'
asbag68
(g89
g70
NtRp3186
(dp3187
g73
(dp3188
sg82
g3173
sg75
(lp3189
g68
(g69
g70
NtRp3190
(dp3191
g73
(dp3192
g81
I5
ssg82
g3186
sg75
(lp3193
S'None'
p3194
asbasbasbag68
(g84
g70
NtRp3195
(dp3196
g73
(dp3197
sg82
g3169
sg75
(lp3198
g68
(g89
g70
NtRp3199
(dp3200
g73
(dp3201
g93
g94
ssg82
g3195
sg75
(lp3202
S'flash'
p3203
asbag68
(g89
g70
NtRp3204
(dp3205
g73
(dp3206
g100
g101
ssg82
g3195
sg75
(lp3207
S':'
asbag68
(g89
g70
NtRp3208
(dp3209
g73
(dp3210
sg82
g3195
sg75
(lp3211
g68
(g69
g70
NtRp3212
(dp3213
g73
(dp3214
g81
I5
ssg82
g3208
sg75
(lp3215
S'None'
p3216
asbasbasbag68
(g84
g70
NtRp3217
(dp3218
g73
(dp3219
sg82
g3169
sg75
(lp3220
g68
(g89
g70
NtRp3221
(dp3222
g73
(dp3223
g93
g94
ssg82
g3217
sg75
(lp3224
S'last_orderby'
p3225
asbag68
(g89
g70
NtRp3226
(dp3227
g73
(dp3228
g100
g101
ssg82
g3217
sg75
(lp3229
S':'
asbag68
(g89
g70
NtRp3230
(dp3231
g73
(dp3232
sg82
g3217
sg75
(lp3233
g68
(g69
g70
NtRp3234
(dp3235
g73
(dp3236
g81
I5
ssg82
g3230
sg75
(lp3237
S'None'
p3238
asbasbasbag68
(g84
g70
NtRp3239
(dp3240
g73
(dp3241
sg82
g3169
sg75
(lp3242
g68
(g89
g70
NtRp3243
(dp3244
g73
(dp3245
g93
g94
ssg82
g3239
sg75
(lp3246
S'last_query'
p3247
asbag68
(g89
g70
NtRp3248
(dp3249
g73
(dp3250
g100
g101
ssg82
g3239
sg75
(lp3251
S':'
asbag68
(g89
g70
NtRp3252
(dp3253
g73
(dp3254
sg82
g3239
sg75
(lp3255
g68
(g69
g70
NtRp3256
(dp3257
g73
(dp3258
g81
I5
ssg82
g3252
sg75
(lp3259
S'db.auth_user.id>0'
p3260
asbasbasbasbasbsS'etype'
p3261
S"<type 'exceptions.SyntaxError'>"
p3262
sS'date'
p3263
S'Sat Feb  2 11:11:46 2013'
p3264
sS'response'
p3265
g68
(g69
g70
NtRp3266
(dp3267
g73
(dp3268
sg75
(lp3269
g68
(g77
g70
NtRp3270
(dp3271
g73
(dp3272
g81
I5
ssg82
Nsg75
(lp3273
g68
(g84
g70
NtRp3274
(dp3275
g73
(dp3276
sg82
g3270
sg75
(lp3277
g68
(g89
g70
NtRp3278
(dp3279
g73
(dp3280
g93
g94
ssg82
g3274
sg75
(lp3281
g166
asbag68
(g89
g70
NtRp3282
(dp3283
g73
(dp3284
g100
g101
ssg82
g3274
sg75
(lp3285
S':'
asbag68
(g89
g70
NtRp3286
(dp3287
g73
(dp3288
sg82
g3274
sg75
(lp3289
g68
(g69
g70
NtRp3290
(dp3291
g73
(dp3292
g81
I5
ssg82
g3286
sg75
(lp3293
S'<cStringIO.StringO object at 0x7f2c3407e768>'
p3294
asbasbasbag68
(g84
g70
NtRp3295
(dp3296
g73
(dp3297
sg82
g3270
sg75
(lp3298
g68
(g89
g70
NtRp3299
(dp3300
g73
(dp3301
g93
g94
ssg82
g3295
sg75
(lp3302
g254
asbag68
(g89
g70
NtRp3303
(dp3304
g73
(dp3305
g100
g101
ssg82
g3295
sg75
(lp3306
S':'
asbag68
(g89
g70
NtRp3307
(dp3308
g73
(dp3309
sg82
g3295
sg75
(lp3310
g68
(g69
g70
NtRp3311
(dp3312
g73
(dp3313
g81
I5
ssg82
g3307
sg75
(lp3314
g68
(g77
g70
NtRp3315
(dp3316
g73
(dp3317
g81
I4
ssg82
Nsg75
(lp3318
g68
(g84
g70
NtRp3319
(dp3320
g73
(dp3321
sg82
g3315
sg75
(lp3322
g68
(g89
g70
NtRp3323
(dp3324
g73
(dp3325
g93
g94
ssg82
g3319
sg75
(lp3326
S'session_id_irecycle'
p3327
asbag68
(g89
g70
NtRp3328
(dp3329
g73
(dp3330
g100
g101
ssg82
g3319
sg75
(lp3331
S':'
asbag68
(g89
g70
NtRp3332
(dp3333
g73
(dp3334
sg82
g3319
sg75
(lp3335
g68
(g69
g70
NtRp3336
(dp3337
g73
(dp3338
g81
I4
ssg82
g3332
sg75
(lp3339
g486
ag68
(g77
g70
NtRp3340
(dp3341
g73
(dp3342
g81
I3
ssg82
Nsg75
(lp3343
g68
(g84
g70
NtRp3344
(dp3345
g73
(dp3346
sg82
g3340
sg75
(lp3347
g68
(g89
g70
NtRp3348
(dp3349
g73
(dp3350
g93
g94
ssg82
g3344
sg75
(lp3351
g305
asbag68
(g89
g70
NtRp3352
(dp3353
g73
(dp3354
g100
g101
ssg82
g3344
sg75
(lp3355
S':'
asbag68
(g89
g70
NtRp3356
(dp3357
g73
(dp3358
sg82
g3344
sg75
(lp3359
g68
(g69
g70
NtRp3360
(dp3361
g73
(dp3362
g81
I3
ssg82
g3356
sg75
(lp3363
S''
asbasbasbag68
(g84
g70
NtRp3364
(dp3365
g73
(dp3366
sg82
g3340
sg75
(lp3367
g68
(g89
g70
NtRp3368
(dp3369
g73
(dp3370
g93
g94
ssg82
g3364
sg75
(lp3371
g326
asbag68
(g89
g70
NtRp3372
(dp3373
g73
(dp3374
g100
g101
ssg82
g3364
sg75
(lp3375
S':'
asbag68
(g89
g70
NtRp3376
(dp3377
g73
(dp3378
sg82
g3364
sg75
(lp3379
g68
(g69
g70
NtRp3380
(dp3381
g73
(dp3382
g81
I3
ssg82
g3376
sg75
(lp3383
S''
asbasbasbag68
(g84
g70
NtRp3384
(dp3385
g73
(dp3386
sg82
g3340
sg75
(lp3387
g68
(g89
g70
NtRp3388
(dp3389
g73
(dp3390
g93
g94
ssg82
g3384
sg75
(lp3391
g347
asbag68
(g89
g70
NtRp3392
(dp3393
g73
(dp3394
g100
g101
ssg82
g3384
sg75
(lp3395
S':'
asbag68
(g89
g70
NtRp3396
(dp3397
g73
(dp3398
sg82
g3384
sg75
(lp3399
g68
(g69
g70
NtRp3400
(dp3401
g73
(dp3402
g81
I3
ssg82
g3396
sg75
(lp3403
S''
asbasbasbag68
(g84
g70
NtRp3404
(dp3405
g73
(dp3406
sg82
g3340
sg75
(lp3407
g68
(g89
g70
NtRp3408
(dp3409
g73
(dp3410
g93
g94
ssg82
g3404
sg75
(lp3411
g368
asbag68
(g89
g70
NtRp3412
(dp3413
g73
(dp3414
g100
g101
ssg82
g3404
sg75
(lp3415
S':'
asbag68
(g89
g70
NtRp3416
(dp3417
g73
(dp3418
sg82
g3404
sg75
(lp3419
g68
(g69
g70
NtRp3420
(dp3421
g73
(dp3422
g81
I3
ssg82
g3416
sg75
(lp3423
S''
asbasbasbag68
(g84
g70
NtRp3424
(dp3425
g73
(dp3426
sg82
g3340
sg75
(lp3427
g68
(g89
g70
NtRp3428
(dp3429
g73
(dp3430
g93
g94
ssg82
g3424
sg75
(lp3431
g389
asbag68
(g89
g70
NtRp3432
(dp3433
g73
(dp3434
g100
g101
ssg82
g3424
sg75
(lp3435
S':'
asbag68
(g89
g70
NtRp3436
(dp3437
g73
(dp3438
sg82
g3424
sg75
(lp3439
g68
(g69
g70
NtRp3440
(dp3441
g73
(dp3442
g81
I3
ssg82
g3436
sg75
(lp3443
S''
asbasbasbag68
(g84
g70
NtRp3444
(dp3445
g73
(dp3446
sg82
g3340
sg75
(lp3447
g68
(g89
g70
NtRp3448
(dp3449
g73
(dp3450
g93
g94
ssg82
g3444
sg75
(lp3451
g410
asbag68
(g89
g70
NtRp3452
(dp3453
g73
(dp3454
g100
g101
ssg82
g3444
sg75
(lp3455
S':'
asbag68
(g89
g70
NtRp3456
(dp3457
g73
(dp3458
sg82
g3444
sg75
(lp3459
g68
(g69
g70
NtRp3460
(dp3461
g73
(dp3462
g81
I3
ssg82
g3456
sg75
(lp3463
S'/'
asbasbasbag68
(g84
g70
NtRp3464
(dp3465
g73
(dp3466
sg82
g3340
sg75
(lp3467
g68
(g89
g70
NtRp3468
(dp3469
g73
(dp3470
g93
g94
ssg82
g3464
sg75
(lp3471
g431
asbag68
(g89
g70
NtRp3472
(dp3473
g73
(dp3474
g100
g101
ssg82
g3464
sg75
(lp3475
S':'
asbag68
(g89
g70
NtRp3476
(dp3477
g73
(dp3478
sg82
g3464
sg75
(lp3479
g68
(g69
g70
NtRp3480
(dp3481
g73
(dp3482
g81
I3
ssg82
g3476
sg75
(lp3483
S''
asbasbasbag68
(g84
g70
NtRp3484
(dp3485
g73
(dp3486
sg82
g3340
sg75
(lp3487
g68
(g89
g70
NtRp3488
(dp3489
g73
(dp3490
g93
g94
ssg82
g3484
sg75
(lp3491
g452
asbag68
(g89
g70
NtRp3492
(dp3493
g73
(dp3494
g100
g101
ssg82
g3484
sg75
(lp3495
S':'
asbag68
(g89
g70
NtRp3496
(dp3497
g73
(dp3498
sg82
g3484
sg75
(lp3499
g68
(g69
g70
NtRp3500
(dp3501
g73
(dp3502
g81
I3
ssg82
g3496
sg75
(lp3503
S''
asbasbasbasbasbasbasbasbasbasbasbag68
(g84
g70
NtRp3504
(dp3505
g73
(dp3506
sg82
g3270
sg75
(lp3507
g68
(g89
g70
NtRp3508
(dp3509
g73
(dp3510
g93
g94
ssg82
g3504
sg75
(lp3511
S'delimiters'
p3512
asbag68
(g89
g70
NtRp3513
(dp3514
g73
(dp3515
g100
g101
ssg82
g3504
sg75
(lp3516
S':'
asbag68
(g89
g70
NtRp3517
(dp3518
g73
(dp3519
sg82
g3504
sg75
(lp3520
g68
(g69
g70
NtRp3521
(dp3522
g73
(dp3523
g81
I5
ssg82
g3517
sg75
(lp3524
g68
(g77
g70
NtRp3525
(dp3526
g73
(dp3527
g81
I4
ssg82
Nsg75
(lp3528
g68
(g84
g70
NtRp3529
(dp3530
g73
(dp3531
sg82
g3525
sg75
(lp3532
g68
(g89
g70
NtRp3533
(dp3534
g73
(dp3535
sg82
g3529
sg75
(lp3536
g68
(g69
g70
NtRp3537
(dp3538
g73
(dp3539
g81
I4
ssg82
g3533
sg75
(lp3540
S'{{'
p3541
asbasbasbag68
(g84
g70
NtRp3542
(dp3543
g73
(dp3544
sg82
g3525
sg75
(lp3545
g68
(g89
g70
NtRp3546
(dp3547
g73
(dp3548
sg82
g3542
sg75
(lp3549
g68
(g69
g70
NtRp3550
(dp3551
g73
(dp3552
g81
I4
ssg82
g3546
sg75
(lp3553
S'}}'
p3554
asbasbasbasbasbasbasbag68
(g84
g70
NtRp3555
(dp3556
g73
(dp3557
sg82
g3270
sg75
(lp3558
g68
(g89
g70
NtRp3559
(dp3560
g73
(dp3561
g93
g94
ssg82
g3555
sg75
(lp3562
S'files'
p3563
asbag68
(g89
g70
NtRp3564
(dp3565
g73
(dp3566
g100
g101
ssg82
g3555
sg75
(lp3567
S':'
asbag68
(g89
g70
NtRp3568
(dp3569
g73
(dp3570
sg82
g3555
sg75
(lp3571
g68
(g69
g70
NtRp3572
(dp3573
g73
(dp3574
g81
I5
ssg82
g3568
sg75
(lp3575
g68
(g77
g70
NtRp3576
(dp3577
g73
(dp3578
g81
I4
ssg82
Nsg75
(lp3579
sbasbasbasbag68
(g84
g70
NtRp3580
(dp3581
g73
(dp3582
sg82
g3270
sg75
(lp3583
g68
(g89
g70
NtRp3584
(dp3585
g73
(dp3586
g93
g94
ssg82
g3580
sg75
(lp3587
S'flash'
p3588
asbag68
(g89
g70
NtRp3589
(dp3590
g73
(dp3591
g100
g101
ssg82
g3580
sg75
(lp3592
S':'
asbag68
(g89
g70
NtRp3593
(dp3594
g73
(dp3595
sg82
g3580
sg75
(lp3596
g68
(g69
g70
NtRp3597
(dp3598
g73
(dp3599
g81
I5
ssg82
g3593
sg75
(lp3600
S''
asbasbasbag68
(g84
g70
NtRp3601
(dp3602
g73
(dp3603
sg82
g3270
sg75
(lp3604
g68
(g89
g70
NtRp3605
(dp3606
g73
(dp3607
g93
g94
ssg82
g3601
sg75
(lp3608
S'generic_patterns'
p3609
asbag68
(g89
g70
NtRp3610
(dp3611
g73
(dp3612
g100
g101
ssg82
g3601
sg75
(lp3613
S':'
asbag68
(g89
g70
NtRp3614
(dp3615
g73
(dp3616
sg82
g3601
sg75
(lp3617
g68
(g69
g70
NtRp3618
(dp3619
g73
(dp3620
g81
I5
ssg82
g3614
sg75
(lp3621
g68
(g77
g70
NtRp3622
(dp3623
g73
(dp3624
g81
I4
ssg82
Nsg75
(lp3625
g68
(g84
g70
NtRp3626
(dp3627
g73
(dp3628
sg82
g3622
sg75
(lp3629
g68
(g89
g70
NtRp3630
(dp3631
g73
(dp3632
sg82
g3626
sg75
(lp3633
g68
(g69
g70
NtRp3634
(dp3635
g73
(dp3636
g81
I4
ssg82
g3630
sg75
(lp3637
S'*'
asbasbasbasbasbasbasbag68
(g84
g70
NtRp3638
(dp3639
g73
(dp3640
sg82
g3270
sg75
(lp3641
g68
(g89
g70
NtRp3642
(dp3643
g73
(dp3644
g93
g94
ssg82
g3638
sg75
(lp3645
S'headers'
p3646
asbag68
(g89
g70
NtRp3647
(dp3648
g73
(dp3649
g100
g101
ssg82
g3638
sg75
(lp3650
S':'
asbag68
(g89
g70
NtRp3651
(dp3652
g73
(dp3653
sg82
g3638
sg75
(lp3654
g68
(g69
g70
NtRp3655
(dp3656
g73
(dp3657
g81
I5
ssg82
g3651
sg75
(lp3658
g68
(g77
g70
NtRp3659
(dp3660
g73
(dp3661
g81
I4
ssg82
Nsg75
(lp3662
g68
(g84
g70
NtRp3663
(dp3664
g73
(dp3665
sg82
g3659
sg75
(lp3666
g68
(g89
g70
NtRp3667
(dp3668
g73
(dp3669
g93
g94
ssg82
g3663
sg75
(lp3670
S'X-Powered-By'
p3671
asbag68
(g89
g70
NtRp3672
(dp3673
g73
(dp3674
g100
g101
ssg82
g3663
sg75
(lp3675
S':'
asbag68
(g89
g70
NtRp3676
(dp3677
g73
(dp3678
sg82
g3663
sg75
(lp3679
g68
(g69
g70
NtRp3680
(dp3681
g73
(dp3682
g81
I4
ssg82
g3676
sg75
(lp3683
S'web2py'
p3684
asbasbasbasbasbasbasbag68
(g84
g70
NtRp3685
(dp3686
g73
(dp3687
sg82
g3270
sg75
(lp3688
g68
(g89
g70
NtRp3689
(dp3690
g73
(dp3691
g93
g94
ssg82
g3685
sg75
(lp3692
S'menu'
p3693
asbag68
(g89
g70
NtRp3694
(dp3695
g73
(dp3696
g100
g101
ssg82
g3685
sg75
(lp3697
S':'
asbag68
(g89
g70
NtRp3698
(dp3699
g73
(dp3700
sg82
g3685
sg75
(lp3701
g68
(g69
g70
NtRp3702
(dp3703
g73
(dp3704
g81
I5
ssg82
g3698
sg75
(lp3705
g68
(g77
g70
NtRp3706
(dp3707
g73
(dp3708
g81
I4
ssg82
Nsg75
(lp3709
g68
(g84
g70
NtRp3710
(dp3711
g73
(dp3712
sg82
g3706
sg75
(lp3713
g68
(g89
g70
NtRp3714
(dp3715
g73
(dp3716
sg82
g3710
sg75
(lp3717
g68
(g69
g70
NtRp3718
(dp3719
g73
(dp3720
g81
I4
ssg82
g3714
sg75
(lp3721
g68
(g77
g70
NtRp3722
(dp3723
g73
(dp3724
g81
I3
ssg82
Nsg75
(lp3725
g68
(g84
g70
NtRp3726
(dp3727
g73
(dp3728
sg82
g3722
sg75
(lp3729
g68
(g89
g70
NtRp3730
(dp3731
g73
(dp3732
sg82
g3726
sg75
(lp3733
g68
(g69
g70
NtRp3734
(dp3735
g73
(dp3736
g81
I3
ssg82
g3730
sg75
(lp3737
cgluon.languages
lazyT_unpickle
p3738
(S't\x04\x00\x00\x00Home'
tRp3739
asbasbasbag68
(g84
g70
NtRp3740
(dp3741
g73
(dp3742
sg82
g3722
sg75
(lp3743
g68
(g89
g70
NtRp3744
(dp3745
g73
(dp3746
sg82
g3740
sg75
(lp3747
g68
(g69
g70
NtRp3748
(dp3749
g73
(dp3750
g81
I3
ssg82
g3744
sg75
(lp3751
g111
asbasbasbag68
(g84
g70
NtRp3752
(dp3753
g73
(dp3754
sg82
g3722
sg75
(lp3755
g68
(g89
g70
NtRp3756
(dp3757
g73
(dp3758
sg82
g3752
sg75
(lp3759
g68
(g69
g70
NtRp3760
(dp3761
g73
(dp3762
g81
I3
ssg82
g3756
sg75
(lp3763
S'/irecycle/default/home'
p3764
asbasbasbasbasbasbasbag68
(g84
g70
NtRp3765
(dp3766
g73
(dp3767
sg82
g3706
sg75
(lp3768
g68
(g89
g70
NtRp3769
(dp3770
g73
(dp3771
sg82
g3765
sg75
(lp3772
g68
(g69
g70
NtRp3773
(dp3774
g73
(dp3775
g81
I4
ssg82
g3769
sg75
(lp3776
g68
(g77
g70
NtRp3777
(dp3778
g73
(dp3779
g81
I3
ssg82
Nsg75
(lp3780
g68
(g84
g70
NtRp3781
(dp3782
g73
(dp3783
sg82
g3777
sg75
(lp3784
g68
(g89
g70
NtRp3785
(dp3786
g73
(dp3787
sg82
g3781
sg75
(lp3788
g68
(g69
g70
NtRp3789
(dp3790
g73
(dp3791
g81
I3
ssg82
g3785
sg75
(lp3792
g3738
(S't\x04\x00\x00\x00Wall'
tRp3793
asbasbasbag68
(g84
g70
NtRp3794
(dp3795
g73
(dp3796
sg82
g3777
sg75
(lp3797
g68
(g89
g70
NtRp3798
(dp3799
g73
(dp3800
sg82
g3794
sg75
(lp3801
g68
(g69
g70
NtRp3802
(dp3803
g73
(dp3804
g81
I3
ssg82
g3798
sg75
(lp3805
g111
asbasbasbag68
(g84
g70
NtRp3806
(dp3807
g73
(dp3808
sg82
g3777
sg75
(lp3809
g68
(g89
g70
NtRp3810
(dp3811
g73
(dp3812
sg82
g3806
sg75
(lp3813
g68
(g69
g70
NtRp3814
(dp3815
g73
(dp3816
g81
I3
ssg82
g3810
sg75
(lp3817
S'/irecycle/default/wall'
p3818
asbasbasbasbasbasbasbag68
(g84
g70
NtRp3819
(dp3820
g73
(dp3821
sg82
g3706
sg75
(lp3822
g68
(g89
g70
NtRp3823
(dp3824
g73
(dp3825
sg82
g3819
sg75
(lp3826
g68
(g69
g70
NtRp3827
(dp3828
g73
(dp3829
g81
I4
ssg82
g3823
sg75
(lp3830
g68
(g77
g70
NtRp3831
(dp3832
g73
(dp3833
g81
I3
ssg82
Nsg75
(lp3834
g68
(g84
g70
NtRp3835
(dp3836
g73
(dp3837
sg82
g3831
sg75
(lp3838
g68
(g89
g70
NtRp3839
(dp3840
g73
(dp3841
sg82
g3835
sg75
(lp3842
g68
(g69
g70
NtRp3843
(dp3844
g73
(dp3845
g81
I3
ssg82
g3839
sg75
(lp3846
g3738
(S't\x07\x00\x00\x00Friends'
tRp3847
asbasbasbag68
(g84
g70
NtRp3848
(dp3849
g73
(dp3850
sg82
g3831
sg75
(lp3851
g68
(g89
g70
NtRp3852
(dp3853
g73
(dp3854
sg82
g3848
sg75
(lp3855
g68
(g69
g70
NtRp3856
(dp3857
g73
(dp3858
g81
I3
ssg82
g3852
sg75
(lp3859
g111
asbasbasbag68
(g84
g70
NtRp3860
(dp3861
g73
(dp3862
sg82
g3831
sg75
(lp3863
g68
(g89
g70
NtRp3864
(dp3865
g73
(dp3866
sg82
g3860
sg75
(lp3867
g68
(g69
g70
NtRp3868
(dp3869
g73
(dp3870
g81
I3
ssg82
g3864
sg75
(lp3871
S'/irecycle/default/friends'
p3872
asbasbasbasbasbasbasbag68
(g84
g70
NtRp3873
(dp3874
g73
(dp3875
sg82
g3706
sg75
(lp3876
g68
(g89
g70
NtRp3877
(dp3878
g73
(dp3879
sg82
g3873
sg75
(lp3880
g68
(g69
g70
NtRp3881
(dp3882
g73
(dp3883
g81
I4
ssg82
g3877
sg75
(lp3884
g68
(g77
g70
NtRp3885
(dp3886
g73
(dp3887
g81
I3
ssg82
Nsg75
(lp3888
g68
(g84
g70
NtRp3889
(dp3890
g73
(dp3891
sg82
g3885
sg75
(lp3892
g68
(g89
g70
NtRp3893
(dp3894
g73
(dp3895
sg82
g3889
sg75
(lp3896
g68
(g69
g70
NtRp3897
(dp3898
g73
(dp3899
g81
I3
ssg82
g3893
sg75
(lp3900
g3738
(S't\x06\x00\x00\x00Search'
tRp3901
asbasbasbag68
(g84
g70
NtRp3902
(dp3903
g73
(dp3904
sg82
g3885
sg75
(lp3905
g68
(g89
g70
NtRp3906
(dp3907
g73
(dp3908
sg82
g3902
sg75
(lp3909
g68
(g69
g70
NtRp3910
(dp3911
g73
(dp3912
g81
I3
ssg82
g3906
sg75
(lp3913
g111
asbasbasbag68
(g84
g70
NtRp3914
(dp3915
g73
(dp3916
sg82
g3885
sg75
(lp3917
g68
(g89
g70
NtRp3918
(dp3919
g73
(dp3920
sg82
g3914
sg75
(lp3921
g68
(g69
g70
NtRp3922
(dp3923
g73
(dp3924
g81
I3
ssg82
g3918
sg75
(lp3925
S'/irecycle/default/search'
p3926
asbasbasbasbasbasbasbasbasbasbasbag68
(g84
g70
NtRp3927
(dp3928
g73
(dp3929
sg82
g3270
sg75
(lp3930
g68
(g89
g70
NtRp3931
(dp3932
g73
(dp3933
g93
g94
ssg82
g3927
sg75
(lp3934
S'meta'
p3935
asbag68
(g89
g70
NtRp3936
(dp3937
g73
(dp3938
g100
g101
ssg82
g3927
sg75
(lp3939
S':'
asbag68
(g89
g70
NtRp3940
(dp3941
g73
(dp3942
sg82
g3927
sg75
(lp3943
g68
(g69
g70
NtRp3944
(dp3945
g73
(dp3946
g81
I5
ssg82
g3940
sg75
(lp3947
g68
(g77
g70
NtRp3948
(dp3949
g73
(dp3950
g81
I4
ssg82
Nsg75
(lp3951
g68
(g84
g70
NtRp3952
(dp3953
g73
(dp3954
sg82
g3948
sg75
(lp3955
g68
(g89
g70
NtRp3956
(dp3957
g73
(dp3958
g93
g94
ssg82
g3952
sg75
(lp3959
S'author'
p3960
asbag68
(g89
g70
NtRp3961
(dp3962
g73
(dp3963
g100
g101
ssg82
g3952
sg75
(lp3964
S':'
asbag68
(g89
g70
NtRp3965
(dp3966
g73
(dp3967
sg82
g3952
sg75
(lp3968
g68
(g69
g70
NtRp3969
(dp3970
g73
(dp3971
g81
I4
ssg82
g3965
sg75
(lp3972
S'Diego Miranda'
p3973
asbasbasbag68
(g84
g70
NtRp3974
(dp3975
g73
(dp3976
sg82
g3948
sg75
(lp3977
g68
(g89
g70
NtRp3978
(dp3979
g73
(dp3980
g93
g94
ssg82
g3974
sg75
(lp3981
S'copyright'
p3982
asbag68
(g89
g70
NtRp3983
(dp3984
g73
(dp3985
g100
g101
ssg82
g3974
sg75
(lp3986
S':'
asbag68
(g89
g70
NtRp3987
(dp3988
g73
(dp3989
sg82
g3974
sg75
(lp3990
g68
(g69
g70
NtRp3991
(dp3992
g73
(dp3993
g81
I4
ssg82
g3987
sg75
(lp3994
S'DSMTech Copyright 2012'
p3995
asbasbasbag68
(g84
g70
NtRp3996
(dp3997
g73
(dp3998
sg82
g3948
sg75
(lp3999
g68
(g89
g70
NtRp4000
(dp4001
g73
(dp4002
g93
g94
ssg82
g3996
sg75
(lp4003
S'description'
p4004
asbag68
(g89
g70
NtRp4005
(dp4006
g73
(dp4007
g100
g101
ssg82
g3996
sg75
(lp4008
S':'
asbag68
(g89
g70
NtRp4009
(dp4010
g73
(dp4011
sg82
g3996
sg75
(lp4012
g68
(g69
g70
NtRp4013
(dp4014
g73
(dp4015
g81
I4
ssg82
g4009
sg75
(lp4016
S'App for recycling trash'
p4017
asbasbasbag68
(g84
g70
NtRp4018
(dp4019
g73
(dp4020
sg82
g3948
sg75
(lp4021
g68
(g89
g70
NtRp4022
(dp4023
g73
(dp4024
g93
g94
ssg82
g4018
sg75
(lp4025
S'generator'
p4026
asbag68
(g89
g70
NtRp4027
(dp4028
g73
(dp4029
g100
g101
ssg82
g4018
sg75
(lp4030
S':'
asbag68
(g89
g70
NtRp4031
(dp4032
g73
(dp4033
sg82
g4018
sg75
(lp4034
g68
(g69
g70
NtRp4035
(dp4036
g73
(dp4037
g81
I4
ssg82
g4031
sg75
(lp4038
S'web2py web framework'
p4039
asbasbasbag68
(g84
g70
NtRp4040
(dp4041
g73
(dp4042
sg82
g3948
sg75
(lp4043
g68
(g89
g70
NtRp4044
(dp4045
g73
(dp4046
g93
g94
ssg82
g4040
sg75
(lp4047
S'keywords'
p4048
asbag68
(g89
g70
NtRp4049
(dp4050
g73
(dp4051
g100
g101
ssg82
g4040
sg75
(lp4052
S':'
asbag68
(g89
g70
NtRp4053
(dp4054
g73
(dp4055
sg82
g4040
sg75
(lp4056
g68
(g69
g70
NtRp4057
(dp4058
g73
(dp4059
g81
I4
ssg82
g4053
sg75
(lp4060
S'web2py, python framework'
p4061
asbasbasbasbasbasbasbag68
(g84
g70
NtRp4062
(dp4063
g73
(dp4064
sg82
g3270
sg75
(lp4065
g68
(g89
g70
NtRp4066
(dp4067
g73
(dp4068
g93
g94
ssg82
g4062
sg75
(lp4069
S'models_to_run'
p4070
asbag68
(g89
g70
NtRp4071
(dp4072
g73
(dp4073
g100
g101
ssg82
g4062
sg75
(lp4074
S':'
asbag68
(g89
g70
NtRp4075
(dp4076
g73
(dp4077
sg82
g4062
sg75
(lp4078
g68
(g69
g70
NtRp4079
(dp4080
g73
(dp4081
g81
I5
ssg82
g4075
sg75
(lp4082
g68
(g77
g70
NtRp4083
(dp4084
g73
(dp4085
g81
I4
ssg82
Nsg75
(lp4086
g68
(g84
g70
NtRp4087
(dp4088
g73
(dp4089
sg82
g4083
sg75
(lp4090
g68
(g89
g70
NtRp4091
(dp4092
g73
(dp4093
sg82
g4087
sg75
(lp4094
g68
(g69
g70
NtRp4095
(dp4096
g73
(dp4097
g81
I4
ssg82
g4091
sg75
(lp4098
S'^\\w+\\.py$'
p4099
asbasbasbag68
(g84
g70
NtRp4100
(dp4101
g73
(dp4102
sg82
g4083
sg75
(lp4103
g68
(g89
g70
NtRp4104
(dp4105
g73
(dp4106
sg82
g4100
sg75
(lp4107
g68
(g69
g70
NtRp4108
(dp4109
g73
(dp4110
g81
I4
ssg82
g4104
sg75
(lp4111
S'^contact/\\w+\\.py$'
p4112
asbasbasbag68
(g84
g70
NtRp4113
(dp4114
g73
(dp4115
sg82
g4083
sg75
(lp4116
g68
(g89
g70
NtRp4117
(dp4118
g73
(dp4119
sg82
g4113
sg75
(lp4120
g68
(g69
g70
NtRp4121
(dp4122
g73
(dp4123
g81
I4
ssg82
g4117
sg75
(lp4124
S'^contact/contact/\\w+\\.py$'
p4125
asbasbasbasbasbasbasbag68
(g84
g70
NtRp4126
(dp4127
g73
(dp4128
sg82
g3270
sg75
(lp4129
g68
(g89
g70
NtRp4130
(dp4131
g73
(dp4132
g93
g94
ssg82
g4126
sg75
(lp4133
S'postprocessing'
p4134
asbag68
(g89
g70
NtRp4135
(dp4136
g73
(dp4137
g100
g101
ssg82
g4126
sg75
(lp4138
S':'
asbag68
(g89
g70
NtRp4139
(dp4140
g73
(dp4141
sg82
g4126
sg75
(lp4142
g68
(g69
g70
NtRp4143
(dp4144
g73
(dp4145
g81
I5
ssg82
g4139
sg75
(lp4146
g68
(g77
g70
NtRp4147
(dp4148
g73
(dp4149
g81
I4
ssg82
Nsg75
(lp4150
sbasbasbasbag68
(g84
g70
NtRp4151
(dp4152
g73
(dp4153
sg82
g3270
sg75
(lp4154
g68
(g89
g70
NtRp4155
(dp4156
g73
(dp4157
g93
g94
ssg82
g4151
sg75
(lp4158
S'session_cookie_expires'
p4159
asbag68
(g89
g70
NtRp4160
(dp4161
g73
(dp4162
g100
g101
ssg82
g4151
sg75
(lp4163
S':'
asbag68
(g89
g70
NtRp4164
(dp4165
g73
(dp4166
sg82
g4151
sg75
(lp4167
g68
(g69
g70
NtRp4168
(dp4169
g73
(dp4170
g81
I5
ssg82
g4164
sg75
(lp4171
S'None'
p4172
asbasbasbag68
(g84
g70
NtRp4173
(dp4174
g73
(dp4175
sg82
g3270
sg75
(lp4176
g68
(g89
g70
NtRp4177
(dp4178
g73
(dp4179
g93
g94
ssg82
g4173
sg75
(lp4180
S'session_data_name'
p4181
asbag68
(g89
g70
NtRp4182
(dp4183
g73
(dp4184
g100
g101
ssg82
g4173
sg75
(lp4185
S':'
asbag68
(g89
g70
NtRp4186
(dp4187
g73
(dp4188
sg82
g4173
sg75
(lp4189
g68
(g69
g70
NtRp4190
(dp4191
g73
(dp4192
g81
I5
ssg82
g4186
sg75
(lp4193
S'session_data_irecycle'
p4194
asbasbasbag68
(g84
g70
NtRp4195
(dp4196
g73
(dp4197
sg82
g3270
sg75
(lp4198
g68
(g89
g70
NtRp4199
(dp4200
g73
(dp4201
g93
g94
ssg82
g4195
sg75
(lp4202
S'session_file'
p4203
asbag68
(g89
g70
NtRp4204
(dp4205
g73
(dp4206
g100
g101
ssg82
g4195
sg75
(lp4207
S':'
asbag68
(g89
g70
NtRp4208
(dp4209
g73
(dp4210
sg82
g4195
sg75
(lp4211
g68
(g69
g70
NtRp4212
(dp4213
g73
(dp4214
g81
I5
ssg82
g4208
sg75
(lp4215
S"<open file '/home/diego/web2py/applications/irecycle/sessions/127.0.0.1-10f67e0b-8b95-4045-9f3c-2e1e4dff1c83', mode 'rb+' at 0x7f2c20147030>"
p4216
asbasbasbag68
(g84
g70
NtRp4217
(dp4218
g73
(dp4219
sg82
g3270
sg75
(lp4220
g68
(g89
g70
NtRp4221
(dp4222
g73
(dp4223
g93
g94
ssg82
g4217
sg75
(lp4224
S'session_filename'
p4225
asbag68
(g89
g70
NtRp4226
(dp4227
g73
(dp4228
g100
g101
ssg82
g4217
sg75
(lp4229
S':'
asbag68
(g89
g70
NtRp4230
(dp4231
g73
(dp4232
sg82
g4217
sg75
(lp4233
g68
(g69
g70
NtRp4234
(dp4235
g73
(dp4236
g81
I5
ssg82
g4230
sg75
(lp4237
S'/home/diego/web2py/applications/irecycle/sessions/127.0.0.1-10f67e0b-8b95-4045-9f3c-2e1e4dff1c83'
p4238
asbasbasbag68
(g84
g70
NtRp4239
(dp4240
g73
(dp4241
sg82
g3270
sg75
(lp4242
g68
(g89
g70
NtRp4243
(dp4244
g73
(dp4245
g93
g94
ssg82
g4239
sg75
(lp4246
S'session_id'
p4247
asbag68
(g89
g70
NtRp4248
(dp4249
g73
(dp4250
g100
g101
ssg82
g4239
sg75
(lp4251
S':'
asbag68
(g89
g70
NtRp4252
(dp4253
g73
(dp4254
sg82
g4239
sg75
(lp4255
g68
(g69
g70
NtRp4256
(dp4257
g73
(dp4258
g81
I5
ssg82
g4252
sg75
(lp4259
g486
asbasbasbag68
(g84
g70
NtRp4260
(dp4261
g73
(dp4262
sg82
g3270
sg75
(lp4263
g68
(g89
g70
NtRp4264
(dp4265
g73
(dp4266
g93
g94
ssg82
g4260
sg75
(lp4267
S'session_id_name'
p4268
asbag68
(g89
g70
NtRp4269
(dp4270
g73
(dp4271
g100
g101
ssg82
g4260
sg75
(lp4272
S':'
asbag68
(g89
g70
NtRp4273
(dp4274
g73
(dp4275
sg82
g4260
sg75
(lp4276
g68
(g69
g70
NtRp4277
(dp4278
g73
(dp4279
g81
I5
ssg82
g4273
sg75
(lp4280
g3327
asbasbasbag68
(g84
g70
NtRp4281
(dp4282
g73
(dp4283
sg82
g3270
sg75
(lp4284
g68
(g89
g70
NtRp4285
(dp4286
g73
(dp4287
g93
g94
ssg82
g4281
sg75
(lp4288
S'session_locked'
p4289
asbag68
(g89
g70
NtRp4290
(dp4291
g73
(dp4292
g100
g101
ssg82
g4281
sg75
(lp4293
S':'
asbag68
(g89
g70
NtRp4294
(dp4295
g73
(dp4296
sg82
g4281
sg75
(lp4297
g68
(g69
g70
NtRp4298
(dp4299
g73
(dp4300
g81
I5
ssg82
g4294
sg75
(lp4301
g1638
asbasbasbag68
(g84
g70
NtRp4302
(dp4303
g73
(dp4304
sg82
g3270
sg75
(lp4305
g68
(g89
g70
NtRp4306
(dp4307
g73
(dp4308
g93
g94
ssg82
g4302
sg75
(lp4309
S'session_new'
p4310
asbag68
(g89
g70
NtRp4311
(dp4312
g73
(dp4313
g100
g101
ssg82
g4302
sg75
(lp4314
S':'
asbag68
(g89
g70
NtRp4315
(dp4316
g73
(dp4317
sg82
g4302
sg75
(lp4318
g68
(g69
g70
NtRp4319
(dp4320
g73
(dp4321
g81
I5
ssg82
g4315
sg75
(lp4322
g111
asbasbasbag68
(g84
g70
NtRp4323
(dp4324
g73
(dp4325
sg82
g3270
sg75
(lp4326
g68
(g89
g70
NtRp4327
(dp4328
g73
(dp4329
g93
g94
ssg82
g4323
sg75
(lp4330
S'session_storage_type'
p4331
asbag68
(g89
g70
NtRp4332
(dp4333
g73
(dp4334
g100
g101
ssg82
g4323
sg75
(lp4335
S':'
asbag68
(g89
g70
NtRp4336
(dp4337
g73
(dp4338
sg82
g4323
sg75
(lp4339
g68
(g69
g70
NtRp4340
(dp4341
g73
(dp4342
g81
I5
ssg82
g4336
sg75
(lp4343
g3111
asbasbasbag68
(g84
g70
NtRp4344
(dp4345
g73
(dp4346
sg82
g3270
sg75
(lp4347
g68
(g89
g70
NtRp4348
(dp4349
g73
(dp4350
g93
g94
ssg82
g4344
sg75
(lp4351
S'status'
p4352
asbag68
(g89
g70
NtRp4353
(dp4354
g73
(dp4355
g100
g101
ssg82
g4344
sg75
(lp4356
S':'
asbag68
(g89
g70
NtRp4357
(dp4358
g73
(dp4359
sg82
g4344
sg75
(lp4360
g68
(g69
g70
NtRp4361
(dp4362
g73
(dp4363
g81
I5
ssg82
g4357
sg75
(lp4364
S'200'
p4365
asbasbasbag68
(g84
g70
NtRp4366
(dp4367
g73
(dp4368
sg82
g3270
sg75
(lp4369
g68
(g89
g70
NtRp4370
(dp4371
g73
(dp4372
g93
g94
ssg82
g4366
sg75
(lp4373
S'subtitle'
p4374
asbag68
(g89
g70
NtRp4375
(dp4376
g73
(dp4377
g100
g101
ssg82
g4366
sg75
(lp4378
S':'
asbag68
(g89
g70
NtRp4379
(dp4380
g73
(dp4381
sg82
g4366
sg75
(lp4382
g68
(g69
g70
NtRp4383
(dp4384
g73
(dp4385
g81
I5
ssg82
g4379
sg75
(lp4386
g3738
(S't\t\x00\x00\x00EuReciclo'
tRp4387
asbasbasbag68
(g84
g70
NtRp4388
(dp4389
g73
(dp4390
sg82
g3270
sg75
(lp4391
g68
(g89
g70
NtRp4392
(dp4393
g73
(dp4394
g93
g94
ssg82
g4388
sg75
(lp4395
S'title'
p4396
asbag68
(g89
g70
NtRp4397
(dp4398
g73
(dp4399
g100
g101
ssg82
g4388
sg75
(lp4400
S':'
asbag68
(g89
g70
NtRp4401
(dp4402
g73
(dp4403
sg82
g4388
sg75
(lp4404
g68
(g69
g70
NtRp4405
(dp4406
g73
(dp4407
g81
I5
ssg82
g4401
sg75
(lp4408
S'EuReciclo'
p4409
asbasbasbag68
(g84
g70
NtRp4410
(dp4411
g73
(dp4412
sg82
g3270
sg75
(lp4413
g68
(g89
g70
NtRp4414
(dp4415
g73
(dp4416
g93
g94
ssg82
g4410
sg75
(lp4417
S'view'
p4418
asbag68
(g89
g70
NtRp4419
(dp4420
g73
(dp4421
g100
g101
ssg82
g4410
sg75
(lp4422
S':'
asbag68
(g89
g70
NtRp4423
(dp4424
g73
(dp4425
sg82
g4410
sg75
(lp4426
g68
(g69
g70
NtRp4427
(dp4428
g73
(dp4429
g81
I5
ssg82
g4423
sg75
(lp4430
S'contact/contact.html'
p4431
asbasbasbasbasbsS'locals'
p4432
(dp4433
g4
S"'/home/diego/web2py/applications/irecycle/controllers/contact.py'"
p4434
sg6
S"'def contact():\\n\\tu_cont = User(a0 or me)\\n\\tcont = ...t=cont)\\nresponse._vars=response._caller(contact)\\n'"
p4435
sssS'traceback'
p4436
S'Traceback (most recent call last):\n  File "/home/diego/web2py/gluon/restricted.py", line 211, in restricted\n    ccode = compile2(code, layer)\n  File "/home/diego/web2py/gluon/restricted.py", line 194, in compile2\n    return compile(code.rstrip().replace(\'\\r\\n\', \'\\n\') + \'\\n\', layer, \'exec\')\n  File "/home/diego/web2py/applications/irecycle/controllers/contact.py", line 9\n    input_text = cont.elements(_type="text")[]\n                                             ^\nSyntaxError: invalid syntax\n'
p4437
s.