(dp1
S'output'
p2
S"<class 'sqlite3.OperationalError'> table lixo already exists"
p3
sS'layer'
p4
S'/home/diego/web2py/applications/eureciclo_project/models/3_db.py'
p5
sS'code'
p6
S'\nReciclagem = db.define_table("lixo",\n\tField("papel"),\n\tField("metal"),\n\tField("plastico"),\n\tField("vidro"))\n\nUserAddress = db.define_table("user_address",\n\tField("user_id", "reference user_id"),\n\tField("CEP"),\n\tField("Pais"),\n\tField("region"),\n\tField("Estado"),\n\tField("Cidade"),\n\tField("address_type"),\n\tField("address"),\n\tField("home_number"),\n\tField("tel", requires=IS_MATCH(\'[\\d\\-\\(\\)] +\')),\n\tField("extra"),\n\tformat="%(region)s")\n\nPictures = db.define_table("pictures",\n\tField("pic", "reference auth_user"),\n\tField("thumb", "upload"),\n\tField("foto", "upload"))\n\nContacts = db.define_table("contacts",\n\tField("name", requires=IS_NOT_EMPTY()),\n\tField("posting", "text", required=IS_NOT_EMPTY()),\n\tformat=\'%(name)s\')\n\n#social db\nWall = db.define_table("post",\n\tField("body","text", requires=IS_NOT_EMPTY(),\n\t\tlabel=\'what happening?\'),\n\tField("posted_on","datetime", readable=False, writable=False),\n\tField("posted_by", "reference auth_user", readable=False,\n\t\twritable=False),\n\tformat=\'%(posted_by)s\')\n\nLink = db.define_table("link",\n\tField("fonte", "reference auth_user"),\n\tField("target", "reference auth_user"),\n\tField("accepted", "boolean", default=False))\n\n# and define some global variables that will make code more compact\nUser, Link, Post = db.auth_user, db.link, db.post\nme, a0, a1 = auth.user_id, request.args(0), request.args(1)\nmyfriends = db(Link.fonte==me)(Link.accepted==True)\nalphabetical = User.first_name | User.last_name\ndef name_of(user):\n\treturn \'%(first_name)s %(last_name)s\' % user\n\nclass NOT_STARTS_WITH(object):\n\tdef __init__(self, error_message="nao permitido iniciar com %s", letter="a"):\n\t\tself.error_message = error_message\n\t\tself.letter = letter\n\n\tdef __call__(self, value):\n\t\t# (value, None) # passou\n\t\t# (value, error_message) # n\xc3\xa3o passou\n\t\tif value.startswith(self.letter):\n\t\t\treturn (value, self.error_message % self.letter)\n\t\telse:\n\t\t\treturn (value, None)\n\n\n# Userr.name.requires = [IS_NOT_EMPTY(error_message="voce deve preencher"),\n#                           IS_NOT_IN_DB(db, \'Userr.name\')]\n# # Contacts.description.represent = lambda value, row: XML(value)\n# Userr.name.label = "email"\n# Userr.name.comment = "Your name"\n\n#auth user\ndb.auth_user.avatar.label = "Sua foto"\ndb.auth_user.CPF.label = "Seu CPF"\n\n# dbset = db(Userr.user_id == auth.user_id)\n# Userr.name.requires = IS_IN_DB(dbset, "user_address.id", "%(country)s - %(city)s")'
p7
sS'snapshot'
p8
(dp9
S'exception'
p10
(dp11
S'__module__'
p12
S"'sqlite3'"
p13
sS'__getslice__'
p14
S"<method-wrapper '__getslice__' of OperationalError object>"
p15
sS'__str__'
p16
S"<method-wrapper '__str__' of OperationalError object>"
p17
sS'__reduce__'
p18
S'<built-in method __reduce__ of OperationalError object>'
p19
sS'__dict__'
p20
S'{}'
p21
sS'__sizeof__'
p22
S'<built-in method __sizeof__ of OperationalError object>'
p23
sS'__weakref__'
p24
S'None'
p25
sS'__init__'
p26
S"<method-wrapper '__init__' of OperationalError object>"
p27
sS'__setattr__'
p28
S"<method-wrapper '__setattr__' of OperationalError object>"
p29
sS'__reduce_ex__'
p30
S'<built-in method __reduce_ex__ of OperationalError object>'
p31
sS'__new__'
p32
S'<built-in method __new__ of type object>'
p33
sS'__format__'
p34
S'<built-in method __format__ of OperationalError object>'
p35
sS'__class__'
p36
S"<class 'sqlite3.OperationalError'>"
p37
sS'__doc__'
p38
S'None'
p39
sS'__getitem__'
p40
S"<method-wrapper '__getitem__' of OperationalError object>"
p41
sS'__setstate__'
p42
S'<built-in method __setstate__ of OperationalError object>'
p43
sS'__getattribute__'
p44
S"<method-wrapper '__getattribute__' of OperationalError object>"
p45
sS'args'
p46
S"('table lixo already exists',)"
p47
sS'__subclasshook__'
p48
S'<built-in method __subclasshook__ of type object>'
p49
sS'__unicode__'
p50
S'<built-in method __unicode__ of OperationalError object>'
p51
sS'__delattr__'
p52
S"<method-wrapper '__delattr__' of OperationalError object>"
p53
sS'__repr__'
p54
S"<method-wrapper '__repr__' of OperationalError object>"
p55
sS'__hash__'
p56
S"<method-wrapper '__hash__' of OperationalError object>"
p57
ssS'evalue'
p58
S'table lixo already exists'
p59
sS'request'
p60
ccopy_reg
_reconstructor
p61
(cgluon.html
BEAUTIFY
p62
c__builtin__
object
p63
NtRp64
(dp65
S'attributes'
p66
(dp67
sS'components'
p68
(lp69
g61
(cgluon.html
TABLE
p70
g63
NtRp71
(dp72
g66
(dp73
S'level'
p74
I5
ssS'parent'
p75
Nsg68
(lp76
g61
(cgluon.html
TR
p77
g63
NtRp78
(dp79
g66
(dp80
sg75
g71
sg68
(lp81
g61
(cgluon.html
TD
p82
g63
NtRp83
(dp84
g66
(dp85
S'_style'
p86
S'font-weight:bold;vertical-align:top'
p87
ssg75
g78
sg68
(lp88
S'ajax'
p89
asbag61
(g82
g63
NtRp90
(dp91
g66
(dp92
S'_valign'
p93
S'top'
p94
ssg75
g78
sg68
(lp95
S':'
asbag61
(g82
g63
NtRp96
(dp97
g66
(dp98
sg75
g78
sg68
(lp99
g61
(g62
g63
NtRp100
(dp101
g66
(dp102
g74
I5
ssg75
g96
sg68
(lp103
S'False'
p104
asbasbasbag61
(g77
g63
NtRp105
(dp106
g66
(dp107
sg75
g71
sg68
(lp108
g61
(g82
g63
NtRp109
(dp110
g66
(dp111
g86
g87
ssg75
g105
sg68
(lp112
S'application'
p113
asbag61
(g82
g63
NtRp114
(dp115
g66
(dp116
g93
g94
ssg75
g105
sg68
(lp117
S':'
asbag61
(g82
g63
NtRp118
(dp119
g66
(dp120
sg75
g105
sg68
(lp121
g61
(g62
g63
NtRp122
(dp123
g66
(dp124
g74
I5
ssg75
g118
sg68
(lp125
S'eureciclo_project'
p126
asbasbasbag61
(g77
g63
NtRp127
(dp128
g66
(dp129
sg75
g71
sg68
(lp130
g61
(g82
g63
NtRp131
(dp132
g66
(dp133
g86
g87
ssg75
g127
sg68
(lp134
g46
asbag61
(g82
g63
NtRp135
(dp136
g66
(dp137
g93
g94
ssg75
g127
sg68
(lp138
S':'
asbag61
(g82
g63
NtRp139
(dp140
g66
(dp141
sg75
g127
sg68
(lp142
g61
(g62
g63
NtRp143
(dp144
g66
(dp145
g74
I5
ssg75
g139
sg68
(lp146
g61
(g70
g63
NtRp147
(dp148
g66
(dp149
g74
I4
ssg75
Nsg68
(lp150
sbasbasbasbag61
(g77
g63
NtRp151
(dp152
g66
(dp153
sg75
g71
sg68
(lp154
g61
(g82
g63
NtRp155
(dp156
g66
(dp157
g86
g87
ssg75
g151
sg68
(lp158
S'body'
p159
asbag61
(g82
g63
NtRp160
(dp161
g66
(dp162
g93
g94
ssg75
g151
sg68
(lp163
S':'
asbag61
(g82
g63
NtRp164
(dp165
g66
(dp166
sg75
g151
sg68
(lp167
g61
(g62
g63
NtRp168
(dp169
g66
(dp170
g74
I5
ssg75
g164
sg68
(lp171
S'<cStringIO.StringO object at 0x7fb7f8a3a848>'
p172
asbasbasbag61
(g77
g63
NtRp173
(dp174
g66
(dp175
sg75
g71
sg68
(lp176
g61
(g82
g63
NtRp177
(dp178
g66
(dp179
g86
g87
ssg75
g173
sg68
(lp180
S'cid'
p181
asbag61
(g82
g63
NtRp182
(dp183
g66
(dp184
g93
g94
ssg75
g173
sg68
(lp185
S':'
asbag61
(g82
g63
NtRp186
(dp187
g66
(dp188
sg75
g173
sg68
(lp189
g61
(g62
g63
NtRp190
(dp191
g66
(dp192
g74
I5
ssg75
g186
sg68
(lp193
S'None'
p194
asbasbasbag61
(g77
g63
NtRp195
(dp196
g66
(dp197
sg75
g71
sg68
(lp198
g61
(g82
g63
NtRp199
(dp200
g66
(dp201
g86
g87
ssg75
g195
sg68
(lp202
S'client'
p203
asbag61
(g82
g63
NtRp204
(dp205
g66
(dp206
g93
g94
ssg75
g195
sg68
(lp207
S':'
asbag61
(g82
g63
NtRp208
(dp209
g66
(dp210
sg75
g195
sg68
(lp211
g61
(g62
g63
NtRp212
(dp213
g66
(dp214
g74
I5
ssg75
g208
sg68
(lp215
S'127.0.0.1'
p216
asbasbasbag61
(g77
g63
NtRp217
(dp218
g66
(dp219
sg75
g71
sg68
(lp220
g61
(g82
g63
NtRp221
(dp222
g66
(dp223
g86
g87
ssg75
g217
sg68
(lp224
S'controller'
p225
asbag61
(g82
g63
NtRp226
(dp227
g66
(dp228
g93
g94
ssg75
g217
sg68
(lp229
S':'
asbag61
(g82
g63
NtRp230
(dp231
g66
(dp232
sg75
g217
sg68
(lp233
g61
(g62
g63
NtRp234
(dp235
g66
(dp236
g74
I5
ssg75
g230
sg68
(lp237
S'default'
p238
asbasbasbag61
(g77
g63
NtRp239
(dp240
g66
(dp241
sg75
g71
sg68
(lp242
g61
(g82
g63
NtRp243
(dp244
g66
(dp245
g86
g87
ssg75
g239
sg68
(lp246
S'cookies'
p247
asbag61
(g82
g63
NtRp248
(dp249
g66
(dp250
g93
g94
ssg75
g239
sg68
(lp251
S':'
asbag61
(g82
g63
NtRp252
(dp253
g66
(dp254
sg75
g239
sg68
(lp255
g61
(g62
g63
NtRp256
(dp257
g66
(dp258
g74
I5
ssg75
g252
sg68
(lp259
g61
(g70
g63
NtRp260
(dp261
g66
(dp262
g74
I4
ssg75
Nsg68
(lp263
g61
(g77
g63
NtRp264
(dp265
g66
(dp266
sg75
g260
sg68
(lp267
g61
(g82
g63
NtRp268
(dp269
g66
(dp270
g86
g87
ssg75
g264
sg68
(lp271
S'session_id_admin'
p272
asbag61
(g82
g63
NtRp273
(dp274
g66
(dp275
g93
g94
ssg75
g264
sg68
(lp276
S':'
asbag61
(g82
g63
NtRp277
(dp278
g66
(dp279
sg75
g264
sg68
(lp280
g61
(g62
g63
NtRp281
(dp282
g66
(dp283
g74
I4
ssg75
g277
sg68
(lp284
S'127.0.0.1-e9b49389-2418-4b45-bd80-845c8869c15c'
p285
ag61
(g70
g63
NtRp286
(dp287
g66
(dp288
g74
I3
ssg75
Nsg68
(lp289
g61
(g77
g63
NtRp290
(dp291
g66
(dp292
sg75
g286
sg68
(lp293
g61
(g82
g63
NtRp294
(dp295
g66
(dp296
g86
g87
ssg75
g290
sg68
(lp297
S'comment'
p298
asbag61
(g82
g63
NtRp299
(dp300
g66
(dp301
g93
g94
ssg75
g290
sg68
(lp302
S':'
asbag61
(g82
g63
NtRp303
(dp304
g66
(dp305
sg75
g290
sg68
(lp306
g61
(g62
g63
NtRp307
(dp308
g66
(dp309
g74
I3
ssg75
g303
sg68
(lp310
S''
asbasbasbag61
(g77
g63
NtRp311
(dp312
g66
(dp313
sg75
g286
sg68
(lp314
g61
(g82
g63
NtRp315
(dp316
g66
(dp317
g86
g87
ssg75
g311
sg68
(lp318
S'domain'
p319
asbag61
(g82
g63
NtRp320
(dp321
g66
(dp322
g93
g94
ssg75
g311
sg68
(lp323
S':'
asbag61
(g82
g63
NtRp324
(dp325
g66
(dp326
sg75
g311
sg68
(lp327
g61
(g62
g63
NtRp328
(dp329
g66
(dp330
g74
I3
ssg75
g324
sg68
(lp331
S''
asbasbasbag61
(g77
g63
NtRp332
(dp333
g66
(dp334
sg75
g286
sg68
(lp335
g61
(g82
g63
NtRp336
(dp337
g66
(dp338
g86
g87
ssg75
g332
sg68
(lp339
S'expires'
p340
asbag61
(g82
g63
NtRp341
(dp342
g66
(dp343
g93
g94
ssg75
g332
sg68
(lp344
S':'
asbag61
(g82
g63
NtRp345
(dp346
g66
(dp347
sg75
g332
sg68
(lp348
g61
(g62
g63
NtRp349
(dp350
g66
(dp351
g74
I3
ssg75
g345
sg68
(lp352
S''
asbasbasbag61
(g77
g63
NtRp353
(dp354
g66
(dp355
sg75
g286
sg68
(lp356
g61
(g82
g63
NtRp357
(dp358
g66
(dp359
g86
g87
ssg75
g353
sg68
(lp360
S'httponly'
p361
asbag61
(g82
g63
NtRp362
(dp363
g66
(dp364
g93
g94
ssg75
g353
sg68
(lp365
S':'
asbag61
(g82
g63
NtRp366
(dp367
g66
(dp368
sg75
g353
sg68
(lp369
g61
(g62
g63
NtRp370
(dp371
g66
(dp372
g74
I3
ssg75
g366
sg68
(lp373
S''
asbasbasbag61
(g77
g63
NtRp374
(dp375
g66
(dp376
sg75
g286
sg68
(lp377
g61
(g82
g63
NtRp378
(dp379
g66
(dp380
g86
g87
ssg75
g374
sg68
(lp381
S'max-age'
p382
asbag61
(g82
g63
NtRp383
(dp384
g66
(dp385
g93
g94
ssg75
g374
sg68
(lp386
S':'
asbag61
(g82
g63
NtRp387
(dp388
g66
(dp389
sg75
g374
sg68
(lp390
g61
(g62
g63
NtRp391
(dp392
g66
(dp393
g74
I3
ssg75
g387
sg68
(lp394
S''
asbasbasbag61
(g77
g63
NtRp395
(dp396
g66
(dp397
sg75
g286
sg68
(lp398
g61
(g82
g63
NtRp399
(dp400
g66
(dp401
g86
g87
ssg75
g395
sg68
(lp402
S'path'
p403
asbag61
(g82
g63
NtRp404
(dp405
g66
(dp406
g93
g94
ssg75
g395
sg68
(lp407
S':'
asbag61
(g82
g63
NtRp408
(dp409
g66
(dp410
sg75
g395
sg68
(lp411
g61
(g62
g63
NtRp412
(dp413
g66
(dp414
g74
I3
ssg75
g408
sg68
(lp415
S''
asbasbasbag61
(g77
g63
NtRp416
(dp417
g66
(dp418
sg75
g286
sg68
(lp419
g61
(g82
g63
NtRp420
(dp421
g66
(dp422
g86
g87
ssg75
g416
sg68
(lp423
S'secure'
p424
asbag61
(g82
g63
NtRp425
(dp426
g66
(dp427
g93
g94
ssg75
g416
sg68
(lp428
S':'
asbag61
(g82
g63
NtRp429
(dp430
g66
(dp431
sg75
g416
sg68
(lp432
g61
(g62
g63
NtRp433
(dp434
g66
(dp435
g74
I3
ssg75
g429
sg68
(lp436
S''
asbasbasbag61
(g77
g63
NtRp437
(dp438
g66
(dp439
sg75
g286
sg68
(lp440
g61
(g82
g63
NtRp441
(dp442
g66
(dp443
g86
g87
ssg75
g437
sg68
(lp444
S'version'
p445
asbag61
(g82
g63
NtRp446
(dp447
g66
(dp448
g93
g94
ssg75
g437
sg68
(lp449
S':'
asbag61
(g82
g63
NtRp450
(dp451
g66
(dp452
sg75
g437
sg68
(lp453
g61
(g62
g63
NtRp454
(dp455
g66
(dp456
g74
I3
ssg75
g450
sg68
(lp457
S''
asbasbasbasbasbasbasbag61
(g77
g63
NtRp458
(dp459
g66
(dp460
sg75
g260
sg68
(lp461
g61
(g82
g63
NtRp462
(dp463
g66
(dp464
g86
g87
ssg75
g458
sg68
(lp465
S'session_id_eureciclo_project'
p466
asbag61
(g82
g63
NtRp467
(dp468
g66
(dp469
g93
g94
ssg75
g458
sg68
(lp470
S':'
asbag61
(g82
g63
NtRp471
(dp472
g66
(dp473
sg75
g458
sg68
(lp474
g61
(g62
g63
NtRp475
(dp476
g66
(dp477
g74
I4
ssg75
g471
sg68
(lp478
S'127.0.0.1-20321099-aa16-4110-8d79-f471fe216c19'
p479
ag61
(g70
g63
NtRp480
(dp481
g66
(dp482
g74
I3
ssg75
Nsg68
(lp483
g61
(g77
g63
NtRp484
(dp485
g66
(dp486
sg75
g480
sg68
(lp487
g61
(g82
g63
NtRp488
(dp489
g66
(dp490
g86
g87
ssg75
g484
sg68
(lp491
g298
asbag61
(g82
g63
NtRp492
(dp493
g66
(dp494
g93
g94
ssg75
g484
sg68
(lp495
S':'
asbag61
(g82
g63
NtRp496
(dp497
g66
(dp498
sg75
g484
sg68
(lp499
g61
(g62
g63
NtRp500
(dp501
g66
(dp502
g74
I3
ssg75
g496
sg68
(lp503
S''
asbasbasbag61
(g77
g63
NtRp504
(dp505
g66
(dp506
sg75
g480
sg68
(lp507
g61
(g82
g63
NtRp508
(dp509
g66
(dp510
g86
g87
ssg75
g504
sg68
(lp511
g319
asbag61
(g82
g63
NtRp512
(dp513
g66
(dp514
g93
g94
ssg75
g504
sg68
(lp515
S':'
asbag61
(g82
g63
NtRp516
(dp517
g66
(dp518
sg75
g504
sg68
(lp519
g61
(g62
g63
NtRp520
(dp521
g66
(dp522
g74
I3
ssg75
g516
sg68
(lp523
S''
asbasbasbag61
(g77
g63
NtRp524
(dp525
g66
(dp526
sg75
g480
sg68
(lp527
g61
(g82
g63
NtRp528
(dp529
g66
(dp530
g86
g87
ssg75
g524
sg68
(lp531
g340
asbag61
(g82
g63
NtRp532
(dp533
g66
(dp534
g93
g94
ssg75
g524
sg68
(lp535
S':'
asbag61
(g82
g63
NtRp536
(dp537
g66
(dp538
sg75
g524
sg68
(lp539
g61
(g62
g63
NtRp540
(dp541
g66
(dp542
g74
I3
ssg75
g536
sg68
(lp543
S''
asbasbasbag61
(g77
g63
NtRp544
(dp545
g66
(dp546
sg75
g480
sg68
(lp547
g61
(g82
g63
NtRp548
(dp549
g66
(dp550
g86
g87
ssg75
g544
sg68
(lp551
g361
asbag61
(g82
g63
NtRp552
(dp553
g66
(dp554
g93
g94
ssg75
g544
sg68
(lp555
S':'
asbag61
(g82
g63
NtRp556
(dp557
g66
(dp558
sg75
g544
sg68
(lp559
g61
(g62
g63
NtRp560
(dp561
g66
(dp562
g74
I3
ssg75
g556
sg68
(lp563
S''
asbasbasbag61
(g77
g63
NtRp564
(dp565
g66
(dp566
sg75
g480
sg68
(lp567
g61
(g82
g63
NtRp568
(dp569
g66
(dp570
g86
g87
ssg75
g564
sg68
(lp571
g382
asbag61
(g82
g63
NtRp572
(dp573
g66
(dp574
g93
g94
ssg75
g564
sg68
(lp575
S':'
asbag61
(g82
g63
NtRp576
(dp577
g66
(dp578
sg75
g564
sg68
(lp579
g61
(g62
g63
NtRp580
(dp581
g66
(dp582
g74
I3
ssg75
g576
sg68
(lp583
S''
asbasbasbag61
(g77
g63
NtRp584
(dp585
g66
(dp586
sg75
g480
sg68
(lp587
g61
(g82
g63
NtRp588
(dp589
g66
(dp590
g86
g87
ssg75
g584
sg68
(lp591
g403
asbag61
(g82
g63
NtRp592
(dp593
g66
(dp594
g93
g94
ssg75
g584
sg68
(lp595
S':'
asbag61
(g82
g63
NtRp596
(dp597
g66
(dp598
sg75
g584
sg68
(lp599
g61
(g62
g63
NtRp600
(dp601
g66
(dp602
g74
I3
ssg75
g596
sg68
(lp603
S''
asbasbasbag61
(g77
g63
NtRp604
(dp605
g66
(dp606
sg75
g480
sg68
(lp607
g61
(g82
g63
NtRp608
(dp609
g66
(dp610
g86
g87
ssg75
g604
sg68
(lp611
g424
asbag61
(g82
g63
NtRp612
(dp613
g66
(dp614
g93
g94
ssg75
g604
sg68
(lp615
S':'
asbag61
(g82
g63
NtRp616
(dp617
g66
(dp618
sg75
g604
sg68
(lp619
g61
(g62
g63
NtRp620
(dp621
g66
(dp622
g74
I3
ssg75
g616
sg68
(lp623
S''
asbasbasbag61
(g77
g63
NtRp624
(dp625
g66
(dp626
sg75
g480
sg68
(lp627
g61
(g82
g63
NtRp628
(dp629
g66
(dp630
g86
g87
ssg75
g624
sg68
(lp631
g445
asbag61
(g82
g63
NtRp632
(dp633
g66
(dp634
g93
g94
ssg75
g624
sg68
(lp635
S':'
asbag61
(g82
g63
NtRp636
(dp637
g66
(dp638
sg75
g624
sg68
(lp639
g61
(g62
g63
NtRp640
(dp641
g66
(dp642
g74
I3
ssg75
g636
sg68
(lp643
S''
asbasbasbasbasbasbasbag61
(g77
g63
NtRp644
(dp645
g66
(dp646
sg75
g260
sg68
(lp647
g61
(g82
g63
NtRp648
(dp649
g66
(dp650
g86
g87
ssg75
g644
sg68
(lp651
S'session_id_irecycle'
p652
asbag61
(g82
g63
NtRp653
(dp654
g66
(dp655
g93
g94
ssg75
g644
sg68
(lp656
S':'
asbag61
(g82
g63
NtRp657
(dp658
g66
(dp659
sg75
g644
sg68
(lp660
g61
(g62
g63
NtRp661
(dp662
g66
(dp663
g74
I4
ssg75
g657
sg68
(lp664
S'127.0.0.1-10f67e0b-8b95-4045-9f3c-2e1e4dff1c83'
p665
ag61
(g70
g63
NtRp666
(dp667
g66
(dp668
g74
I3
ssg75
Nsg68
(lp669
g61
(g77
g63
NtRp670
(dp671
g66
(dp672
sg75
g666
sg68
(lp673
g61
(g82
g63
NtRp674
(dp675
g66
(dp676
g86
g87
ssg75
g670
sg68
(lp677
g298
asbag61
(g82
g63
NtRp678
(dp679
g66
(dp680
g93
g94
ssg75
g670
sg68
(lp681
S':'
asbag61
(g82
g63
NtRp682
(dp683
g66
(dp684
sg75
g670
sg68
(lp685
g61
(g62
g63
NtRp686
(dp687
g66
(dp688
g74
I3
ssg75
g682
sg68
(lp689
S''
asbasbasbag61
(g77
g63
NtRp690
(dp691
g66
(dp692
sg75
g666
sg68
(lp693
g61
(g82
g63
NtRp694
(dp695
g66
(dp696
g86
g87
ssg75
g690
sg68
(lp697
g319
asbag61
(g82
g63
NtRp698
(dp699
g66
(dp700
g93
g94
ssg75
g690
sg68
(lp701
S':'
asbag61
(g82
g63
NtRp702
(dp703
g66
(dp704
sg75
g690
sg68
(lp705
g61
(g62
g63
NtRp706
(dp707
g66
(dp708
g74
I3
ssg75
g702
sg68
(lp709
S''
asbasbasbag61
(g77
g63
NtRp710
(dp711
g66
(dp712
sg75
g666
sg68
(lp713
g61
(g82
g63
NtRp714
(dp715
g66
(dp716
g86
g87
ssg75
g710
sg68
(lp717
g340
asbag61
(g82
g63
NtRp718
(dp719
g66
(dp720
g93
g94
ssg75
g710
sg68
(lp721
S':'
asbag61
(g82
g63
NtRp722
(dp723
g66
(dp724
sg75
g710
sg68
(lp725
g61
(g62
g63
NtRp726
(dp727
g66
(dp728
g74
I3
ssg75
g722
sg68
(lp729
S''
asbasbasbag61
(g77
g63
NtRp730
(dp731
g66
(dp732
sg75
g666
sg68
(lp733
g61
(g82
g63
NtRp734
(dp735
g66
(dp736
g86
g87
ssg75
g730
sg68
(lp737
g361
asbag61
(g82
g63
NtRp738
(dp739
g66
(dp740
g93
g94
ssg75
g730
sg68
(lp741
S':'
asbag61
(g82
g63
NtRp742
(dp743
g66
(dp744
sg75
g730
sg68
(lp745
g61
(g62
g63
NtRp746
(dp747
g66
(dp748
g74
I3
ssg75
g742
sg68
(lp749
S''
asbasbasbag61
(g77
g63
NtRp750
(dp751
g66
(dp752
sg75
g666
sg68
(lp753
g61
(g82
g63
NtRp754
(dp755
g66
(dp756
g86
g87
ssg75
g750
sg68
(lp757
g382
asbag61
(g82
g63
NtRp758
(dp759
g66
(dp760
g93
g94
ssg75
g750
sg68
(lp761
S':'
asbag61
(g82
g63
NtRp762
(dp763
g66
(dp764
sg75
g750
sg68
(lp765
g61
(g62
g63
NtRp766
(dp767
g66
(dp768
g74
I3
ssg75
g762
sg68
(lp769
S''
asbasbasbag61
(g77
g63
NtRp770
(dp771
g66
(dp772
sg75
g666
sg68
(lp773
g61
(g82
g63
NtRp774
(dp775
g66
(dp776
g86
g87
ssg75
g770
sg68
(lp777
g403
asbag61
(g82
g63
NtRp778
(dp779
g66
(dp780
g93
g94
ssg75
g770
sg68
(lp781
S':'
asbag61
(g82
g63
NtRp782
(dp783
g66
(dp784
sg75
g770
sg68
(lp785
g61
(g62
g63
NtRp786
(dp787
g66
(dp788
g74
I3
ssg75
g782
sg68
(lp789
S''
asbasbasbag61
(g77
g63
NtRp790
(dp791
g66
(dp792
sg75
g666
sg68
(lp793
g61
(g82
g63
NtRp794
(dp795
g66
(dp796
g86
g87
ssg75
g790
sg68
(lp797
g424
asbag61
(g82
g63
NtRp798
(dp799
g66
(dp800
g93
g94
ssg75
g790
sg68
(lp801
S':'
asbag61
(g82
g63
NtRp802
(dp803
g66
(dp804
sg75
g790
sg68
(lp805
g61
(g62
g63
NtRp806
(dp807
g66
(dp808
g74
I3
ssg75
g802
sg68
(lp809
S''
asbasbasbag61
(g77
g63
NtRp810
(dp811
g66
(dp812
sg75
g666
sg68
(lp813
g61
(g82
g63
NtRp814
(dp815
g66
(dp816
g86
g87
ssg75
g810
sg68
(lp817
g445
asbag61
(g82
g63
NtRp818
(dp819
g66
(dp820
g93
g94
ssg75
g810
sg68
(lp821
S':'
asbag61
(g82
g63
NtRp822
(dp823
g66
(dp824
sg75
g810
sg68
(lp825
g61
(g62
g63
NtRp826
(dp827
g66
(dp828
g74
I3
ssg75
g822
sg68
(lp829
S''
asbasbasbasbasbasbasbasbasbasbasbag61
(g77
g63
NtRp830
(dp831
g66
(dp832
sg75
g71
sg68
(lp833
g61
(g82
g63
NtRp834
(dp835
g66
(dp836
g86
g87
ssg75
g830
sg68
(lp837
S'env'
p838
asbag61
(g82
g63
NtRp839
(dp840
g66
(dp841
g93
g94
ssg75
g830
sg68
(lp842
S':'
asbag61
(g82
g63
NtRp843
(dp844
g66
(dp845
sg75
g830
sg68
(lp846
g61
(g62
g63
NtRp847
(dp848
g66
(dp849
g74
I5
ssg75
g843
sg68
(lp850
g61
(g70
g63
NtRp851
(dp852
g66
(dp853
g74
I4
ssg75
Nsg68
(lp854
g61
(g77
g63
NtRp855
(dp856
g66
(dp857
sg75
g851
sg68
(lp858
g61
(g82
g63
NtRp859
(dp860
g66
(dp861
g86
g87
ssg75
g855
sg68
(lp862
S'app_folders'
p863
asbag61
(g82
g63
NtRp864
(dp865
g66
(dp866
g93
g94
ssg75
g855
sg68
(lp867
S':'
asbag61
(g82
g63
NtRp868
(dp869
g66
(dp870
sg75
g855
sg68
(lp871
g61
(g62
g63
NtRp872
(dp873
g66
(dp874
g74
I4
ssg75
g868
sg68
(lp875
S"set(['/home/diego/web2py/applications/irecycle/', '/home/diego/web2py/applications/admin/', '/home/diego/web2py/applications/eureciclo_project/'])"
p876
asbasbasbag61
(g77
g63
NtRp877
(dp878
g66
(dp879
sg75
g851
sg68
(lp880
g61
(g82
g63
NtRp881
(dp882
g66
(dp883
g86
g87
ssg75
g877
sg68
(lp884
S'applications_parent'
p885
asbag61
(g82
g63
NtRp886
(dp887
g66
(dp888
g93
g94
ssg75
g877
sg68
(lp889
S':'
asbag61
(g82
g63
NtRp890
(dp891
g66
(dp892
sg75
g877
sg68
(lp893
g61
(g62
g63
NtRp894
(dp895
g66
(dp896
g74
I4
ssg75
g890
sg68
(lp897
S'/home/diego/web2py'
p898
asbasbasbag61
(g77
g63
NtRp899
(dp900
g66
(dp901
sg75
g851
sg68
(lp902
g61
(g82
g63
NtRp903
(dp904
g66
(dp905
g86
g87
ssg75
g899
sg68
(lp906
S'cmd_args'
p907
asbag61
(g82
g63
NtRp908
(dp909
g66
(dp910
g93
g94
ssg75
g899
sg68
(lp911
S':'
asbag61
(g82
g63
NtRp912
(dp913
g66
(dp914
sg75
g899
sg68
(lp915
g61
(g62
g63
NtRp916
(dp917
g66
(dp918
g74
I4
ssg75
g912
sg68
(lp919
g61
(g70
g63
NtRp920
(dp921
g66
(dp922
g74
I3
ssg75
Nsg68
(lp923
sbasbasbasbag61
(g77
g63
NtRp924
(dp925
g66
(dp926
sg75
g851
sg68
(lp927
g61
(g82
g63
NtRp928
(dp929
g66
(dp930
g86
g87
ssg75
g924
sg68
(lp931
S'cmd_options'
p932
asbag61
(g82
g63
NtRp933
(dp934
g66
(dp935
g93
g94
ssg75
g924
sg68
(lp936
S':'
asbag61
(g82
g63
NtRp937
(dp938
g66
(dp939
sg75
g924
sg68
(lp940
g61
(g62
g63
NtRp941
(dp942
g66
(dp943
g74
I4
ssg75
g937
sg68
(lp944
S"<Values at 0x30ba488: {'verbose': False, 'ip': '127.0.0.1', 'with_scheduler': False, 'ips': ['172.30.6.210'], 'shutdown_timeout': 5, 'taskbar': False, 'port': 8000, 'maxthreads': None, 'softcron': False, 'server_name': 'madagascar', 'bpython': False, 'nogui': False, 'pid_filename': 'httpserver.pid', 'extcron': False, 'runcron': False, 'run_system_tests': False, 'test': None, 'folder': '/home/diego/web2py', 'config': '', 'minthreads': None, 'winservice': '', 'shell': None, 'run': '', 'log_filename': 'httpserver.log', 'debuglevel': 30, 'args': [''], 'socket_timeout': 5, 'ssl_ca_certificate': None, 'scheduler': None, 'profiler_filename': None, 'ssl_private_key': '', 'scheduler_groups': None, 'password': '1234', 'request_queue_size': 5, 'ssl_certificate': '', 'cronjob': False, 'numthreads': None, 'quiet': False, 'interfaces': None, 'import_models': False, 'timeout': 10, 'plain': False, 'nobanner': False}>"
p945
asbasbasbag61
(g77
g63
NtRp946
(dp947
g66
(dp948
sg75
g851
sg68
(lp949
g61
(g82
g63
NtRp950
(dp951
g66
(dp952
g86
g87
ssg75
g946
sg68
(lp953
S'db_sessions'
p954
asbag61
(g82
g63
NtRp955
(dp956
g66
(dp957
g93
g94
ssg75
g946
sg68
(lp958
S':'
asbag61
(g82
g63
NtRp959
(dp960
g66
(dp961
sg75
g946
sg68
(lp962
g61
(g62
g63
NtRp963
(dp964
g66
(dp965
g74
I4
ssg75
g959
sg68
(lp966
S'set([])'
p967
asbasbasbag61
(g77
g63
NtRp968
(dp969
g66
(dp970
sg75
g851
sg68
(lp971
g61
(g82
g63
NtRp972
(dp973
g66
(dp974
g86
g87
ssg75
g968
sg68
(lp975
S'debugging'
p976
asbag61
(g82
g63
NtRp977
(dp978
g66
(dp979
g93
g94
ssg75
g968
sg68
(lp980
S':'
asbag61
(g82
g63
NtRp981
(dp982
g66
(dp983
sg75
g968
sg68
(lp984
g61
(g62
g63
NtRp985
(dp986
g66
(dp987
g74
I4
ssg75
g981
sg68
(lp988
g104
asbasbasbag61
(g77
g63
NtRp989
(dp990
g66
(dp991
sg75
g851
sg68
(lp992
g61
(g82
g63
NtRp993
(dp994
g66
(dp995
g86
g87
ssg75
g989
sg68
(lp996
S'gluon_parent'
p997
asbag61
(g82
g63
NtRp998
(dp999
g66
(dp1000
g93
g94
ssg75
g989
sg68
(lp1001
S':'
asbag61
(g82
g63
NtRp1002
(dp1003
g66
(dp1004
sg75
g989
sg68
(lp1005
g61
(g62
g63
NtRp1006
(dp1007
g66
(dp1008
g74
I4
ssg75
g1002
sg68
(lp1009
S'/home/diego/web2py'
p1010
asbasbasbag61
(g77
g63
NtRp1011
(dp1012
g66
(dp1013
sg75
g851
sg68
(lp1014
g61
(g82
g63
NtRp1015
(dp1016
g66
(dp1017
g86
g87
ssg75
g1011
sg68
(lp1018
S'http_accept'
p1019
asbag61
(g82
g63
NtRp1020
(dp1021
g66
(dp1022
g93
g94
ssg75
g1011
sg68
(lp1023
S':'
asbag61
(g82
g63
NtRp1024
(dp1025
g66
(dp1026
sg75
g1011
sg68
(lp1027
g61
(g62
g63
NtRp1028
(dp1029
g66
(dp1030
g74
I4
ssg75
g1024
sg68
(lp1031
S'text/html,application/xhtml+xml,application/xml;q=0.9,*/*;q=0.8'
p1032
asbasbasbag61
(g77
g63
NtRp1033
(dp1034
g66
(dp1035
sg75
g851
sg68
(lp1036
g61
(g82
g63
NtRp1037
(dp1038
g66
(dp1039
g86
g87
ssg75
g1033
sg68
(lp1040
S'http_accept_charset'
p1041
asbag61
(g82
g63
NtRp1042
(dp1043
g66
(dp1044
g93
g94
ssg75
g1033
sg68
(lp1045
S':'
asbag61
(g82
g63
NtRp1046
(dp1047
g66
(dp1048
sg75
g1033
sg68
(lp1049
g61
(g62
g63
NtRp1050
(dp1051
g66
(dp1052
g74
I4
ssg75
g1046
sg68
(lp1053
S'ISO-8859-1,utf-8;q=0.7,*;q=0.3'
p1054
asbasbasbag61
(g77
g63
NtRp1055
(dp1056
g66
(dp1057
sg75
g851
sg68
(lp1058
g61
(g82
g63
NtRp1059
(dp1060
g66
(dp1061
g86
g87
ssg75
g1055
sg68
(lp1062
S'http_accept_encoding'
p1063
asbag61
(g82
g63
NtRp1064
(dp1065
g66
(dp1066
g93
g94
ssg75
g1055
sg68
(lp1067
S':'
asbag61
(g82
g63
NtRp1068
(dp1069
g66
(dp1070
sg75
g1055
sg68
(lp1071
g61
(g62
g63
NtRp1072
(dp1073
g66
(dp1074
g74
I4
ssg75
g1068
sg68
(lp1075
S'gzip,deflate,sdch'
p1076
asbasbasbag61
(g77
g63
NtRp1077
(dp1078
g66
(dp1079
sg75
g851
sg68
(lp1080
g61
(g82
g63
NtRp1081
(dp1082
g66
(dp1083
g86
g87
ssg75
g1077
sg68
(lp1084
S'http_accept_language'
p1085
asbag61
(g82
g63
NtRp1086
(dp1087
g66
(dp1088
g93
g94
ssg75
g1077
sg68
(lp1089
S':'
asbag61
(g82
g63
NtRp1090
(dp1091
g66
(dp1092
sg75
g1077
sg68
(lp1093
g61
(g62
g63
NtRp1094
(dp1095
g66
(dp1096
g74
I4
ssg75
g1090
sg68
(lp1097
S'pt-BR,pt;q=0.8,en-US;q=0.6,en;q=0.4'
p1098
asbasbasbag61
(g77
g63
NtRp1099
(dp1100
g66
(dp1101
sg75
g851
sg68
(lp1102
g61
(g82
g63
NtRp1103
(dp1104
g66
(dp1105
g86
g87
ssg75
g1099
sg68
(lp1106
S'http_cache_control'
p1107
asbag61
(g82
g63
NtRp1108
(dp1109
g66
(dp1110
g93
g94
ssg75
g1099
sg68
(lp1111
S':'
asbag61
(g82
g63
NtRp1112
(dp1113
g66
(dp1114
sg75
g1099
sg68
(lp1115
g61
(g62
g63
NtRp1116
(dp1117
g66
(dp1118
g74
I4
ssg75
g1112
sg68
(lp1119
S'max-age=0'
p1120
asbasbasbag61
(g77
g63
NtRp1121
(dp1122
g66
(dp1123
sg75
g851
sg68
(lp1124
g61
(g82
g63
NtRp1125
(dp1126
g66
(dp1127
g86
g87
ssg75
g1121
sg68
(lp1128
S'http_connection'
p1129
asbag61
(g82
g63
NtRp1130
(dp1131
g66
(dp1132
g93
g94
ssg75
g1121
sg68
(lp1133
S':'
asbag61
(g82
g63
NtRp1134
(dp1135
g66
(dp1136
sg75
g1121
sg68
(lp1137
g61
(g62
g63
NtRp1138
(dp1139
g66
(dp1140
g74
I4
ssg75
g1134
sg68
(lp1141
S'keep-alive'
p1142
asbasbasbag61
(g77
g63
NtRp1143
(dp1144
g66
(dp1145
sg75
g851
sg68
(lp1146
g61
(g82
g63
NtRp1147
(dp1148
g66
(dp1149
g86
g87
ssg75
g1143
sg68
(lp1150
S'http_cookie'
p1151
asbag61
(g82
g63
NtRp1152
(dp1153
g66
(dp1154
g93
g94
ssg75
g1143
sg68
(lp1155
S':'
asbag61
(g82
g63
NtRp1156
(dp1157
g66
(dp1158
sg75
g1143
sg68
(lp1159
g61
(g62
g63
NtRp1160
(dp1161
g66
(dp1162
g74
I4
ssg75
g1156
sg68
(lp1163
S'session_id_irecycle=127.0.0.1-10f67e0b-8b95-4045-9f3c-2e1e4dff1c83; session_id_admin=127.0.0.1-e9b49389-2418-4b45-bd80-845c8869c15c; session_id_eureciclo_project=127.0.0.1-20321099-aa16-4110-8d79-f471fe216c19'
p1164
asbasbasbag61
(g77
g63
NtRp1165
(dp1166
g66
(dp1167
sg75
g851
sg68
(lp1168
g61
(g82
g63
NtRp1169
(dp1170
g66
(dp1171
g86
g87
ssg75
g1165
sg68
(lp1172
S'http_host'
p1173
asbag61
(g82
g63
NtRp1174
(dp1175
g66
(dp1176
g93
g94
ssg75
g1165
sg68
(lp1177
S':'
asbag61
(g82
g63
NtRp1178
(dp1179
g66
(dp1180
sg75
g1165
sg68
(lp1181
g61
(g62
g63
NtRp1182
(dp1183
g66
(dp1184
g74
I4
ssg75
g1178
sg68
(lp1185
S'localhost:8000'
p1186
asbasbasbag61
(g77
g63
NtRp1187
(dp1188
g66
(dp1189
sg75
g851
sg68
(lp1190
g61
(g82
g63
NtRp1191
(dp1192
g66
(dp1193
g86
g87
ssg75
g1187
sg68
(lp1194
S'http_referer'
p1195
asbag61
(g82
g63
NtRp1196
(dp1197
g66
(dp1198
g93
g94
ssg75
g1187
sg68
(lp1199
S':'
asbag61
(g82
g63
NtRp1200
(dp1201
g66
(dp1202
sg75
g1187
sg68
(lp1203
g61
(g62
g63
NtRp1204
(dp1205
g66
(dp1206
g74
I4
ssg75
g1200
sg68
(lp1207
S'http://localhost:8000/eureciclo_project/default/search'
p1208
asbasbasbag61
(g77
g63
NtRp1209
(dp1210
g66
(dp1211
sg75
g851
sg68
(lp1212
g61
(g82
g63
NtRp1213
(dp1214
g66
(dp1215
g86
g87
ssg75
g1209
sg68
(lp1216
S'http_user_agent'
p1217
asbag61
(g82
g63
NtRp1218
(dp1219
g66
(dp1220
g93
g94
ssg75
g1209
sg68
(lp1221
S':'
asbag61
(g82
g63
NtRp1222
(dp1223
g66
(dp1224
sg75
g1209
sg68
(lp1225
g61
(g62
g63
NtRp1226
(dp1227
g66
(dp1228
g74
I4
ssg75
g1222
sg68
(lp1229
S'Mozilla/5.0 (X11; Linux x86_64) AppleWebKit/537.17 (KHTML, like Gecko) Chrome/24.0.1312.52 Safari/537.17'
p1230
asbasbasbag61
(g77
g63
NtRp1231
(dp1232
g66
(dp1233
sg75
g851
sg68
(lp1234
g61
(g82
g63
NtRp1235
(dp1236
g66
(dp1237
g86
g87
ssg75
g1231
sg68
(lp1238
S'is_jython'
p1239
asbag61
(g82
g63
NtRp1240
(dp1241
g66
(dp1242
g93
g94
ssg75
g1231
sg68
(lp1243
S':'
asbag61
(g82
g63
NtRp1244
(dp1245
g66
(dp1246
sg75
g1231
sg68
(lp1247
g61
(g62
g63
NtRp1248
(dp1249
g66
(dp1250
g74
I4
ssg75
g1244
sg68
(lp1251
g104
asbasbasbag61
(g77
g63
NtRp1252
(dp1253
g66
(dp1254
sg75
g851
sg68
(lp1255
g61
(g82
g63
NtRp1256
(dp1257
g66
(dp1258
g86
g87
ssg75
g1252
sg68
(lp1259
S'is_pypy'
p1260
asbag61
(g82
g63
NtRp1261
(dp1262
g66
(dp1263
g93
g94
ssg75
g1252
sg68
(lp1264
S':'
asbag61
(g82
g63
NtRp1265
(dp1266
g66
(dp1267
sg75
g1252
sg68
(lp1268
g61
(g62
g63
NtRp1269
(dp1270
g66
(dp1271
g74
I4
ssg75
g1265
sg68
(lp1272
g104
asbasbasbag61
(g77
g63
NtRp1273
(dp1274
g66
(dp1275
sg75
g851
sg68
(lp1276
g61
(g82
g63
NtRp1277
(dp1278
g66
(dp1279
g86
g87
ssg75
g1273
sg68
(lp1280
S'local_hosts'
p1281
asbag61
(g82
g63
NtRp1282
(dp1283
g66
(dp1284
g93
g94
ssg75
g1273
sg68
(lp1285
S':'
asbag61
(g82
g63
NtRp1286
(dp1287
g66
(dp1288
sg75
g1273
sg68
(lp1289
g61
(g62
g63
NtRp1290
(dp1291
g66
(dp1292
g74
I4
ssg75
g1286
sg68
(lp1293
g61
(g70
g63
NtRp1294
(dp1295
g66
(dp1296
g74
I3
ssg75
Nsg68
(lp1297
g61
(g77
g63
NtRp1298
(dp1299
g66
(dp1300
sg75
g1294
sg68
(lp1301
g61
(g82
g63
NtRp1302
(dp1303
g66
(dp1304
sg75
g1298
sg68
(lp1305
g61
(g62
g63
NtRp1306
(dp1307
g66
(dp1308
g74
I3
ssg75
g1302
sg68
(lp1309
S'::1'
p1310
asbasbasbag61
(g77
g63
NtRp1311
(dp1312
g66
(dp1313
sg75
g1294
sg68
(lp1314
g61
(g82
g63
NtRp1315
(dp1316
g66
(dp1317
sg75
g1311
sg68
(lp1318
g61
(g62
g63
NtRp1319
(dp1320
g66
(dp1321
g74
I3
ssg75
g1315
sg68
(lp1322
S'madagascar'
p1323
asbasbasbag61
(g77
g63
NtRp1324
(dp1325
g66
(dp1326
sg75
g1294
sg68
(lp1327
g61
(g82
g63
NtRp1328
(dp1329
g66
(dp1330
sg75
g1324
sg68
(lp1331
g61
(g62
g63
NtRp1332
(dp1333
g66
(dp1334
g74
I3
ssg75
g1328
sg68
(lp1335
S'::ffff:127.0.0.1'
p1336
asbasbasbag61
(g77
g63
NtRp1337
(dp1338
g66
(dp1339
sg75
g1294
sg68
(lp1340
g61
(g82
g63
NtRp1341
(dp1342
g66
(dp1343
sg75
g1337
sg68
(lp1344
g61
(g62
g63
NtRp1345
(dp1346
g66
(dp1347
g74
I3
ssg75
g1341
sg68
(lp1348
S'127.0.0.1'
p1349
asbasbasbag61
(g77
g63
NtRp1350
(dp1351
g66
(dp1352
sg75
g1294
sg68
(lp1353
g61
(g82
g63
NtRp1354
(dp1355
g66
(dp1356
sg75
g1350
sg68
(lp1357
g61
(g62
g63
NtRp1358
(dp1359
g66
(dp1360
g74
I3
ssg75
g1354
sg68
(lp1361
S'172.30.6.210'
p1362
asbasbasbasbasbasbasbag61
(g77
g63
NtRp1363
(dp1364
g66
(dp1365
sg75
g851
sg68
(lp1366
g61
(g82
g63
NtRp1367
(dp1368
g66
(dp1369
g86
g87
ssg75
g1363
sg68
(lp1370
S'path_info'
p1371
asbag61
(g82
g63
NtRp1372
(dp1373
g66
(dp1374
g93
g94
ssg75
g1363
sg68
(lp1375
S':'
asbag61
(g82
g63
NtRp1376
(dp1377
g66
(dp1378
sg75
g1363
sg68
(lp1379
g61
(g62
g63
NtRp1380
(dp1381
g66
(dp1382
g74
I4
ssg75
g1376
sg68
(lp1383
S'/eureciclo_project/default/home'
p1384
asbasbasbag61
(g77
g63
NtRp1385
(dp1386
g66
(dp1387
sg75
g851
sg68
(lp1388
g61
(g82
g63
NtRp1389
(dp1390
g66
(dp1391
g86
g87
ssg75
g1385
sg68
(lp1392
S'query_string'
p1393
asbag61
(g82
g63
NtRp1394
(dp1395
g66
(dp1396
g93
g94
ssg75
g1385
sg68
(lp1397
S':'
asbag61
(g82
g63
NtRp1398
(dp1399
g66
(dp1400
sg75
g1385
sg68
(lp1401
g61
(g62
g63
NtRp1402
(dp1403
g66
(dp1404
g74
I4
ssg75
g1398
sg68
(lp1405
S''
asbasbasbag61
(g77
g63
NtRp1406
(dp1407
g66
(dp1408
sg75
g851
sg68
(lp1409
g61
(g82
g63
NtRp1410
(dp1411
g66
(dp1412
g86
g87
ssg75
g1406
sg68
(lp1413
S'remote_addr'
p1414
asbag61
(g82
g63
NtRp1415
(dp1416
g66
(dp1417
g93
g94
ssg75
g1406
sg68
(lp1418
S':'
asbag61
(g82
g63
NtRp1419
(dp1420
g66
(dp1421
sg75
g1406
sg68
(lp1422
g61
(g62
g63
NtRp1423
(dp1424
g66
(dp1425
g74
I4
ssg75
g1419
sg68
(lp1426
g216
asbasbasbag61
(g77
g63
NtRp1427
(dp1428
g66
(dp1429
sg75
g851
sg68
(lp1430
g61
(g82
g63
NtRp1431
(dp1432
g66
(dp1433
g86
g87
ssg75
g1427
sg68
(lp1434
S'remote_port'
p1435
asbag61
(g82
g63
NtRp1436
(dp1437
g66
(dp1438
g93
g94
ssg75
g1427
sg68
(lp1439
S':'
asbag61
(g82
g63
NtRp1440
(dp1441
g66
(dp1442
sg75
g1427
sg68
(lp1443
g61
(g62
g63
NtRp1444
(dp1445
g66
(dp1446
g74
I4
ssg75
g1440
sg68
(lp1447
S'35959'
p1448
asbasbasbag61
(g77
g63
NtRp1449
(dp1450
g66
(dp1451
sg75
g851
sg68
(lp1452
g61
(g82
g63
NtRp1453
(dp1454
g66
(dp1455
g86
g87
ssg75
g1449
sg68
(lp1456
S'request_method'
p1457
asbag61
(g82
g63
NtRp1458
(dp1459
g66
(dp1460
g93
g94
ssg75
g1449
sg68
(lp1461
S':'
asbag61
(g82
g63
NtRp1462
(dp1463
g66
(dp1464
sg75
g1449
sg68
(lp1465
g61
(g62
g63
NtRp1466
(dp1467
g66
(dp1468
g74
I4
ssg75
g1462
sg68
(lp1469
S'GET'
p1470
asbasbasbag61
(g77
g63
NtRp1471
(dp1472
g66
(dp1473
sg75
g851
sg68
(lp1474
g61
(g82
g63
NtRp1475
(dp1476
g66
(dp1477
g86
g87
ssg75
g1471
sg68
(lp1478
S'request_uri'
p1479
asbag61
(g82
g63
NtRp1480
(dp1481
g66
(dp1482
g93
g94
ssg75
g1471
sg68
(lp1483
S':'
asbag61
(g82
g63
NtRp1484
(dp1485
g66
(dp1486
sg75
g1471
sg68
(lp1487
g61
(g62
g63
NtRp1488
(dp1489
g66
(dp1490
g74
I4
ssg75
g1484
sg68
(lp1491
g1384
asbasbasbag61
(g77
g63
NtRp1492
(dp1493
g66
(dp1494
sg75
g851
sg68
(lp1495
g61
(g82
g63
NtRp1496
(dp1497
g66
(dp1498
g86
g87
ssg75
g1492
sg68
(lp1499
S'script_name'
p1500
asbag61
(g82
g63
NtRp1501
(dp1502
g66
(dp1503
g93
g94
ssg75
g1492
sg68
(lp1504
S':'
asbag61
(g82
g63
NtRp1505
(dp1506
g66
(dp1507
sg75
g1492
sg68
(lp1508
g61
(g62
g63
NtRp1509
(dp1510
g66
(dp1511
g74
I4
ssg75
g1505
sg68
(lp1512
S''
asbasbasbag61
(g77
g63
NtRp1513
(dp1514
g66
(dp1515
sg75
g851
sg68
(lp1516
g61
(g82
g63
NtRp1517
(dp1518
g66
(dp1519
g86
g87
ssg75
g1513
sg68
(lp1520
S'server_name'
p1521
asbag61
(g82
g63
NtRp1522
(dp1523
g66
(dp1524
g93
g94
ssg75
g1513
sg68
(lp1525
S':'
asbag61
(g82
g63
NtRp1526
(dp1527
g66
(dp1528
sg75
g1513
sg68
(lp1529
g61
(g62
g63
NtRp1530
(dp1531
g66
(dp1532
g74
I4
ssg75
g1526
sg68
(lp1533
S'madagascar'
p1534
asbasbasbag61
(g77
g63
NtRp1535
(dp1536
g66
(dp1537
sg75
g851
sg68
(lp1538
g61
(g82
g63
NtRp1539
(dp1540
g66
(dp1541
g86
g87
ssg75
g1535
sg68
(lp1542
S'server_port'
p1543
asbag61
(g82
g63
NtRp1544
(dp1545
g66
(dp1546
g93
g94
ssg75
g1535
sg68
(lp1547
S':'
asbag61
(g82
g63
NtRp1548
(dp1549
g66
(dp1550
sg75
g1535
sg68
(lp1551
g61
(g62
g63
NtRp1552
(dp1553
g66
(dp1554
g74
I4
ssg75
g1548
sg68
(lp1555
S'8000'
p1556
asbasbasbag61
(g77
g63
NtRp1557
(dp1558
g66
(dp1559
sg75
g851
sg68
(lp1560
g61
(g82
g63
NtRp1561
(dp1562
g66
(dp1563
g86
g87
ssg75
g1557
sg68
(lp1564
S'server_protocol'
p1565
asbag61
(g82
g63
NtRp1566
(dp1567
g66
(dp1568
g93
g94
ssg75
g1557
sg68
(lp1569
S':'
asbag61
(g82
g63
NtRp1570
(dp1571
g66
(dp1572
sg75
g1557
sg68
(lp1573
g61
(g62
g63
NtRp1574
(dp1575
g66
(dp1576
g74
I4
ssg75
g1570
sg68
(lp1577
S'HTTP/1.1'
p1578
asbasbasbag61
(g77
g63
NtRp1579
(dp1580
g66
(dp1581
sg75
g851
sg68
(lp1582
g61
(g82
g63
NtRp1583
(dp1584
g66
(dp1585
g86
g87
ssg75
g1579
sg68
(lp1586
S'server_software'
p1587
asbag61
(g82
g63
NtRp1588
(dp1589
g66
(dp1590
g93
g94
ssg75
g1579
sg68
(lp1591
S':'
asbag61
(g82
g63
NtRp1592
(dp1593
g66
(dp1594
sg75
g1579
sg68
(lp1595
g61
(g62
g63
NtRp1596
(dp1597
g66
(dp1598
g74
I4
ssg75
g1592
sg68
(lp1599
S'Rocket 1.2.6'
p1600
asbasbasbag61
(g77
g63
NtRp1601
(dp1602
g66
(dp1603
sg75
g851
sg68
(lp1604
g61
(g82
g63
NtRp1605
(dp1606
g66
(dp1607
g86
g87
ssg75
g1601
sg68
(lp1608
S'web2py_path'
p1609
asbag61
(g82
g63
NtRp1610
(dp1611
g66
(dp1612
g93
g94
ssg75
g1601
sg68
(lp1613
S':'
asbag61
(g82
g63
NtRp1614
(dp1615
g66
(dp1616
sg75
g1601
sg68
(lp1617
g61
(g62
g63
NtRp1618
(dp1619
g66
(dp1620
g74
I4
ssg75
g1614
sg68
(lp1621
g898
asbasbasbag61
(g77
g63
NtRp1622
(dp1623
g66
(dp1624
sg75
g851
sg68
(lp1625
g61
(g82
g63
NtRp1626
(dp1627
g66
(dp1628
g86
g87
ssg75
g1622
sg68
(lp1629
S'web2py_version'
p1630
asbag61
(g82
g63
NtRp1631
(dp1632
g66
(dp1633
g93
g94
ssg75
g1622
sg68
(lp1634
S':'
asbag61
(g82
g63
NtRp1635
(dp1636
g66
(dp1637
sg75
g1622
sg68
(lp1638
g61
(g62
g63
NtRp1639
(dp1640
g66
(dp1641
g74
I4
ssg75
g1635
sg68
(lp1642
g61
(g70
g63
NtRp1643
(dp1644
g66
(dp1645
g74
I3
ssg75
Nsg68
(lp1646
g61
(g77
g63
NtRp1647
(dp1648
g66
(dp1649
sg75
g1643
sg68
(lp1650
g61
(g82
g63
NtRp1651
(dp1652
g66
(dp1653
sg75
g1647
sg68
(lp1654
g61
(g62
g63
NtRp1655
(dp1656
g66
(dp1657
g74
I3
ssg75
g1651
sg68
(lp1658
S'2'
asbasbasbag61
(g77
g63
NtRp1659
(dp1660
g66
(dp1661
sg75
g1643
sg68
(lp1662
g61
(g82
g63
NtRp1663
(dp1664
g66
(dp1665
sg75
g1659
sg68
(lp1666
g61
(g62
g63
NtRp1667
(dp1668
g66
(dp1669
g74
I3
ssg75
g1663
sg68
(lp1670
S'3'
asbasbasbag61
(g77
g63
NtRp1671
(dp1672
g66
(dp1673
sg75
g1643
sg68
(lp1674
g61
(g82
g63
NtRp1675
(dp1676
g66
(dp1677
sg75
g1671
sg68
(lp1678
g61
(g62
g63
NtRp1679
(dp1680
g66
(dp1681
g74
I3
ssg75
g1675
sg68
(lp1682
S'2'
asbasbasbag61
(g77
g63
NtRp1683
(dp1684
g66
(dp1685
sg75
g1643
sg68
(lp1686
g61
(g82
g63
NtRp1687
(dp1688
g66
(dp1689
sg75
g1683
sg68
(lp1690
g61
(g62
g63
NtRp1691
(dp1692
g66
(dp1693
g74
I3
ssg75
g1687
sg68
(lp1694
S'datetime.datetime(2012, 12, 17, 15, 3, 30)'
p1695
asbasbasbag61
(g77
g63
NtRp1696
(dp1697
g66
(dp1698
sg75
g1643
sg68
(lp1699
g61
(g82
g63
NtRp1700
(dp1701
g66
(dp1702
sg75
g1696
sg68
(lp1703
g61
(g62
g63
NtRp1704
(dp1705
g66
(dp1706
g74
I3
ssg75
g1700
sg68
(lp1707
S'stable'
p1708
asbasbasbasbasbasbasbag61
(g77
g63
NtRp1709
(dp1710
g66
(dp1711
sg75
g851
sg68
(lp1712
g61
(g82
g63
NtRp1713
(dp1714
g66
(dp1715
g86
g87
ssg75
g1709
sg68
(lp1716
S'wsgi_errors'
p1717
asbag61
(g82
g63
NtRp1718
(dp1719
g66
(dp1720
g93
g94
ssg75
g1709
sg68
(lp1721
S':'
asbag61
(g82
g63
NtRp1722
(dp1723
g66
(dp1724
sg75
g1709
sg68
(lp1725
g61
(g62
g63
NtRp1726
(dp1727
g66
(dp1728
g74
I4
ssg75
g1722
sg68
(lp1729
S"<open file '<stderr>', mode 'w' at 0x7fb823427270>"
p1730
asbasbasbag61
(g77
g63
NtRp1731
(dp1732
g66
(dp1733
sg75
g851
sg68
(lp1734
g61
(g82
g63
NtRp1735
(dp1736
g66
(dp1737
g86
g87
ssg75
g1731
sg68
(lp1738
S'wsgi_file_wrapper'
p1739
asbag61
(g82
g63
NtRp1740
(dp1741
g66
(dp1742
g93
g94
ssg75
g1731
sg68
(lp1743
S':'
asbag61
(g82
g63
NtRp1744
(dp1745
g66
(dp1746
sg75
g1731
sg68
(lp1747
g61
(g62
g63
NtRp1748
(dp1749
g66
(dp1750
g74
I4
ssg75
g1744
sg68
(lp1751
S'<class wsgiref.util.FileWrapper at 0x3019738>'
p1752
asbasbasbag61
(g77
g63
NtRp1753
(dp1754
g66
(dp1755
sg75
g851
sg68
(lp1756
g61
(g82
g63
NtRp1757
(dp1758
g66
(dp1759
g86
g87
ssg75
g1753
sg68
(lp1760
S'wsgi_input'
p1761
asbag61
(g82
g63
NtRp1762
(dp1763
g66
(dp1764
g93
g94
ssg75
g1753
sg68
(lp1765
S':'
asbag61
(g82
g63
NtRp1766
(dp1767
g66
(dp1768
sg75
g1753
sg68
(lp1769
g61
(g62
g63
NtRp1770
(dp1771
g66
(dp1772
g74
I4
ssg75
g1766
sg68
(lp1773
S'<socket._fileobject object at 0x7fb7e8416150>'
p1774
asbasbasbag61
(g77
g63
NtRp1775
(dp1776
g66
(dp1777
sg75
g851
sg68
(lp1778
g61
(g82
g63
NtRp1779
(dp1780
g66
(dp1781
g86
g87
ssg75
g1775
sg68
(lp1782
S'wsgi_multiprocess'
p1783
asbag61
(g82
g63
NtRp1784
(dp1785
g66
(dp1786
g93
g94
ssg75
g1775
sg68
(lp1787
S':'
asbag61
(g82
g63
NtRp1788
(dp1789
g66
(dp1790
sg75
g1775
sg68
(lp1791
g61
(g62
g63
NtRp1792
(dp1793
g66
(dp1794
g74
I4
ssg75
g1788
sg68
(lp1795
g104
asbasbasbag61
(g77
g63
NtRp1796
(dp1797
g66
(dp1798
sg75
g851
sg68
(lp1799
g61
(g82
g63
NtRp1800
(dp1801
g66
(dp1802
g86
g87
ssg75
g1796
sg68
(lp1803
S'wsgi_multithread'
p1804
asbag61
(g82
g63
NtRp1805
(dp1806
g66
(dp1807
g93
g94
ssg75
g1796
sg68
(lp1808
S':'
asbag61
(g82
g63
NtRp1809
(dp1810
g66
(dp1811
sg75
g1796
sg68
(lp1812
g61
(g62
g63
NtRp1813
(dp1814
g66
(dp1815
g74
I4
ssg75
g1809
sg68
(lp1816
S'True'
p1817
asbasbasbag61
(g77
g63
NtRp1818
(dp1819
g66
(dp1820
sg75
g851
sg68
(lp1821
g61
(g82
g63
NtRp1822
(dp1823
g66
(dp1824
g86
g87
ssg75
g1818
sg68
(lp1825
S'wsgi_run_once'
p1826
asbag61
(g82
g63
NtRp1827
(dp1828
g66
(dp1829
g93
g94
ssg75
g1818
sg68
(lp1830
S':'
asbag61
(g82
g63
NtRp1831
(dp1832
g66
(dp1833
sg75
g1818
sg68
(lp1834
g61
(g62
g63
NtRp1835
(dp1836
g66
(dp1837
g74
I4
ssg75
g1831
sg68
(lp1838
g104
asbasbasbag61
(g77
g63
NtRp1839
(dp1840
g66
(dp1841
sg75
g851
sg68
(lp1842
g61
(g82
g63
NtRp1843
(dp1844
g66
(dp1845
g86
g87
ssg75
g1839
sg68
(lp1846
S'wsgi_url_scheme'
p1847
asbag61
(g82
g63
NtRp1848
(dp1849
g66
(dp1850
g93
g94
ssg75
g1839
sg68
(lp1851
S':'
asbag61
(g82
g63
NtRp1852
(dp1853
g66
(dp1854
sg75
g1839
sg68
(lp1855
g61
(g62
g63
NtRp1856
(dp1857
g66
(dp1858
g74
I4
ssg75
g1852
sg68
(lp1859
S'http'
p1860
asbasbasbag61
(g77
g63
NtRp1861
(dp1862
g66
(dp1863
sg75
g851
sg68
(lp1864
g61
(g82
g63
NtRp1865
(dp1866
g66
(dp1867
g86
g87
ssg75
g1861
sg68
(lp1868
S'wsgi_version'
p1869
asbag61
(g82
g63
NtRp1870
(dp1871
g66
(dp1872
g93
g94
ssg75
g1861
sg68
(lp1873
S':'
asbag61
(g82
g63
NtRp1874
(dp1875
g66
(dp1876
sg75
g1861
sg68
(lp1877
g61
(g62
g63
NtRp1878
(dp1879
g66
(dp1880
g74
I4
ssg75
g1874
sg68
(lp1881
g61
(g70
g63
NtRp1882
(dp1883
g66
(dp1884
g74
I3
ssg75
Nsg68
(lp1885
g61
(g77
g63
NtRp1886
(dp1887
g66
(dp1888
sg75
g1882
sg68
(lp1889
g61
(g82
g63
NtRp1890
(dp1891
g66
(dp1892
sg75
g1886
sg68
(lp1893
g61
(g62
g63
NtRp1894
(dp1895
g66
(dp1896
g74
I3
ssg75
g1890
sg68
(lp1897
S'1'
asbasbasbag61
(g77
g63
NtRp1898
(dp1899
g66
(dp1900
sg75
g1882
sg68
(lp1901
g61
(g82
g63
NtRp1902
(dp1903
g66
(dp1904
sg75
g1898
sg68
(lp1905
g61
(g62
g63
NtRp1906
(dp1907
g66
(dp1908
g74
I3
ssg75
g1902
sg68
(lp1909
S'0'
asbasbasbasbasbasbasbasbasbasbasbag61
(g77
g63
NtRp1910
(dp1911
g66
(dp1912
sg75
g71
sg68
(lp1913
g61
(g82
g63
NtRp1914
(dp1915
g66
(dp1916
g86
g87
ssg75
g1910
sg68
(lp1917
S'extension'
p1918
asbag61
(g82
g63
NtRp1919
(dp1920
g66
(dp1921
g93
g94
ssg75
g1910
sg68
(lp1922
S':'
asbag61
(g82
g63
NtRp1923
(dp1924
g66
(dp1925
sg75
g1910
sg68
(lp1926
g61
(g62
g63
NtRp1927
(dp1928
g66
(dp1929
g74
I5
ssg75
g1923
sg68
(lp1930
S'html'
p1931
asbasbasbag61
(g77
g63
NtRp1932
(dp1933
g66
(dp1934
sg75
g71
sg68
(lp1935
g61
(g82
g63
NtRp1936
(dp1937
g66
(dp1938
g86
g87
ssg75
g1932
sg68
(lp1939
S'folder'
p1940
asbag61
(g82
g63
NtRp1941
(dp1942
g66
(dp1943
g93
g94
ssg75
g1932
sg68
(lp1944
S':'
asbag61
(g82
g63
NtRp1945
(dp1946
g66
(dp1947
sg75
g1932
sg68
(lp1948
g61
(g62
g63
NtRp1949
(dp1950
g66
(dp1951
g74
I5
ssg75
g1945
sg68
(lp1952
S'/home/diego/web2py/applications/eureciclo_project/'
p1953
asbasbasbag61
(g77
g63
NtRp1954
(dp1955
g66
(dp1956
sg75
g71
sg68
(lp1957
g61
(g82
g63
NtRp1958
(dp1959
g66
(dp1960
g86
g87
ssg75
g1954
sg68
(lp1961
S'function'
p1962
asbag61
(g82
g63
NtRp1963
(dp1964
g66
(dp1965
g93
g94
ssg75
g1954
sg68
(lp1966
S':'
asbag61
(g82
g63
NtRp1967
(dp1968
g66
(dp1969
sg75
g1954
sg68
(lp1970
g61
(g62
g63
NtRp1971
(dp1972
g66
(dp1973
g74
I5
ssg75
g1967
sg68
(lp1974
S'home'
p1975
asbasbasbag61
(g77
g63
NtRp1976
(dp1977
g66
(dp1978
sg75
g71
sg68
(lp1979
g61
(g82
g63
NtRp1980
(dp1981
g66
(dp1982
g86
g87
ssg75
g1976
sg68
(lp1983
S'get_vars'
p1984
asbag61
(g82
g63
NtRp1985
(dp1986
g66
(dp1987
g93
g94
ssg75
g1976
sg68
(lp1988
S':'
asbag61
(g82
g63
NtRp1989
(dp1990
g66
(dp1991
sg75
g1976
sg68
(lp1992
g61
(g62
g63
NtRp1993
(dp1994
g66
(dp1995
g74
I5
ssg75
g1989
sg68
(lp1996
g61
(g70
g63
NtRp1997
(dp1998
g66
(dp1999
g74
I4
ssg75
Nsg68
(lp2000
sbasbasbasbag61
(g77
g63
NtRp2001
(dp2002
g66
(dp2003
sg75
g71
sg68
(lp2004
g61
(g82
g63
NtRp2005
(dp2006
g66
(dp2007
g86
g87
ssg75
g2001
sg68
(lp2008
S'global_settings'
p2009
asbag61
(g82
g63
NtRp2010
(dp2011
g66
(dp2012
g93
g94
ssg75
g2001
sg68
(lp2013
S':'
asbag61
(g82
g63
NtRp2014
(dp2015
g66
(dp2016
sg75
g2001
sg68
(lp2017
g61
(g62
g63
NtRp2018
(dp2019
g66
(dp2020
g74
I5
ssg75
g2014
sg68
(lp2021
g61
(g70
g63
NtRp2022
(dp2023
g66
(dp2024
g74
I4
ssg75
Nsg68
(lp2025
g61
(g77
g63
NtRp2026
(dp2027
g66
(dp2028
sg75
g2022
sg68
(lp2029
g61
(g82
g63
NtRp2030
(dp2031
g66
(dp2032
g86
g87
ssg75
g2026
sg68
(lp2033
g863
asbag61
(g82
g63
NtRp2034
(dp2035
g66
(dp2036
g93
g94
ssg75
g2026
sg68
(lp2037
S':'
asbag61
(g82
g63
NtRp2038
(dp2039
g66
(dp2040
sg75
g2026
sg68
(lp2041
g61
(g62
g63
NtRp2042
(dp2043
g66
(dp2044
g74
I4
ssg75
g2038
sg68
(lp2045
S"set(['/home/diego/web2py/applications/irecycle/', '/home/diego/web2py/applications/admin/', '/home/diego/web2py/applications/eureciclo_project/'])"
p2046
asbasbasbag61
(g77
g63
NtRp2047
(dp2048
g66
(dp2049
sg75
g2022
sg68
(lp2050
g61
(g82
g63
NtRp2051
(dp2052
g66
(dp2053
g86
g87
ssg75
g2047
sg68
(lp2054
g885
asbag61
(g82
g63
NtRp2055
(dp2056
g66
(dp2057
g93
g94
ssg75
g2047
sg68
(lp2058
S':'
asbag61
(g82
g63
NtRp2059
(dp2060
g66
(dp2061
sg75
g2047
sg68
(lp2062
g61
(g62
g63
NtRp2063
(dp2064
g66
(dp2065
g74
I4
ssg75
g2059
sg68
(lp2066
g898
asbasbasbag61
(g77
g63
NtRp2067
(dp2068
g66
(dp2069
sg75
g2022
sg68
(lp2070
g61
(g82
g63
NtRp2071
(dp2072
g66
(dp2073
g86
g87
ssg75
g2067
sg68
(lp2074
g907
asbag61
(g82
g63
NtRp2075
(dp2076
g66
(dp2077
g93
g94
ssg75
g2067
sg68
(lp2078
S':'
asbag61
(g82
g63
NtRp2079
(dp2080
g66
(dp2081
sg75
g2067
sg68
(lp2082
g61
(g62
g63
NtRp2083
(dp2084
g66
(dp2085
g74
I4
ssg75
g2079
sg68
(lp2086
g61
(g70
g63
NtRp2087
(dp2088
g66
(dp2089
g74
I3
ssg75
Nsg68
(lp2090
sbasbasbasbag61
(g77
g63
NtRp2091
(dp2092
g66
(dp2093
sg75
g2022
sg68
(lp2094
g61
(g82
g63
NtRp2095
(dp2096
g66
(dp2097
g86
g87
ssg75
g2091
sg68
(lp2098
g932
asbag61
(g82
g63
NtRp2099
(dp2100
g66
(dp2101
g93
g94
ssg75
g2091
sg68
(lp2102
S':'
asbag61
(g82
g63
NtRp2103
(dp2104
g66
(dp2105
sg75
g2091
sg68
(lp2106
g61
(g62
g63
NtRp2107
(dp2108
g66
(dp2109
g74
I4
ssg75
g2103
sg68
(lp2110
S"<Values at 0x30ba488: {'verbose': False, 'ip': '127.0.0.1', 'with_scheduler': False, 'ips': ['172.30.6.210'], 'shutdown_timeout': 5, 'taskbar': False, 'port': 8000, 'maxthreads': None, 'softcron': False, 'server_name': 'madagascar', 'bpython': False, 'nogui': False, 'pid_filename': 'httpserver.pid', 'extcron': False, 'runcron': False, 'run_system_tests': False, 'test': None, 'folder': '/home/diego/web2py', 'config': '', 'minthreads': None, 'winservice': '', 'shell': None, 'run': '', 'log_filename': 'httpserver.log', 'debuglevel': 30, 'args': [''], 'socket_timeout': 5, 'ssl_ca_certificate': None, 'scheduler': None, 'profiler_filename': None, 'ssl_private_key': '', 'scheduler_groups': None, 'password': '1234', 'request_queue_size': 5, 'ssl_certificate': '', 'cronjob': False, 'numthreads': None, 'quiet': False, 'interfaces': None, 'import_models': False, 'timeout': 10, 'plain': False, 'nobanner': False}>"
p2111
asbasbasbag61
(g77
g63
NtRp2112
(dp2113
g66
(dp2114
sg75
g2022
sg68
(lp2115
g61
(g82
g63
NtRp2116
(dp2117
g66
(dp2118
g86
g87
ssg75
g2112
sg68
(lp2119
g954
asbag61
(g82
g63
NtRp2120
(dp2121
g66
(dp2122
g93
g94
ssg75
g2112
sg68
(lp2123
S':'
asbag61
(g82
g63
NtRp2124
(dp2125
g66
(dp2126
sg75
g2112
sg68
(lp2127
g61
(g62
g63
NtRp2128
(dp2129
g66
(dp2130
g74
I4
ssg75
g2124
sg68
(lp2131
S'set([])'
p2132
asbasbasbag61
(g77
g63
NtRp2133
(dp2134
g66
(dp2135
sg75
g2022
sg68
(lp2136
g61
(g82
g63
NtRp2137
(dp2138
g66
(dp2139
g86
g87
ssg75
g2133
sg68
(lp2140
g976
asbag61
(g82
g63
NtRp2141
(dp2142
g66
(dp2143
g93
g94
ssg75
g2133
sg68
(lp2144
S':'
asbag61
(g82
g63
NtRp2145
(dp2146
g66
(dp2147
sg75
g2133
sg68
(lp2148
g61
(g62
g63
NtRp2149
(dp2150
g66
(dp2151
g74
I4
ssg75
g2145
sg68
(lp2152
g104
asbasbasbag61
(g77
g63
NtRp2153
(dp2154
g66
(dp2155
sg75
g2022
sg68
(lp2156
g61
(g82
g63
NtRp2157
(dp2158
g66
(dp2159
g86
g87
ssg75
g2153
sg68
(lp2160
g997
asbag61
(g82
g63
NtRp2161
(dp2162
g66
(dp2163
g93
g94
ssg75
g2153
sg68
(lp2164
S':'
asbag61
(g82
g63
NtRp2165
(dp2166
g66
(dp2167
sg75
g2153
sg68
(lp2168
g61
(g62
g63
NtRp2169
(dp2170
g66
(dp2171
g74
I4
ssg75
g2165
sg68
(lp2172
g1010
asbasbasbag61
(g77
g63
NtRp2173
(dp2174
g66
(dp2175
sg75
g2022
sg68
(lp2176
g61
(g82
g63
NtRp2177
(dp2178
g66
(dp2179
g86
g87
ssg75
g2173
sg68
(lp2180
g1239
asbag61
(g82
g63
NtRp2181
(dp2182
g66
(dp2183
g93
g94
ssg75
g2173
sg68
(lp2184
S':'
asbag61
(g82
g63
NtRp2185
(dp2186
g66
(dp2187
sg75
g2173
sg68
(lp2188
g61
(g62
g63
NtRp2189
(dp2190
g66
(dp2191
g74
I4
ssg75
g2185
sg68
(lp2192
g104
asbasbasbag61
(g77
g63
NtRp2193
(dp2194
g66
(dp2195
sg75
g2022
sg68
(lp2196
g61
(g82
g63
NtRp2197
(dp2198
g66
(dp2199
g86
g87
ssg75
g2193
sg68
(lp2200
g1260
asbag61
(g82
g63
NtRp2201
(dp2202
g66
(dp2203
g93
g94
ssg75
g2193
sg68
(lp2204
S':'
asbag61
(g82
g63
NtRp2205
(dp2206
g66
(dp2207
sg75
g2193
sg68
(lp2208
g61
(g62
g63
NtRp2209
(dp2210
g66
(dp2211
g74
I4
ssg75
g2205
sg68
(lp2212
g104
asbasbasbag61
(g77
g63
NtRp2213
(dp2214
g66
(dp2215
sg75
g2022
sg68
(lp2216
g61
(g82
g63
NtRp2217
(dp2218
g66
(dp2219
g86
g87
ssg75
g2213
sg68
(lp2220
g1281
asbag61
(g82
g63
NtRp2221
(dp2222
g66
(dp2223
g93
g94
ssg75
g2213
sg68
(lp2224
S':'
asbag61
(g82
g63
NtRp2225
(dp2226
g66
(dp2227
sg75
g2213
sg68
(lp2228
g61
(g62
g63
NtRp2229
(dp2230
g66
(dp2231
g74
I4
ssg75
g2225
sg68
(lp2232
g61
(g70
g63
NtRp2233
(dp2234
g66
(dp2235
g74
I3
ssg75
Nsg68
(lp2236
g61
(g77
g63
NtRp2237
(dp2238
g66
(dp2239
sg75
g2233
sg68
(lp2240
g61
(g82
g63
NtRp2241
(dp2242
g66
(dp2243
sg75
g2237
sg68
(lp2244
g61
(g62
g63
NtRp2245
(dp2246
g66
(dp2247
g74
I3
ssg75
g2241
sg68
(lp2248
g1310
asbasbasbag61
(g77
g63
NtRp2249
(dp2250
g66
(dp2251
sg75
g2233
sg68
(lp2252
g61
(g82
g63
NtRp2253
(dp2254
g66
(dp2255
sg75
g2249
sg68
(lp2256
g61
(g62
g63
NtRp2257
(dp2258
g66
(dp2259
g74
I3
ssg75
g2253
sg68
(lp2260
g1323
asbasbasbag61
(g77
g63
NtRp2261
(dp2262
g66
(dp2263
sg75
g2233
sg68
(lp2264
g61
(g82
g63
NtRp2265
(dp2266
g66
(dp2267
sg75
g2261
sg68
(lp2268
g61
(g62
g63
NtRp2269
(dp2270
g66
(dp2271
g74
I3
ssg75
g2265
sg68
(lp2272
g1336
asbasbasbag61
(g77
g63
NtRp2273
(dp2274
g66
(dp2275
sg75
g2233
sg68
(lp2276
g61
(g82
g63
NtRp2277
(dp2278
g66
(dp2279
sg75
g2273
sg68
(lp2280
g61
(g62
g63
NtRp2281
(dp2282
g66
(dp2283
g74
I3
ssg75
g2277
sg68
(lp2284
g1349
asbasbasbag61
(g77
g63
NtRp2285
(dp2286
g66
(dp2287
sg75
g2233
sg68
(lp2288
g61
(g82
g63
NtRp2289
(dp2290
g66
(dp2291
sg75
g2285
sg68
(lp2292
g61
(g62
g63
NtRp2293
(dp2294
g66
(dp2295
g74
I3
ssg75
g2289
sg68
(lp2296
g1362
asbasbasbasbasbasbasbag61
(g77
g63
NtRp2297
(dp2298
g66
(dp2299
sg75
g2022
sg68
(lp2300
g61
(g82
g63
NtRp2301
(dp2302
g66
(dp2303
g86
g87
ssg75
g2297
sg68
(lp2304
g1630
asbag61
(g82
g63
NtRp2305
(dp2306
g66
(dp2307
g93
g94
ssg75
g2297
sg68
(lp2308
S':'
asbag61
(g82
g63
NtRp2309
(dp2310
g66
(dp2311
sg75
g2297
sg68
(lp2312
g61
(g62
g63
NtRp2313
(dp2314
g66
(dp2315
g74
I4
ssg75
g2309
sg68
(lp2316
g61
(g70
g63
NtRp2317
(dp2318
g66
(dp2319
g74
I3
ssg75
Nsg68
(lp2320
g61
(g77
g63
NtRp2321
(dp2322
g66
(dp2323
sg75
g2317
sg68
(lp2324
g61
(g82
g63
NtRp2325
(dp2326
g66
(dp2327
sg75
g2321
sg68
(lp2328
g61
(g62
g63
NtRp2329
(dp2330
g66
(dp2331
g74
I3
ssg75
g2325
sg68
(lp2332
S'2'
asbasbasbag61
(g77
g63
NtRp2333
(dp2334
g66
(dp2335
sg75
g2317
sg68
(lp2336
g61
(g82
g63
NtRp2337
(dp2338
g66
(dp2339
sg75
g2333
sg68
(lp2340
g61
(g62
g63
NtRp2341
(dp2342
g66
(dp2343
g74
I3
ssg75
g2337
sg68
(lp2344
S'3'
asbasbasbag61
(g77
g63
NtRp2345
(dp2346
g66
(dp2347
sg75
g2317
sg68
(lp2348
g61
(g82
g63
NtRp2349
(dp2350
g66
(dp2351
sg75
g2345
sg68
(lp2352
g61
(g62
g63
NtRp2353
(dp2354
g66
(dp2355
g74
I3
ssg75
g2349
sg68
(lp2356
S'2'
asbasbasbag61
(g77
g63
NtRp2357
(dp2358
g66
(dp2359
sg75
g2317
sg68
(lp2360
g61
(g82
g63
NtRp2361
(dp2362
g66
(dp2363
sg75
g2357
sg68
(lp2364
g61
(g62
g63
NtRp2365
(dp2366
g66
(dp2367
g74
I3
ssg75
g2361
sg68
(lp2368
S'datetime.datetime(2012, 12, 17, 15, 3, 30)'
p2369
asbasbasbag61
(g77
g63
NtRp2370
(dp2371
g66
(dp2372
sg75
g2317
sg68
(lp2373
g61
(g82
g63
NtRp2374
(dp2375
g66
(dp2376
sg75
g2370
sg68
(lp2377
g61
(g62
g63
NtRp2378
(dp2379
g66
(dp2380
g74
I3
ssg75
g2374
sg68
(lp2381
g1708
asbasbasbasbasbasbasbasbasbasbasbag61
(g77
g63
NtRp2382
(dp2383
g66
(dp2384
sg75
g71
sg68
(lp2385
g61
(g82
g63
NtRp2386
(dp2387
g66
(dp2388
g86
g87
ssg75
g2382
sg68
(lp2389
S'is_https'
p2390
asbag61
(g82
g63
NtRp2391
(dp2392
g66
(dp2393
g93
g94
ssg75
g2382
sg68
(lp2394
S':'
asbag61
(g82
g63
NtRp2395
(dp2396
g66
(dp2397
sg75
g2382
sg68
(lp2398
g61
(g62
g63
NtRp2399
(dp2400
g66
(dp2401
g74
I5
ssg75
g2395
sg68
(lp2402
g104
asbasbasbag61
(g77
g63
NtRp2403
(dp2404
g66
(dp2405
sg75
g71
sg68
(lp2406
g61
(g82
g63
NtRp2407
(dp2408
g66
(dp2409
g86
g87
ssg75
g2403
sg68
(lp2410
S'is_local'
p2411
asbag61
(g82
g63
NtRp2412
(dp2413
g66
(dp2414
g93
g94
ssg75
g2403
sg68
(lp2415
S':'
asbag61
(g82
g63
NtRp2416
(dp2417
g66
(dp2418
sg75
g2403
sg68
(lp2419
g61
(g62
g63
NtRp2420
(dp2421
g66
(dp2422
g74
I5
ssg75
g2416
sg68
(lp2423
g1817
asbasbasbag61
(g77
g63
NtRp2424
(dp2425
g66
(dp2426
sg75
g71
sg68
(lp2427
g61
(g82
g63
NtRp2428
(dp2429
g66
(dp2430
g86
g87
ssg75
g2424
sg68
(lp2431
S'is_restful'
p2432
asbag61
(g82
g63
NtRp2433
(dp2434
g66
(dp2435
g93
g94
ssg75
g2424
sg68
(lp2436
S':'
asbag61
(g82
g63
NtRp2437
(dp2438
g66
(dp2439
sg75
g2424
sg68
(lp2440
g61
(g62
g63
NtRp2441
(dp2442
g66
(dp2443
g74
I5
ssg75
g2437
sg68
(lp2444
g104
asbasbasbag61
(g77
g63
NtRp2445
(dp2446
g66
(dp2447
sg75
g71
sg68
(lp2448
g61
(g82
g63
NtRp2449
(dp2450
g66
(dp2451
g86
g87
ssg75
g2445
sg68
(lp2452
S'now'
p2453
asbag61
(g82
g63
NtRp2454
(dp2455
g66
(dp2456
g93
g94
ssg75
g2445
sg68
(lp2457
S':'
asbag61
(g82
g63
NtRp2458
(dp2459
g66
(dp2460
sg75
g2445
sg68
(lp2461
g61
(g62
g63
NtRp2462
(dp2463
g66
(dp2464
g74
I5
ssg75
g2458
sg68
(lp2465
S'datetime.datetime(2013, 2, 7, 9, 20, 37, 317855)'
p2466
asbasbasbag61
(g77
g63
NtRp2467
(dp2468
g66
(dp2469
sg75
g71
sg68
(lp2470
g61
(g82
g63
NtRp2471
(dp2472
g66
(dp2473
g86
g87
ssg75
g2467
sg68
(lp2474
S'post_vars'
p2475
asbag61
(g82
g63
NtRp2476
(dp2477
g66
(dp2478
g93
g94
ssg75
g2467
sg68
(lp2479
S':'
asbag61
(g82
g63
NtRp2480
(dp2481
g66
(dp2482
sg75
g2467
sg68
(lp2483
g61
(g62
g63
NtRp2484
(dp2485
g66
(dp2486
g74
I5
ssg75
g2480
sg68
(lp2487
g61
(g70
g63
NtRp2488
(dp2489
g66
(dp2490
g74
I4
ssg75
Nsg68
(lp2491
sbasbasbasbag61
(g77
g63
NtRp2492
(dp2493
g66
(dp2494
sg75
g71
sg68
(lp2495
g61
(g82
g63
NtRp2496
(dp2497
g66
(dp2498
g86
g87
ssg75
g2492
sg68
(lp2499
S'raw_args'
p2500
asbag61
(g82
g63
NtRp2501
(dp2502
g66
(dp2503
g93
g94
ssg75
g2492
sg68
(lp2504
S':'
asbag61
(g82
g63
NtRp2505
(dp2506
g66
(dp2507
sg75
g2492
sg68
(lp2508
g61
(g62
g63
NtRp2509
(dp2510
g66
(dp2511
g74
I5
ssg75
g2505
sg68
(lp2512
S''
asbasbasbag61
(g77
g63
NtRp2513
(dp2514
g66
(dp2515
sg75
g71
sg68
(lp2516
g61
(g82
g63
NtRp2517
(dp2518
g66
(dp2519
g86
g87
ssg75
g2513
sg68
(lp2520
S'raw_extension'
p2521
asbag61
(g82
g63
NtRp2522
(dp2523
g66
(dp2524
g93
g94
ssg75
g2513
sg68
(lp2525
S':'
asbag61
(g82
g63
NtRp2526
(dp2527
g66
(dp2528
sg75
g2513
sg68
(lp2529
g61
(g62
g63
NtRp2530
(dp2531
g66
(dp2532
g74
I5
ssg75
g2526
sg68
(lp2533
S'None'
p2534
asbasbasbag61
(g77
g63
NtRp2535
(dp2536
g66
(dp2537
sg75
g71
sg68
(lp2538
g61
(g82
g63
NtRp2539
(dp2540
g66
(dp2541
g86
g87
ssg75
g2535
sg68
(lp2542
S'url'
p2543
asbag61
(g82
g63
NtRp2544
(dp2545
g66
(dp2546
g93
g94
ssg75
g2535
sg68
(lp2547
S':'
asbag61
(g82
g63
NtRp2548
(dp2549
g66
(dp2550
sg75
g2535
sg68
(lp2551
g61
(g62
g63
NtRp2552
(dp2553
g66
(dp2554
g74
I5
ssg75
g2548
sg68
(lp2555
g1384
asbasbasbag61
(g77
g63
NtRp2556
(dp2557
g66
(dp2558
sg75
g71
sg68
(lp2559
g61
(g82
g63
NtRp2560
(dp2561
g66
(dp2562
g86
g87
ssg75
g2556
sg68
(lp2563
S'utcnow'
p2564
asbag61
(g82
g63
NtRp2565
(dp2566
g66
(dp2567
g93
g94
ssg75
g2556
sg68
(lp2568
S':'
asbag61
(g82
g63
NtRp2569
(dp2570
g66
(dp2571
sg75
g2556
sg68
(lp2572
g61
(g62
g63
NtRp2573
(dp2574
g66
(dp2575
g74
I5
ssg75
g2569
sg68
(lp2576
S'datetime.datetime(2013, 2, 7, 11, 20, 37, 317871)'
p2577
asbasbasbag61
(g77
g63
NtRp2578
(dp2579
g66
(dp2580
sg75
g71
sg68
(lp2581
g61
(g82
g63
NtRp2582
(dp2583
g66
(dp2584
g86
g87
ssg75
g2578
sg68
(lp2585
S'uuid'
p2586
asbag61
(g82
g63
NtRp2587
(dp2588
g66
(dp2589
g93
g94
ssg75
g2578
sg68
(lp2590
S':'
asbag61
(g82
g63
NtRp2591
(dp2592
g66
(dp2593
sg75
g2578
sg68
(lp2594
g61
(g62
g63
NtRp2595
(dp2596
g66
(dp2597
g74
I5
ssg75
g2591
sg68
(lp2598
S'eureciclo_project/127.0.0.1.2013-02-07.09-20-37.37e8e237-e4e5-4ff6-bc90-7ece80419a4f'
p2599
asbasbasbag61
(g77
g63
NtRp2600
(dp2601
g66
(dp2602
sg75
g71
sg68
(lp2603
g61
(g82
g63
NtRp2604
(dp2605
g66
(dp2606
g86
g87
ssg75
g2600
sg68
(lp2607
S'vars'
p2608
asbag61
(g82
g63
NtRp2609
(dp2610
g66
(dp2611
g93
g94
ssg75
g2600
sg68
(lp2612
S':'
asbag61
(g82
g63
NtRp2613
(dp2614
g66
(dp2615
sg75
g2600
sg68
(lp2616
g61
(g62
g63
NtRp2617
(dp2618
g66
(dp2619
g74
I5
ssg75
g2613
sg68
(lp2620
g61
(g70
g63
NtRp2621
(dp2622
g66
(dp2623
g74
I4
ssg75
Nsg68
(lp2624
sbasbasbasbag61
(g77
g63
NtRp2625
(dp2626
g66
(dp2627
sg75
g71
sg68
(lp2628
g61
(g82
g63
NtRp2629
(dp2630
g66
(dp2631
g86
g87
ssg75
g2625
sg68
(lp2632
S'wsgi'
p2633
asbag61
(g82
g63
NtRp2634
(dp2635
g66
(dp2636
g93
g94
ssg75
g2625
sg68
(lp2637
S':'
asbag61
(g82
g63
NtRp2638
(dp2639
g66
(dp2640
sg75
g2625
sg68
(lp2641
g61
(g62
g63
NtRp2642
(dp2643
g66
(dp2644
g74
I5
ssg75
g2638
sg68
(lp2645
g61
(g70
g63
NtRp2646
(dp2647
g66
(dp2648
g74
I4
ssg75
Nsg68
(lp2649
g61
(g77
g63
NtRp2650
(dp2651
g66
(dp2652
sg75
g2646
sg68
(lp2653
g61
(g82
g63
NtRp2654
(dp2655
g66
(dp2656
g86
g87
ssg75
g2650
sg68
(lp2657
S'environ'
p2658
asbag61
(g82
g63
NtRp2659
(dp2660
g66
(dp2661
g93
g94
ssg75
g2650
sg68
(lp2662
S':'
asbag61
(g82
g63
NtRp2663
(dp2664
g66
(dp2665
sg75
g2650
sg68
(lp2666
g61
(g62
g63
NtRp2667
(dp2668
g66
(dp2669
g74
I4
ssg75
g2663
sg68
(lp2670
g61
(g70
g63
NtRp2671
(dp2672
g66
(dp2673
g74
I3
ssg75
Nsg68
(lp2674
g61
(g77
g63
NtRp2675
(dp2676
g66
(dp2677
sg75
g2671
sg68
(lp2678
g61
(g82
g63
NtRp2679
(dp2680
g66
(dp2681
g86
g87
ssg75
g2675
sg68
(lp2682
S'HTTP_ACCEPT'
p2683
asbag61
(g82
g63
NtRp2684
(dp2685
g66
(dp2686
g93
g94
ssg75
g2675
sg68
(lp2687
S':'
asbag61
(g82
g63
NtRp2688
(dp2689
g66
(dp2690
sg75
g2675
sg68
(lp2691
g61
(g62
g63
NtRp2692
(dp2693
g66
(dp2694
g74
I3
ssg75
g2688
sg68
(lp2695
g1032
asbasbasbag61
(g77
g63
NtRp2696
(dp2697
g66
(dp2698
sg75
g2671
sg68
(lp2699
g61
(g82
g63
NtRp2700
(dp2701
g66
(dp2702
g86
g87
ssg75
g2696
sg68
(lp2703
S'HTTP_ACCEPT_CHARSET'
p2704
asbag61
(g82
g63
NtRp2705
(dp2706
g66
(dp2707
g93
g94
ssg75
g2696
sg68
(lp2708
S':'
asbag61
(g82
g63
NtRp2709
(dp2710
g66
(dp2711
sg75
g2696
sg68
(lp2712
g61
(g62
g63
NtRp2713
(dp2714
g66
(dp2715
g74
I3
ssg75
g2709
sg68
(lp2716
g1054
asbasbasbag61
(g77
g63
NtRp2717
(dp2718
g66
(dp2719
sg75
g2671
sg68
(lp2720
g61
(g82
g63
NtRp2721
(dp2722
g66
(dp2723
g86
g87
ssg75
g2717
sg68
(lp2724
S'HTTP_ACCEPT_ENCODING'
p2725
asbag61
(g82
g63
NtRp2726
(dp2727
g66
(dp2728
g93
g94
ssg75
g2717
sg68
(lp2729
S':'
asbag61
(g82
g63
NtRp2730
(dp2731
g66
(dp2732
sg75
g2717
sg68
(lp2733
g61
(g62
g63
NtRp2734
(dp2735
g66
(dp2736
g74
I3
ssg75
g2730
sg68
(lp2737
g1076
asbasbasbag61
(g77
g63
NtRp2738
(dp2739
g66
(dp2740
sg75
g2671
sg68
(lp2741
g61
(g82
g63
NtRp2742
(dp2743
g66
(dp2744
g86
g87
ssg75
g2738
sg68
(lp2745
S'HTTP_ACCEPT_LANGUAGE'
p2746
asbag61
(g82
g63
NtRp2747
(dp2748
g66
(dp2749
g93
g94
ssg75
g2738
sg68
(lp2750
S':'
asbag61
(g82
g63
NtRp2751
(dp2752
g66
(dp2753
sg75
g2738
sg68
(lp2754
g61
(g62
g63
NtRp2755
(dp2756
g66
(dp2757
g74
I3
ssg75
g2751
sg68
(lp2758
g1098
asbasbasbag61
(g77
g63
NtRp2759
(dp2760
g66
(dp2761
sg75
g2671
sg68
(lp2762
g61
(g82
g63
NtRp2763
(dp2764
g66
(dp2765
g86
g87
ssg75
g2759
sg68
(lp2766
S'HTTP_CACHE_CONTROL'
p2767
asbag61
(g82
g63
NtRp2768
(dp2769
g66
(dp2770
g93
g94
ssg75
g2759
sg68
(lp2771
S':'
asbag61
(g82
g63
NtRp2772
(dp2773
g66
(dp2774
sg75
g2759
sg68
(lp2775
g61
(g62
g63
NtRp2776
(dp2777
g66
(dp2778
g74
I3
ssg75
g2772
sg68
(lp2779
g1120
asbasbasbag61
(g77
g63
NtRp2780
(dp2781
g66
(dp2782
sg75
g2671
sg68
(lp2783
g61
(g82
g63
NtRp2784
(dp2785
g66
(dp2786
g86
g87
ssg75
g2780
sg68
(lp2787
S'HTTP_CONNECTION'
p2788
asbag61
(g82
g63
NtRp2789
(dp2790
g66
(dp2791
g93
g94
ssg75
g2780
sg68
(lp2792
S':'
asbag61
(g82
g63
NtRp2793
(dp2794
g66
(dp2795
sg75
g2780
sg68
(lp2796
g61
(g62
g63
NtRp2797
(dp2798
g66
(dp2799
g74
I3
ssg75
g2793
sg68
(lp2800
g1142
asbasbasbag61
(g77
g63
NtRp2801
(dp2802
g66
(dp2803
sg75
g2671
sg68
(lp2804
g61
(g82
g63
NtRp2805
(dp2806
g66
(dp2807
g86
g87
ssg75
g2801
sg68
(lp2808
S'HTTP_COOKIE'
p2809
asbag61
(g82
g63
NtRp2810
(dp2811
g66
(dp2812
g93
g94
ssg75
g2801
sg68
(lp2813
S':'
asbag61
(g82
g63
NtRp2814
(dp2815
g66
(dp2816
sg75
g2801
sg68
(lp2817
g61
(g62
g63
NtRp2818
(dp2819
g66
(dp2820
g74
I3
ssg75
g2814
sg68
(lp2821
g1164
asbasbasbag61
(g77
g63
NtRp2822
(dp2823
g66
(dp2824
sg75
g2671
sg68
(lp2825
g61
(g82
g63
NtRp2826
(dp2827
g66
(dp2828
g86
g87
ssg75
g2822
sg68
(lp2829
S'HTTP_HOST'
p2830
asbag61
(g82
g63
NtRp2831
(dp2832
g66
(dp2833
g93
g94
ssg75
g2822
sg68
(lp2834
S':'
asbag61
(g82
g63
NtRp2835
(dp2836
g66
(dp2837
sg75
g2822
sg68
(lp2838
g61
(g62
g63
NtRp2839
(dp2840
g66
(dp2841
g74
I3
ssg75
g2835
sg68
(lp2842
g1186
asbasbasbag61
(g77
g63
NtRp2843
(dp2844
g66
(dp2845
sg75
g2671
sg68
(lp2846
g61
(g82
g63
NtRp2847
(dp2848
g66
(dp2849
g86
g87
ssg75
g2843
sg68
(lp2850
S'HTTP_REFERER'
p2851
asbag61
(g82
g63
NtRp2852
(dp2853
g66
(dp2854
g93
g94
ssg75
g2843
sg68
(lp2855
S':'
asbag61
(g82
g63
NtRp2856
(dp2857
g66
(dp2858
sg75
g2843
sg68
(lp2859
g61
(g62
g63
NtRp2860
(dp2861
g66
(dp2862
g74
I3
ssg75
g2856
sg68
(lp2863
g1208
asbasbasbag61
(g77
g63
NtRp2864
(dp2865
g66
(dp2866
sg75
g2671
sg68
(lp2867
g61
(g82
g63
NtRp2868
(dp2869
g66
(dp2870
g86
g87
ssg75
g2864
sg68
(lp2871
S'HTTP_USER_AGENT'
p2872
asbag61
(g82
g63
NtRp2873
(dp2874
g66
(dp2875
g93
g94
ssg75
g2864
sg68
(lp2876
S':'
asbag61
(g82
g63
NtRp2877
(dp2878
g66
(dp2879
sg75
g2864
sg68
(lp2880
g61
(g62
g63
NtRp2881
(dp2882
g66
(dp2883
g74
I3
ssg75
g2877
sg68
(lp2884
g1230
asbasbasbag61
(g77
g63
NtRp2885
(dp2886
g66
(dp2887
sg75
g2671
sg68
(lp2888
g61
(g82
g63
NtRp2889
(dp2890
g66
(dp2891
g86
g87
ssg75
g2885
sg68
(lp2892
S'PATH_INFO'
p2893
asbag61
(g82
g63
NtRp2894
(dp2895
g66
(dp2896
g93
g94
ssg75
g2885
sg68
(lp2897
S':'
asbag61
(g82
g63
NtRp2898
(dp2899
g66
(dp2900
sg75
g2885
sg68
(lp2901
g61
(g62
g63
NtRp2902
(dp2903
g66
(dp2904
g74
I3
ssg75
g2898
sg68
(lp2905
g1384
asbasbasbag61
(g77
g63
NtRp2906
(dp2907
g66
(dp2908
sg75
g2671
sg68
(lp2909
g61
(g82
g63
NtRp2910
(dp2911
g66
(dp2912
g86
g87
ssg75
g2906
sg68
(lp2913
S'QUERY_STRING'
p2914
asbag61
(g82
g63
NtRp2915
(dp2916
g66
(dp2917
g93
g94
ssg75
g2906
sg68
(lp2918
S':'
asbag61
(g82
g63
NtRp2919
(dp2920
g66
(dp2921
sg75
g2906
sg68
(lp2922
g61
(g62
g63
NtRp2923
(dp2924
g66
(dp2925
g74
I3
ssg75
g2919
sg68
(lp2926
S''
asbasbasbag61
(g77
g63
NtRp2927
(dp2928
g66
(dp2929
sg75
g2671
sg68
(lp2930
g61
(g82
g63
NtRp2931
(dp2932
g66
(dp2933
g86
g87
ssg75
g2927
sg68
(lp2934
S'REMOTE_ADDR'
p2935
asbag61
(g82
g63
NtRp2936
(dp2937
g66
(dp2938
g93
g94
ssg75
g2927
sg68
(lp2939
S':'
asbag61
(g82
g63
NtRp2940
(dp2941
g66
(dp2942
sg75
g2927
sg68
(lp2943
g61
(g62
g63
NtRp2944
(dp2945
g66
(dp2946
g74
I3
ssg75
g2940
sg68
(lp2947
g216
asbasbasbag61
(g77
g63
NtRp2948
(dp2949
g66
(dp2950
sg75
g2671
sg68
(lp2951
g61
(g82
g63
NtRp2952
(dp2953
g66
(dp2954
g86
g87
ssg75
g2948
sg68
(lp2955
S'REMOTE_PORT'
p2956
asbag61
(g82
g63
NtRp2957
(dp2958
g66
(dp2959
g93
g94
ssg75
g2948
sg68
(lp2960
S':'
asbag61
(g82
g63
NtRp2961
(dp2962
g66
(dp2963
sg75
g2948
sg68
(lp2964
g61
(g62
g63
NtRp2965
(dp2966
g66
(dp2967
g74
I3
ssg75
g2961
sg68
(lp2968
g1448
asbasbasbag61
(g77
g63
NtRp2969
(dp2970
g66
(dp2971
sg75
g2671
sg68
(lp2972
g61
(g82
g63
NtRp2973
(dp2974
g66
(dp2975
g86
g87
ssg75
g2969
sg68
(lp2976
S'REQUEST_METHOD'
p2977
asbag61
(g82
g63
NtRp2978
(dp2979
g66
(dp2980
g93
g94
ssg75
g2969
sg68
(lp2981
S':'
asbag61
(g82
g63
NtRp2982
(dp2983
g66
(dp2984
sg75
g2969
sg68
(lp2985
g61
(g62
g63
NtRp2986
(dp2987
g66
(dp2988
g74
I3
ssg75
g2982
sg68
(lp2989
g1470
asbasbasbag61
(g77
g63
NtRp2990
(dp2991
g66
(dp2992
sg75
g2671
sg68
(lp2993
g61
(g82
g63
NtRp2994
(dp2995
g66
(dp2996
g86
g87
ssg75
g2990
sg68
(lp2997
S'REQUEST_URI'
p2998
asbag61
(g82
g63
NtRp2999
(dp3000
g66
(dp3001
g93
g94
ssg75
g2990
sg68
(lp3002
S':'
asbag61
(g82
g63
NtRp3003
(dp3004
g66
(dp3005
sg75
g2990
sg68
(lp3006
g61
(g62
g63
NtRp3007
(dp3008
g66
(dp3009
g74
I3
ssg75
g3003
sg68
(lp3010
g1384
asbasbasbag61
(g77
g63
NtRp3011
(dp3012
g66
(dp3013
sg75
g2671
sg68
(lp3014
g61
(g82
g63
NtRp3015
(dp3016
g66
(dp3017
g86
g87
ssg75
g3011
sg68
(lp3018
S'SCRIPT_NAME'
p3019
asbag61
(g82
g63
NtRp3020
(dp3021
g66
(dp3022
g93
g94
ssg75
g3011
sg68
(lp3023
S':'
asbag61
(g82
g63
NtRp3024
(dp3025
g66
(dp3026
sg75
g3011
sg68
(lp3027
g61
(g62
g63
NtRp3028
(dp3029
g66
(dp3030
g74
I3
ssg75
g3024
sg68
(lp3031
S''
asbasbasbag61
(g77
g63
NtRp3032
(dp3033
g66
(dp3034
sg75
g2671
sg68
(lp3035
g61
(g82
g63
NtRp3036
(dp3037
g66
(dp3038
g86
g87
ssg75
g3032
sg68
(lp3039
S'SERVER_NAME'
p3040
asbag61
(g82
g63
NtRp3041
(dp3042
g66
(dp3043
g93
g94
ssg75
g3032
sg68
(lp3044
S':'
asbag61
(g82
g63
NtRp3045
(dp3046
g66
(dp3047
sg75
g3032
sg68
(lp3048
g61
(g62
g63
NtRp3049
(dp3050
g66
(dp3051
g74
I3
ssg75
g3045
sg68
(lp3052
g1534
asbasbasbag61
(g77
g63
NtRp3053
(dp3054
g66
(dp3055
sg75
g2671
sg68
(lp3056
g61
(g82
g63
NtRp3057
(dp3058
g66
(dp3059
g86
g87
ssg75
g3053
sg68
(lp3060
S'SERVER_PORT'
p3061
asbag61
(g82
g63
NtRp3062
(dp3063
g66
(dp3064
g93
g94
ssg75
g3053
sg68
(lp3065
S':'
asbag61
(g82
g63
NtRp3066
(dp3067
g66
(dp3068
sg75
g3053
sg68
(lp3069
g61
(g62
g63
NtRp3070
(dp3071
g66
(dp3072
g74
I3
ssg75
g3066
sg68
(lp3073
g1556
asbasbasbag61
(g77
g63
NtRp3074
(dp3075
g66
(dp3076
sg75
g2671
sg68
(lp3077
g61
(g82
g63
NtRp3078
(dp3079
g66
(dp3080
g86
g87
ssg75
g3074
sg68
(lp3081
S'SERVER_PROTOCOL'
p3082
asbag61
(g82
g63
NtRp3083
(dp3084
g66
(dp3085
g93
g94
ssg75
g3074
sg68
(lp3086
S':'
asbag61
(g82
g63
NtRp3087
(dp3088
g66
(dp3089
sg75
g3074
sg68
(lp3090
g61
(g62
g63
NtRp3091
(dp3092
g66
(dp3093
g74
I3
ssg75
g3087
sg68
(lp3094
g1578
asbasbasbag61
(g77
g63
NtRp3095
(dp3096
g66
(dp3097
sg75
g2671
sg68
(lp3098
g61
(g82
g63
NtRp3099
(dp3100
g66
(dp3101
g86
g87
ssg75
g3095
sg68
(lp3102
S'SERVER_SOFTWARE'
p3103
asbag61
(g82
g63
NtRp3104
(dp3105
g66
(dp3106
g93
g94
ssg75
g3095
sg68
(lp3107
S':'
asbag61
(g82
g63
NtRp3108
(dp3109
g66
(dp3110
sg75
g3095
sg68
(lp3111
g61
(g62
g63
NtRp3112
(dp3113
g66
(dp3114
g74
I3
ssg75
g3108
sg68
(lp3115
g1600
asbasbasbag61
(g77
g63
NtRp3116
(dp3117
g66
(dp3118
sg75
g2671
sg68
(lp3119
g61
(g82
g63
NtRp3120
(dp3121
g66
(dp3122
g86
g87
ssg75
g3116
sg68
(lp3123
S'wsgi.errors'
p3124
asbag61
(g82
g63
NtRp3125
(dp3126
g66
(dp3127
g93
g94
ssg75
g3116
sg68
(lp3128
S':'
asbag61
(g82
g63
NtRp3129
(dp3130
g66
(dp3131
sg75
g3116
sg68
(lp3132
g61
(g62
g63
NtRp3133
(dp3134
g66
(dp3135
g74
I3
ssg75
g3129
sg68
(lp3136
S"<open file '<stderr>', mode 'w' at 0x7fb823427270>"
p3137
asbasbasbag61
(g77
g63
NtRp3138
(dp3139
g66
(dp3140
sg75
g2671
sg68
(lp3141
g61
(g82
g63
NtRp3142
(dp3143
g66
(dp3144
g86
g87
ssg75
g3138
sg68
(lp3145
S'wsgi.file_wrapper'
p3146
asbag61
(g82
g63
NtRp3147
(dp3148
g66
(dp3149
g93
g94
ssg75
g3138
sg68
(lp3150
S':'
asbag61
(g82
g63
NtRp3151
(dp3152
g66
(dp3153
sg75
g3138
sg68
(lp3154
g61
(g62
g63
NtRp3155
(dp3156
g66
(dp3157
g74
I3
ssg75
g3151
sg68
(lp3158
S'<class wsgiref.util.FileWrapper at 0x3019738>'
p3159
asbasbasbag61
(g77
g63
NtRp3160
(dp3161
g66
(dp3162
sg75
g2671
sg68
(lp3163
g61
(g82
g63
NtRp3164
(dp3165
g66
(dp3166
g86
g87
ssg75
g3160
sg68
(lp3167
S'wsgi.input'
p3168
asbag61
(g82
g63
NtRp3169
(dp3170
g66
(dp3171
g93
g94
ssg75
g3160
sg68
(lp3172
S':'
asbag61
(g82
g63
NtRp3173
(dp3174
g66
(dp3175
sg75
g3160
sg68
(lp3176
g61
(g62
g63
NtRp3177
(dp3178
g66
(dp3179
g74
I3
ssg75
g3173
sg68
(lp3180
S'<cStringIO.StringO object at 0x7fb7f8a3a848>'
p3181
asbasbasbag61
(g77
g63
NtRp3182
(dp3183
g66
(dp3184
sg75
g2671
sg68
(lp3185
g61
(g82
g63
NtRp3186
(dp3187
g66
(dp3188
g86
g87
ssg75
g3182
sg68
(lp3189
S'wsgi.multiprocess'
p3190
asbag61
(g82
g63
NtRp3191
(dp3192
g66
(dp3193
g93
g94
ssg75
g3182
sg68
(lp3194
S':'
asbag61
(g82
g63
NtRp3195
(dp3196
g66
(dp3197
sg75
g3182
sg68
(lp3198
g61
(g62
g63
NtRp3199
(dp3200
g66
(dp3201
g74
I3
ssg75
g3195
sg68
(lp3202
g104
asbasbasbag61
(g77
g63
NtRp3203
(dp3204
g66
(dp3205
sg75
g2671
sg68
(lp3206
g61
(g82
g63
NtRp3207
(dp3208
g66
(dp3209
g86
g87
ssg75
g3203
sg68
(lp3210
S'wsgi.multithread'
p3211
asbag61
(g82
g63
NtRp3212
(dp3213
g66
(dp3214
g93
g94
ssg75
g3203
sg68
(lp3215
S':'
asbag61
(g82
g63
NtRp3216
(dp3217
g66
(dp3218
sg75
g3203
sg68
(lp3219
g61
(g62
g63
NtRp3220
(dp3221
g66
(dp3222
g74
I3
ssg75
g3216
sg68
(lp3223
g1817
asbasbasbag61
(g77
g63
NtRp3224
(dp3225
g66
(dp3226
sg75
g2671
sg68
(lp3227
g61
(g82
g63
NtRp3228
(dp3229
g66
(dp3230
g86
g87
ssg75
g3224
sg68
(lp3231
S'wsgi.run_once'
p3232
asbag61
(g82
g63
NtRp3233
(dp3234
g66
(dp3235
g93
g94
ssg75
g3224
sg68
(lp3236
S':'
asbag61
(g82
g63
NtRp3237
(dp3238
g66
(dp3239
sg75
g3224
sg68
(lp3240
g61
(g62
g63
NtRp3241
(dp3242
g66
(dp3243
g74
I3
ssg75
g3237
sg68
(lp3244
g104
asbasbasbag61
(g77
g63
NtRp3245
(dp3246
g66
(dp3247
sg75
g2671
sg68
(lp3248
g61
(g82
g63
NtRp3249
(dp3250
g66
(dp3251
g86
g87
ssg75
g3245
sg68
(lp3252
S'wsgi.url_scheme'
p3253
asbag61
(g82
g63
NtRp3254
(dp3255
g66
(dp3256
g93
g94
ssg75
g3245
sg68
(lp3257
S':'
asbag61
(g82
g63
NtRp3258
(dp3259
g66
(dp3260
sg75
g3245
sg68
(lp3261
g61
(g62
g63
NtRp3262
(dp3263
g66
(dp3264
g74
I3
ssg75
g3258
sg68
(lp3265
g1860
asbasbasbag61
(g77
g63
NtRp3266
(dp3267
g66
(dp3268
sg75
g2671
sg68
(lp3269
g61
(g82
g63
NtRp3270
(dp3271
g66
(dp3272
g86
g87
ssg75
g3266
sg68
(lp3273
S'wsgi.version'
p3274
asbag61
(g82
g63
NtRp3275
(dp3276
g66
(dp3277
g93
g94
ssg75
g3266
sg68
(lp3278
S':'
asbag61
(g82
g63
NtRp3279
(dp3280
g66
(dp3281
sg75
g3266
sg68
(lp3282
g61
(g62
g63
NtRp3283
(dp3284
g66
(dp3285
g74
I3
ssg75
g3279
sg68
(lp3286
S'1'
asbasbasbasbasbasbasbasbasbasbasbasbasbsS'frames'
p3287
(lp3288
(dp3289
S'file'
p3290
S'/home/diego/web2py/gluon/restricted.py'
p3291
sS'dump'
p3292
(dp3293
S'environment'
p3294
S"{'A': <class 'gluon.html.A'>, 'Auth': <class 'gluon.tools.Auth'>, 'B': <class 'gluon.html.B'>, 'BEAUTIFY': <class 'gluon.html.BEAUTIFY'>, 'BODY': <class 'gluon.html.BODY'>, 'BR': <class 'gluon.html.BR'>, 'BUTTON': <class 'gluon.html.BUTTON'>, 'CAT': <class 'gluon.html.CAT'>, 'CENTER': <class 'gluon.html.CENTER'>, 'CLEANUP': <class 'gluon.validators.CLEANUP'>, ...}"
p3295
sS'ccode'
p3296
S'<code object <module> at 0x7fb7f89fabb0, file "/...ations/eureciclo_project/models/3_db.py", line 2>'
p3297
ssS'lnum'
p3298
I212
sS'lines'
p3299
(dp3300
I207
S'    try:'
p3301
sI208
S'        if isinstance(code, types.CodeType):'
p3302
sI209
S'            ccode = code'
p3303
sI210
S'        else:'
p3304
sI211
S'            ccode = compile2(code, layer)'
p3305
sI212
S'        exec ccode in environment'
p3306
sI213
S'    except HTTP:'
p3307
sI214
S'        raise'
p3308
sI215
S'    except RestrictedError:'
p3309
sI216
S'        # do not encapsulate (obfuscate) the original RestrictedError'
p3310
ssS'call'
p3311
S'(code=\'\\nReciclagem = db.define_table("lixo",\\n\\tField("pa...set, "user_address.id", "%(country)s - %(city)s")\', environment={\'A\': <class \'gluon.html.A\'>, \'Auth\': <class \'gluon.tools.Auth\'>, \'B\': <class \'gluon.html.B\'>, \'BEAUTIFY\': <class \'gluon.html.BEAUTIFY\'>, \'BODY\': <class \'gluon.html.BODY\'>, \'BR\': <class \'gluon.html.BR\'>, \'BUTTON\': <class \'gluon.html.BUTTON\'>, \'CAT\': <class \'gluon.html.CAT\'>, \'CENTER\': <class \'gluon.html.CENTER\'>, \'CLEANUP\': <class \'gluon.validators.CLEANUP\'>, ...}, layer=\'/home/diego/web2py/applications/eureciclo_project/models/3_db.py\')'
p3312
sS'func'
p3313
S'restricted'
p3314
sa(dp3315
g3290
S'/home/diego/web2py/applications/eureciclo_project/models/3_db.py'
p3316
sg3292
(dp3317
S'Field'
p3318
S"<class 'gluon.dal.Field'>"
p3319
ssg3298
I6
sg3299
(dp3320
I2
S'Reciclagem = db.define_table("lixo",'
p3321
sI3
S'\tField("papel"),'
p3322
sI4
S'\tField("metal"),'
p3323
sI5
S'\tField("plastico"),'
p3324
sI6
S'\tField("vidro"))'
p3325
sI7
S''
sI8
S'UserAddress = db.define_table("user_address",'
p3326
sI9
S'\tField("user_id", "reference user_id"),'
p3327
sI10
S'\tField("CEP"),'
p3328
sI11
S'\tField("Pais"),'
p3329
ssg3311
S'()'
p3330
sg3313
S'<module>'
p3331
sa(dp3332
g3290
S'/home/diego/web2py/gluon/dal.py'
p3333
sg3292
(dp3334
S'fields'
p3335
S'(<gluon.dal.Field object>, <gluon.dal.Field object>, <gluon.dal.Field object>, <gluon.dal.Field object>)'
p3336
sS'self'
p3337
S'<DAL uri="sqlite://recycle.sqlite">'
p3338
sS'args'
p3339
g21
sS'tablename'
p3340
S"'lixo'"
p3341
sS'table'
p3342
S'undefined'
p3343
sS'self.lazy_define_table'
p3344
S'<bound method DAL.lazy_define_table of <DAL uri="sqlite://recycle.sqlite">>'
p3345
ssg3298
I7186
sg3299
(dp3346
I7181
S'                    % (tablename,invalid_args))'
p3347
sI7182
S'        if self._lazy_tables and not tablename in self._LAZY_TABLES:'
p3348
sI7183
S'            self._LAZY_TABLES[tablename] = (tablename,fields,args)'
p3349
sI7184
S'            table = None'
p3350
sI7185
S'        else:'
p3351
sI7186
S'            table = self.lazy_define_table(tablename,*fields,**args)'
p3352
sI7187
S'        if not tablename in self.tables:'
p3353
sI7188
S'            self.tables.append(tablename)'
p3354
sI7189
S'        return table'
p3355
sI7190
S''
ssg3311
S'(self=<DAL uri="sqlite://recycle.sqlite">, tablename=\'lixo\', *fields=(<gluon.dal.Field object>, <gluon.dal.Field object>, <gluon.dal.Field object>, <gluon.dal.Field object>), **args={})'
p3356
sg3313
S'define_table'
p3357
sa(dp3358
g3290
S'/home/diego/web2py/gluon/dal.py'
p3359
sg3292
(dp3360
S'polymodel'
p3361
S'None'
p3362
ssg3298
I7222
sg3299
(dp3363
I7217
S"            polymodel = args_get('polymodel',None)"
p3364
sI7218
S'            try:'
p3365
sI7219
S'                GLOBAL_LOCKER.acquire()'
p3366
sI7220
S'                self._adapter.create_table(table,migrate=migrate,'
p3367
sI7221
S'                                           fake_migrate=fake_migrate,'
p3368
sI7222
S'                                           polymodel=polymodel)'
p3369
sI7223
S'            finally:'
p3370
sI7224
S'                GLOBAL_LOCKER.release()'
p3371
sI7225
S'        else:'
p3372
sI7226
S'            table._dbt = None'
p3373
ssg3311
S'(self=<DAL uri="sqlite://recycle.sqlite">, tablename=\'lixo\', *fields=(<gluon.dal.Field object>, <gluon.dal.Field object>, <gluon.dal.Field object>, <gluon.dal.Field object>), **args={})'
p3374
sg3313
S'lazy_define_table'
p3375
sa(dp3376
g3290
S'/home/diego/web2py/gluon/dal.py'
p3377
sg3292
(dp3378
S'query'
p3379
S"'CREATE TABLE lixo(\\n    id INTEGER PRIMARY KEY AU...),\\n    plastico CHAR(512),\\n    vidro CHAR(512)\\n);'"
p3380
sS'self'
p3381
S'<gluon.dal.SQLiteAdapter object>'
p3382
sS'table'
p3383
S'<Table lixo (id,papel,metal,plastico,vidro)>'
p3384
sS'self.create_sequence_and_triggers'
p3385
S'<bound method SQLiteAdapter.create_sequence_and_triggers of <gluon.dal.SQLiteAdapter object>>'
p3386
ssg3298
I935
sg3299
(dp3387
I930
S'            if table._dbt:'
p3388
sI931
S"                logfile.write('timestamp: %s\\n'"
p3389
sI932
S'                               % datetime.datetime.today().isoformat())'
p3390
sI933
S"                logfile.write(query + '\\n')"
p3391
sI934
S'            if not fake_migrate:'
p3392
sI935
S'                self.create_sequence_and_triggers(query,table)'
p3393
sI936
S'                table._db.commit()'
p3394
sI937
S'                # Postgres geom fields are added now,'
p3395
sI938
S'                # after the table has been created'
p3396
sI939
S'                for query in postcreation_fields:'
p3397
ssg3311
S'(self=<gluon.dal.SQLiteAdapter object>, table=<Table lixo (id,papel,metal,plastico,vidro)>, migrate=True, fake_migrate=False, polymodel=None)'
p3398
sg3313
S'create_table'
p3399
sa(dp3400
g3290
S'/home/diego/web2py/gluon/dal.py'
p3401
sg3292
(dp3402
S'query'
p3403
S"'CREATE TABLE lixo(\\n    id INTEGER PRIMARY KEY AU...),\\n    plastico CHAR(512),\\n    vidro CHAR(512)\\n);'"
p3404
sS'self'
p3405
S'<gluon.dal.SQLiteAdapter object>'
p3406
sS'self.execute'
p3407
S'<bound method SQLiteAdapter.execute of <gluon.dal.SQLiteAdapter object>>'
p3408
ssg3298
I1694
sg3299
(dp3409
I1696
S'    def log_execute(self, *a, **b):'
p3410
sI1697
S'        if not self.connection: return None'
p3411
sI1698
S'        command = a[0]'
p3412
sI1689
S''
sI1690
S'    def constraint_name(self, table, fieldname):'
p3413
sI1691
S"        return '%s_%s__constraint' % (table,fieldname)"
p3414
sI1692
S''
sI1693
S'    def create_sequence_and_triggers(self, query, table, **args):'
p3415
sI1694
S'        self.execute(query)'
p3416
sI1695
S''
ssg3311
S"(self=<gluon.dal.SQLiteAdapter object>, query='CREATE TABLE lixo(\\n    id INTEGER PRIMARY KEY AU...),\\n    plastico CHAR(512),\\n    vidro CHAR(512)\\n);', table=<Table lixo (id,papel,metal,plastico,vidro)>, **args={})"
p3417
sg3313
S'create_sequence_and_triggers'
p3418
sa(dp3419
g3290
S'/home/diego/web2py/gluon/dal.py'
p3420
sg3292
(dp3421
S'a'
S"('CREATE TABLE lixo(\\n    id INTEGER PRIMARY KEY AU...),\\n    plastico CHAR(512),\\n    vidro CHAR(512)\\n);',)"
p3422
sS'self'
p3423
S'<gluon.dal.SQLiteAdapter object>'
p3424
sS'b'
g21
sS'self.log_execute'
p3425
S'<bound method SQLiteAdapter.log_execute of <gluon.dal.SQLiteAdapter object>>'
p3426
ssg3298
I1709
sg3299
(dp3427
I1704
S'        self.db._timings.append((command,time.time()-t0))'
p3428
sI1705
S'        del self.db._timings[:-TIMINGSSIZE]'
p3429
sI1706
S'        return ret'
p3430
sI1707
S''
sI1708
S'    def execute(self, *a, **b):'
p3431
sI1709
S'        return self.log_execute(*a, **b)'
p3432
sI1710
S''
sI1711
S'    def represent(self, obj, fieldtype):'
p3433
sI1712
S'        field_is_type = fieldtype.startswith'
p3434
sI1713
S'        if isinstance(obj, CALLABLETYPES):'
p3435
ssg3311
S"(self=<gluon.dal.SQLiteAdapter object>, *a=('CREATE TABLE lixo(\\n    id INTEGER PRIMARY KEY AU...),\\n    plastico CHAR(512),\\n    vidro CHAR(512)\\n);',), **b={})"
p3436
sg3313
S'execute'
p3437
sa(dp3438
g3290
S'/home/diego/web2py/gluon/dal.py'
p3439
sg3292
(dp3440
S'a'
S"('CREATE TABLE lixo(\\n    id INTEGER PRIMARY KEY AU...),\\n    plastico CHAR(512),\\n    vidro CHAR(512)\\n);',)"
p3441
sS'b'
g21
sS'self'
p3442
S'<gluon.dal.SQLiteAdapter object>'
p3443
sS'ret'
p3444
g3343
sS'self.cursor'
p3445
S'<sqlite3.Cursor object>'
p3446
sS'self.cursor.execute'
p3447
S'<built-in method execute of sqlite3.Cursor object>'
p3448
ssg3298
I1703
sg3299
(dp3449
I1698
S'        command = a[0]'
p3450
sI1699
S'        if self.db._debug:'
p3451
sI1700
S"            LOGGER.debug('SQL: %s' % command)"
p3452
sI1701
S'        self.db._lastsql = command'
p3453
sI1702
S'        t0 = time.time()'
p3454
sI1703
S'        ret = self.cursor.execute(*a, **b)'
p3455
sI1704
S'        self.db._timings.append((command,time.time()-t0))'
p3456
sI1705
S'        del self.db._timings[:-TIMINGSSIZE]'
p3457
sI1706
S'        return ret'
p3458
sI1707
S''
ssg3311
S"(self=<gluon.dal.SQLiteAdapter object>, *a=('CREATE TABLE lixo(\\n    id INTEGER PRIMARY KEY AU...),\\n    plastico CHAR(512),\\n    vidro CHAR(512)\\n);',), **b={})"
p3459
sg3313
S'log_execute'
p3460
sasS'pyver'
p3461
S'Python 2.7.3: /usr/bin/python'
p3462
sS'session'
p3463
g61
(g62
g63
NtRp3464
(dp3465
g66
(dp3466
sg68
(lp3467
g61
(g70
g63
NtRp3468
(dp3469
g66
(dp3470
g74
I5
ssg75
Nsg68
(lp3471
sbasbsS'etype'
p3472
S"<class 'sqlite3.OperationalError'>"
p3473
sS'date'
p3474
S'Thu Feb  7 09:20:37 2013'
p3475
sS'response'
p3476
g61
(g62
g63
NtRp3477
(dp3478
g66
(dp3479
sg68
(lp3480
g61
(g70
g63
NtRp3481
(dp3482
g66
(dp3483
g74
I5
ssg75
Nsg68
(lp3484
g61
(g77
g63
NtRp3485
(dp3486
g66
(dp3487
sg75
g3481
sg68
(lp3488
g61
(g82
g63
NtRp3489
(dp3490
g66
(dp3491
g86
g87
ssg75
g3485
sg68
(lp3492
g159
asbag61
(g82
g63
NtRp3493
(dp3494
g66
(dp3495
g93
g94
ssg75
g3485
sg68
(lp3496
S':'
asbag61
(g82
g63
NtRp3497
(dp3498
g66
(dp3499
sg75
g3485
sg68
(lp3500
g61
(g62
g63
NtRp3501
(dp3502
g66
(dp3503
g74
I5
ssg75
g3497
sg68
(lp3504
S'<cStringIO.StringO object at 0x7fb7f8a3aea0>'
p3505
asbasbasbag61
(g77
g63
NtRp3506
(dp3507
g66
(dp3508
sg75
g3481
sg68
(lp3509
g61
(g82
g63
NtRp3510
(dp3511
g66
(dp3512
g86
g87
ssg75
g3506
sg68
(lp3513
g247
asbag61
(g82
g63
NtRp3514
(dp3515
g66
(dp3516
g93
g94
ssg75
g3506
sg68
(lp3517
S':'
asbag61
(g82
g63
NtRp3518
(dp3519
g66
(dp3520
sg75
g3506
sg68
(lp3521
g61
(g62
g63
NtRp3522
(dp3523
g66
(dp3524
g74
I5
ssg75
g3518
sg68
(lp3525
g61
(g70
g63
NtRp3526
(dp3527
g66
(dp3528
g74
I4
ssg75
Nsg68
(lp3529
g61
(g77
g63
NtRp3530
(dp3531
g66
(dp3532
sg75
g3526
sg68
(lp3533
g61
(g82
g63
NtRp3534
(dp3535
g66
(dp3536
g86
g87
ssg75
g3530
sg68
(lp3537
S'session_id_eureciclo_project'
p3538
asbag61
(g82
g63
NtRp3539
(dp3540
g66
(dp3541
g93
g94
ssg75
g3530
sg68
(lp3542
S':'
asbag61
(g82
g63
NtRp3543
(dp3544
g66
(dp3545
sg75
g3530
sg68
(lp3546
g61
(g62
g63
NtRp3547
(dp3548
g66
(dp3549
g74
I4
ssg75
g3543
sg68
(lp3550
g479
ag61
(g70
g63
NtRp3551
(dp3552
g66
(dp3553
g74
I3
ssg75
Nsg68
(lp3554
g61
(g77
g63
NtRp3555
(dp3556
g66
(dp3557
sg75
g3551
sg68
(lp3558
g61
(g82
g63
NtRp3559
(dp3560
g66
(dp3561
g86
g87
ssg75
g3555
sg68
(lp3562
g298
asbag61
(g82
g63
NtRp3563
(dp3564
g66
(dp3565
g93
g94
ssg75
g3555
sg68
(lp3566
S':'
asbag61
(g82
g63
NtRp3567
(dp3568
g66
(dp3569
sg75
g3555
sg68
(lp3570
g61
(g62
g63
NtRp3571
(dp3572
g66
(dp3573
g74
I3
ssg75
g3567
sg68
(lp3574
S''
asbasbasbag61
(g77
g63
NtRp3575
(dp3576
g66
(dp3577
sg75
g3551
sg68
(lp3578
g61
(g82
g63
NtRp3579
(dp3580
g66
(dp3581
g86
g87
ssg75
g3575
sg68
(lp3582
g319
asbag61
(g82
g63
NtRp3583
(dp3584
g66
(dp3585
g93
g94
ssg75
g3575
sg68
(lp3586
S':'
asbag61
(g82
g63
NtRp3587
(dp3588
g66
(dp3589
sg75
g3575
sg68
(lp3590
g61
(g62
g63
NtRp3591
(dp3592
g66
(dp3593
g74
I3
ssg75
g3587
sg68
(lp3594
S''
asbasbasbag61
(g77
g63
NtRp3595
(dp3596
g66
(dp3597
sg75
g3551
sg68
(lp3598
g61
(g82
g63
NtRp3599
(dp3600
g66
(dp3601
g86
g87
ssg75
g3595
sg68
(lp3602
g340
asbag61
(g82
g63
NtRp3603
(dp3604
g66
(dp3605
g93
g94
ssg75
g3595
sg68
(lp3606
S':'
asbag61
(g82
g63
NtRp3607
(dp3608
g66
(dp3609
sg75
g3595
sg68
(lp3610
g61
(g62
g63
NtRp3611
(dp3612
g66
(dp3613
g74
I3
ssg75
g3607
sg68
(lp3614
S''
asbasbasbag61
(g77
g63
NtRp3615
(dp3616
g66
(dp3617
sg75
g3551
sg68
(lp3618
g61
(g82
g63
NtRp3619
(dp3620
g66
(dp3621
g86
g87
ssg75
g3615
sg68
(lp3622
g361
asbag61
(g82
g63
NtRp3623
(dp3624
g66
(dp3625
g93
g94
ssg75
g3615
sg68
(lp3626
S':'
asbag61
(g82
g63
NtRp3627
(dp3628
g66
(dp3629
sg75
g3615
sg68
(lp3630
g61
(g62
g63
NtRp3631
(dp3632
g66
(dp3633
g74
I3
ssg75
g3627
sg68
(lp3634
S''
asbasbasbag61
(g77
g63
NtRp3635
(dp3636
g66
(dp3637
sg75
g3551
sg68
(lp3638
g61
(g82
g63
NtRp3639
(dp3640
g66
(dp3641
g86
g87
ssg75
g3635
sg68
(lp3642
g382
asbag61
(g82
g63
NtRp3643
(dp3644
g66
(dp3645
g93
g94
ssg75
g3635
sg68
(lp3646
S':'
asbag61
(g82
g63
NtRp3647
(dp3648
g66
(dp3649
sg75
g3635
sg68
(lp3650
g61
(g62
g63
NtRp3651
(dp3652
g66
(dp3653
g74
I3
ssg75
g3647
sg68
(lp3654
S''
asbasbasbag61
(g77
g63
NtRp3655
(dp3656
g66
(dp3657
sg75
g3551
sg68
(lp3658
g61
(g82
g63
NtRp3659
(dp3660
g66
(dp3661
g86
g87
ssg75
g3655
sg68
(lp3662
g403
asbag61
(g82
g63
NtRp3663
(dp3664
g66
(dp3665
g93
g94
ssg75
g3655
sg68
(lp3666
S':'
asbag61
(g82
g63
NtRp3667
(dp3668
g66
(dp3669
sg75
g3655
sg68
(lp3670
g61
(g62
g63
NtRp3671
(dp3672
g66
(dp3673
g74
I3
ssg75
g3667
sg68
(lp3674
S'/'
asbasbasbag61
(g77
g63
NtRp3675
(dp3676
g66
(dp3677
sg75
g3551
sg68
(lp3678
g61
(g82
g63
NtRp3679
(dp3680
g66
(dp3681
g86
g87
ssg75
g3675
sg68
(lp3682
g424
asbag61
(g82
g63
NtRp3683
(dp3684
g66
(dp3685
g93
g94
ssg75
g3675
sg68
(lp3686
S':'
asbag61
(g82
g63
NtRp3687
(dp3688
g66
(dp3689
sg75
g3675
sg68
(lp3690
g61
(g62
g63
NtRp3691
(dp3692
g66
(dp3693
g74
I3
ssg75
g3687
sg68
(lp3694
S''
asbasbasbag61
(g77
g63
NtRp3695
(dp3696
g66
(dp3697
sg75
g3551
sg68
(lp3698
g61
(g82
g63
NtRp3699
(dp3700
g66
(dp3701
g86
g87
ssg75
g3695
sg68
(lp3702
g445
asbag61
(g82
g63
NtRp3703
(dp3704
g66
(dp3705
g93
g94
ssg75
g3695
sg68
(lp3706
S':'
asbag61
(g82
g63
NtRp3707
(dp3708
g66
(dp3709
sg75
g3695
sg68
(lp3710
g61
(g62
g63
NtRp3711
(dp3712
g66
(dp3713
g74
I3
ssg75
g3707
sg68
(lp3714
S''
asbasbasbasbasbasbasbasbasbasbasbag61
(g77
g63
NtRp3715
(dp3716
g66
(dp3717
sg75
g3481
sg68
(lp3718
g61
(g82
g63
NtRp3719
(dp3720
g66
(dp3721
g86
g87
ssg75
g3715
sg68
(lp3722
S'delimiters'
p3723
asbag61
(g82
g63
NtRp3724
(dp3725
g66
(dp3726
g93
g94
ssg75
g3715
sg68
(lp3727
S':'
asbag61
(g82
g63
NtRp3728
(dp3729
g66
(dp3730
sg75
g3715
sg68
(lp3731
g61
(g62
g63
NtRp3732
(dp3733
g66
(dp3734
g74
I5
ssg75
g3728
sg68
(lp3735
g61
(g70
g63
NtRp3736
(dp3737
g66
(dp3738
g74
I4
ssg75
Nsg68
(lp3739
g61
(g77
g63
NtRp3740
(dp3741
g66
(dp3742
sg75
g3736
sg68
(lp3743
g61
(g82
g63
NtRp3744
(dp3745
g66
(dp3746
sg75
g3740
sg68
(lp3747
g61
(g62
g63
NtRp3748
(dp3749
g66
(dp3750
g74
I4
ssg75
g3744
sg68
(lp3751
S'{{'
p3752
asbasbasbag61
(g77
g63
NtRp3753
(dp3754
g66
(dp3755
sg75
g3736
sg68
(lp3756
g61
(g82
g63
NtRp3757
(dp3758
g66
(dp3759
sg75
g3753
sg68
(lp3760
g61
(g62
g63
NtRp3761
(dp3762
g66
(dp3763
g74
I4
ssg75
g3757
sg68
(lp3764
S'}}'
p3765
asbasbasbasbasbasbasbag61
(g77
g63
NtRp3766
(dp3767
g66
(dp3768
sg75
g3481
sg68
(lp3769
g61
(g82
g63
NtRp3770
(dp3771
g66
(dp3772
g86
g87
ssg75
g3766
sg68
(lp3773
S'files'
p3774
asbag61
(g82
g63
NtRp3775
(dp3776
g66
(dp3777
g93
g94
ssg75
g3766
sg68
(lp3778
S':'
asbag61
(g82
g63
NtRp3779
(dp3780
g66
(dp3781
sg75
g3766
sg68
(lp3782
g61
(g62
g63
NtRp3783
(dp3784
g66
(dp3785
g74
I5
ssg75
g3779
sg68
(lp3786
g61
(g70
g63
NtRp3787
(dp3788
g66
(dp3789
g74
I4
ssg75
Nsg68
(lp3790
sbasbasbasbag61
(g77
g63
NtRp3791
(dp3792
g66
(dp3793
sg75
g3481
sg68
(lp3794
g61
(g82
g63
NtRp3795
(dp3796
g66
(dp3797
g86
g87
ssg75
g3791
sg68
(lp3798
S'flash'
p3799
asbag61
(g82
g63
NtRp3800
(dp3801
g66
(dp3802
g93
g94
ssg75
g3791
sg68
(lp3803
S':'
asbag61
(g82
g63
NtRp3804
(dp3805
g66
(dp3806
sg75
g3791
sg68
(lp3807
g61
(g62
g63
NtRp3808
(dp3809
g66
(dp3810
g74
I5
ssg75
g3804
sg68
(lp3811
S''
asbasbasbag61
(g77
g63
NtRp3812
(dp3813
g66
(dp3814
sg75
g3481
sg68
(lp3815
g61
(g82
g63
NtRp3816
(dp3817
g66
(dp3818
g86
g87
ssg75
g3812
sg68
(lp3819
S'generic_patterns'
p3820
asbag61
(g82
g63
NtRp3821
(dp3822
g66
(dp3823
g93
g94
ssg75
g3812
sg68
(lp3824
S':'
asbag61
(g82
g63
NtRp3825
(dp3826
g66
(dp3827
sg75
g3812
sg68
(lp3828
g61
(g62
g63
NtRp3829
(dp3830
g66
(dp3831
g74
I5
ssg75
g3825
sg68
(lp3832
g61
(g70
g63
NtRp3833
(dp3834
g66
(dp3835
g74
I4
ssg75
Nsg68
(lp3836
g61
(g77
g63
NtRp3837
(dp3838
g66
(dp3839
sg75
g3833
sg68
(lp3840
g61
(g82
g63
NtRp3841
(dp3842
g66
(dp3843
sg75
g3837
sg68
(lp3844
g61
(g62
g63
NtRp3845
(dp3846
g66
(dp3847
g74
I4
ssg75
g3841
sg68
(lp3848
S'*'
asbasbasbasbasbasbasbag61
(g77
g63
NtRp3849
(dp3850
g66
(dp3851
sg75
g3481
sg68
(lp3852
g61
(g82
g63
NtRp3853
(dp3854
g66
(dp3855
g86
g87
ssg75
g3849
sg68
(lp3856
S'headers'
p3857
asbag61
(g82
g63
NtRp3858
(dp3859
g66
(dp3860
g93
g94
ssg75
g3849
sg68
(lp3861
S':'
asbag61
(g82
g63
NtRp3862
(dp3863
g66
(dp3864
sg75
g3849
sg68
(lp3865
g61
(g62
g63
NtRp3866
(dp3867
g66
(dp3868
g74
I5
ssg75
g3862
sg68
(lp3869
g61
(g70
g63
NtRp3870
(dp3871
g66
(dp3872
g74
I4
ssg75
Nsg68
(lp3873
g61
(g77
g63
NtRp3874
(dp3875
g66
(dp3876
sg75
g3870
sg68
(lp3877
g61
(g82
g63
NtRp3878
(dp3879
g66
(dp3880
g86
g87
ssg75
g3874
sg68
(lp3881
S'X-Powered-By'
p3882
asbag61
(g82
g63
NtRp3883
(dp3884
g66
(dp3885
g93
g94
ssg75
g3874
sg68
(lp3886
S':'
asbag61
(g82
g63
NtRp3887
(dp3888
g66
(dp3889
sg75
g3874
sg68
(lp3890
g61
(g62
g63
NtRp3891
(dp3892
g66
(dp3893
g74
I4
ssg75
g3887
sg68
(lp3894
S'web2py'
p3895
asbasbasbasbasbasbasbag61
(g77
g63
NtRp3896
(dp3897
g66
(dp3898
sg75
g3481
sg68
(lp3899
g61
(g82
g63
NtRp3900
(dp3901
g66
(dp3902
g86
g87
ssg75
g3896
sg68
(lp3903
S'menu'
p3904
asbag61
(g82
g63
NtRp3905
(dp3906
g66
(dp3907
g93
g94
ssg75
g3896
sg68
(lp3908
S':'
asbag61
(g82
g63
NtRp3909
(dp3910
g66
(dp3911
sg75
g3896
sg68
(lp3912
g61
(g62
g63
NtRp3913
(dp3914
g66
(dp3915
g74
I5
ssg75
g3909
sg68
(lp3916
g61
(g70
g63
NtRp3917
(dp3918
g66
(dp3919
g74
I4
ssg75
Nsg68
(lp3920
sbasbasbasbag61
(g77
g63
NtRp3921
(dp3922
g66
(dp3923
sg75
g3481
sg68
(lp3924
g61
(g82
g63
NtRp3925
(dp3926
g66
(dp3927
g86
g87
ssg75
g3921
sg68
(lp3928
S'meta'
p3929
asbag61
(g82
g63
NtRp3930
(dp3931
g66
(dp3932
g93
g94
ssg75
g3921
sg68
(lp3933
S':'
asbag61
(g82
g63
NtRp3934
(dp3935
g66
(dp3936
sg75
g3921
sg68
(lp3937
g61
(g62
g63
NtRp3938
(dp3939
g66
(dp3940
g74
I5
ssg75
g3934
sg68
(lp3941
g61
(g70
g63
NtRp3942
(dp3943
g66
(dp3944
g74
I4
ssg75
Nsg68
(lp3945
g61
(g77
g63
NtRp3946
(dp3947
g66
(dp3948
sg75
g3942
sg68
(lp3949
g61
(g82
g63
NtRp3950
(dp3951
g66
(dp3952
g86
g87
ssg75
g3946
sg68
(lp3953
S'author'
p3954
asbag61
(g82
g63
NtRp3955
(dp3956
g66
(dp3957
g93
g94
ssg75
g3946
sg68
(lp3958
S':'
asbag61
(g82
g63
NtRp3959
(dp3960
g66
(dp3961
sg75
g3946
sg68
(lp3962
g61
(g62
g63
NtRp3963
(dp3964
g66
(dp3965
g74
I4
ssg75
g3959
sg68
(lp3966
S'Diego Miranda'
p3967
asbasbasbag61
(g77
g63
NtRp3968
(dp3969
g66
(dp3970
sg75
g3942
sg68
(lp3971
g61
(g82
g63
NtRp3972
(dp3973
g66
(dp3974
g86
g87
ssg75
g3968
sg68
(lp3975
S'copyright'
p3976
asbag61
(g82
g63
NtRp3977
(dp3978
g66
(dp3979
g93
g94
ssg75
g3968
sg68
(lp3980
S':'
asbag61
(g82
g63
NtRp3981
(dp3982
g66
(dp3983
sg75
g3968
sg68
(lp3984
g61
(g62
g63
NtRp3985
(dp3986
g66
(dp3987
g74
I4
ssg75
g3981
sg68
(lp3988
S'DSMTech Copyright 2012'
p3989
asbasbasbag61
(g77
g63
NtRp3990
(dp3991
g66
(dp3992
sg75
g3942
sg68
(lp3993
g61
(g82
g63
NtRp3994
(dp3995
g66
(dp3996
g86
g87
ssg75
g3990
sg68
(lp3997
S'description'
p3998
asbag61
(g82
g63
NtRp3999
(dp4000
g66
(dp4001
g93
g94
ssg75
g3990
sg68
(lp4002
S':'
asbag61
(g82
g63
NtRp4003
(dp4004
g66
(dp4005
sg75
g3990
sg68
(lp4006
g61
(g62
g63
NtRp4007
(dp4008
g66
(dp4009
g74
I4
ssg75
g4003
sg68
(lp4010
S'App for recycling trash'
p4011
asbasbasbag61
(g77
g63
NtRp4012
(dp4013
g66
(dp4014
sg75
g3942
sg68
(lp4015
g61
(g82
g63
NtRp4016
(dp4017
g66
(dp4018
g86
g87
ssg75
g4012
sg68
(lp4019
S'generator'
p4020
asbag61
(g82
g63
NtRp4021
(dp4022
g66
(dp4023
g93
g94
ssg75
g4012
sg68
(lp4024
S':'
asbag61
(g82
g63
NtRp4025
(dp4026
g66
(dp4027
sg75
g4012
sg68
(lp4028
g61
(g62
g63
NtRp4029
(dp4030
g66
(dp4031
g74
I4
ssg75
g4025
sg68
(lp4032
S'web2py web framework'
p4033
asbasbasbag61
(g77
g63
NtRp4034
(dp4035
g66
(dp4036
sg75
g3942
sg68
(lp4037
g61
(g82
g63
NtRp4038
(dp4039
g66
(dp4040
g86
g87
ssg75
g4034
sg68
(lp4041
S'keywords'
p4042
asbag61
(g82
g63
NtRp4043
(dp4044
g66
(dp4045
g93
g94
ssg75
g4034
sg68
(lp4046
S':'
asbag61
(g82
g63
NtRp4047
(dp4048
g66
(dp4049
sg75
g4034
sg68
(lp4050
g61
(g62
g63
NtRp4051
(dp4052
g66
(dp4053
g74
I4
ssg75
g4047
sg68
(lp4054
S'web2py, python framework'
p4055
asbasbasbasbasbasbasbag61
(g77
g63
NtRp4056
(dp4057
g66
(dp4058
sg75
g3481
sg68
(lp4059
g61
(g82
g63
NtRp4060
(dp4061
g66
(dp4062
g86
g87
ssg75
g4056
sg68
(lp4063
S'models_to_run'
p4064
asbag61
(g82
g63
NtRp4065
(dp4066
g66
(dp4067
g93
g94
ssg75
g4056
sg68
(lp4068
S':'
asbag61
(g82
g63
NtRp4069
(dp4070
g66
(dp4071
sg75
g4056
sg68
(lp4072
g61
(g62
g63
NtRp4073
(dp4074
g66
(dp4075
g74
I5
ssg75
g4069
sg68
(lp4076
g61
(g70
g63
NtRp4077
(dp4078
g66
(dp4079
g74
I4
ssg75
Nsg68
(lp4080
g61
(g77
g63
NtRp4081
(dp4082
g66
(dp4083
sg75
g4077
sg68
(lp4084
g61
(g82
g63
NtRp4085
(dp4086
g66
(dp4087
sg75
g4081
sg68
(lp4088
g61
(g62
g63
NtRp4089
(dp4090
g66
(dp4091
g74
I4
ssg75
g4085
sg68
(lp4092
S'^\\w+\\.py$'
p4093
asbasbasbag61
(g77
g63
NtRp4094
(dp4095
g66
(dp4096
sg75
g4077
sg68
(lp4097
g61
(g82
g63
NtRp4098
(dp4099
g66
(dp4100
sg75
g4094
sg68
(lp4101
g61
(g62
g63
NtRp4102
(dp4103
g66
(dp4104
g74
I4
ssg75
g4098
sg68
(lp4105
S'^default/\\w+\\.py$'
p4106
asbasbasbag61
(g77
g63
NtRp4107
(dp4108
g66
(dp4109
sg75
g4077
sg68
(lp4110
g61
(g82
g63
NtRp4111
(dp4112
g66
(dp4113
sg75
g4107
sg68
(lp4114
g61
(g62
g63
NtRp4115
(dp4116
g66
(dp4117
g74
I4
ssg75
g4111
sg68
(lp4118
S'^default/home/\\w+\\.py$'
p4119
asbasbasbasbasbasbasbag61
(g77
g63
NtRp4120
(dp4121
g66
(dp4122
sg75
g3481
sg68
(lp4123
g61
(g82
g63
NtRp4124
(dp4125
g66
(dp4126
g86
g87
ssg75
g4120
sg68
(lp4127
S'postprocessing'
p4128
asbag61
(g82
g63
NtRp4129
(dp4130
g66
(dp4131
g93
g94
ssg75
g4120
sg68
(lp4132
S':'
asbag61
(g82
g63
NtRp4133
(dp4134
g66
(dp4135
sg75
g4120
sg68
(lp4136
g61
(g62
g63
NtRp4137
(dp4138
g66
(dp4139
g74
I5
ssg75
g4133
sg68
(lp4140
g61
(g70
g63
NtRp4141
(dp4142
g66
(dp4143
g74
I4
ssg75
Nsg68
(lp4144
sbasbasbasbag61
(g77
g63
NtRp4145
(dp4146
g66
(dp4147
sg75
g3481
sg68
(lp4148
g61
(g82
g63
NtRp4149
(dp4150
g66
(dp4151
g86
g87
ssg75
g4145
sg68
(lp4152
S'session_cookie_expires'
p4153
asbag61
(g82
g63
NtRp4154
(dp4155
g66
(dp4156
g93
g94
ssg75
g4145
sg68
(lp4157
S':'
asbag61
(g82
g63
NtRp4158
(dp4159
g66
(dp4160
sg75
g4145
sg68
(lp4161
g61
(g62
g63
NtRp4162
(dp4163
g66
(dp4164
g74
I5
ssg75
g4158
sg68
(lp4165
S'None'
p4166
asbasbasbag61
(g77
g63
NtRp4167
(dp4168
g66
(dp4169
sg75
g3481
sg68
(lp4170
g61
(g82
g63
NtRp4171
(dp4172
g66
(dp4173
g86
g87
ssg75
g4167
sg68
(lp4174
S'session_data_name'
p4175
asbag61
(g82
g63
NtRp4176
(dp4177
g66
(dp4178
g93
g94
ssg75
g4167
sg68
(lp4179
S':'
asbag61
(g82
g63
NtRp4180
(dp4181
g66
(dp4182
sg75
g4167
sg68
(lp4183
g61
(g62
g63
NtRp4184
(dp4185
g66
(dp4186
g74
I5
ssg75
g4180
sg68
(lp4187
S'session_data_eureciclo_project'
p4188
asbasbasbag61
(g77
g63
NtRp4189
(dp4190
g66
(dp4191
sg75
g3481
sg68
(lp4192
g61
(g82
g63
NtRp4193
(dp4194
g66
(dp4195
g86
g87
ssg75
g4189
sg68
(lp4196
S'session_file'
p4197
asbag61
(g82
g63
NtRp4198
(dp4199
g66
(dp4200
g93
g94
ssg75
g4189
sg68
(lp4201
S':'
asbag61
(g82
g63
NtRp4202
(dp4203
g66
(dp4204
sg75
g4189
sg68
(lp4205
g61
(g62
g63
NtRp4206
(dp4207
g66
(dp4208
g74
I5
ssg75
g4202
sg68
(lp4209
S'None'
p4210
asbasbasbag61
(g77
g63
NtRp4211
(dp4212
g66
(dp4213
sg75
g3481
sg68
(lp4214
g61
(g82
g63
NtRp4215
(dp4216
g66
(dp4217
g86
g87
ssg75
g4211
sg68
(lp4218
S'session_filename'
p4219
asbag61
(g82
g63
NtRp4220
(dp4221
g66
(dp4222
g93
g94
ssg75
g4211
sg68
(lp4223
S':'
asbag61
(g82
g63
NtRp4224
(dp4225
g66
(dp4226
sg75
g4211
sg68
(lp4227
g61
(g62
g63
NtRp4228
(dp4229
g66
(dp4230
g74
I5
ssg75
g4224
sg68
(lp4231
S'/home/diego/web2py/applications/eureciclo_project/sessions/127.0.0.1-20321099-aa16-4110-8d79-f471fe216c19'
p4232
asbasbasbag61
(g77
g63
NtRp4233
(dp4234
g66
(dp4235
sg75
g3481
sg68
(lp4236
g61
(g82
g63
NtRp4237
(dp4238
g66
(dp4239
g86
g87
ssg75
g4233
sg68
(lp4240
S'session_id'
p4241
asbag61
(g82
g63
NtRp4242
(dp4243
g66
(dp4244
g93
g94
ssg75
g4233
sg68
(lp4245
S':'
asbag61
(g82
g63
NtRp4246
(dp4247
g66
(dp4248
sg75
g4233
sg68
(lp4249
g61
(g62
g63
NtRp4250
(dp4251
g66
(dp4252
g74
I5
ssg75
g4246
sg68
(lp4253
g479
asbasbasbag61
(g77
g63
NtRp4254
(dp4255
g66
(dp4256
sg75
g3481
sg68
(lp4257
g61
(g82
g63
NtRp4258
(dp4259
g66
(dp4260
g86
g87
ssg75
g4254
sg68
(lp4261
S'session_id_name'
p4262
asbag61
(g82
g63
NtRp4263
(dp4264
g66
(dp4265
g93
g94
ssg75
g4254
sg68
(lp4266
S':'
asbag61
(g82
g63
NtRp4267
(dp4268
g66
(dp4269
sg75
g4254
sg68
(lp4270
g61
(g62
g63
NtRp4271
(dp4272
g66
(dp4273
g74
I5
ssg75
g4267
sg68
(lp4274
g3538
asbasbasbag61
(g77
g63
NtRp4275
(dp4276
g66
(dp4277
sg75
g3481
sg68
(lp4278
g61
(g82
g63
NtRp4279
(dp4280
g66
(dp4281
g86
g87
ssg75
g4275
sg68
(lp4282
S'session_new'
p4283
asbag61
(g82
g63
NtRp4284
(dp4285
g66
(dp4286
g93
g94
ssg75
g4275
sg68
(lp4287
S':'
asbag61
(g82
g63
NtRp4288
(dp4289
g66
(dp4290
sg75
g4275
sg68
(lp4291
g61
(g62
g63
NtRp4292
(dp4293
g66
(dp4294
g74
I5
ssg75
g4288
sg68
(lp4295
g104
asbasbasbag61
(g77
g63
NtRp4296
(dp4297
g66
(dp4298
sg75
g3481
sg68
(lp4299
g61
(g82
g63
NtRp4300
(dp4301
g66
(dp4302
g86
g87
ssg75
g4296
sg68
(lp4303
S'session_storage_type'
p4304
asbag61
(g82
g63
NtRp4305
(dp4306
g66
(dp4307
g93
g94
ssg75
g4296
sg68
(lp4308
S':'
asbag61
(g82
g63
NtRp4309
(dp4310
g66
(dp4311
sg75
g4296
sg68
(lp4312
g61
(g62
g63
NtRp4313
(dp4314
g66
(dp4315
g74
I5
ssg75
g4309
sg68
(lp4316
g3290
asbasbasbag61
(g77
g63
NtRp4317
(dp4318
g66
(dp4319
sg75
g3481
sg68
(lp4320
g61
(g82
g63
NtRp4321
(dp4322
g66
(dp4323
g86
g87
ssg75
g4317
sg68
(lp4324
S'status'
p4325
asbag61
(g82
g63
NtRp4326
(dp4327
g66
(dp4328
g93
g94
ssg75
g4317
sg68
(lp4329
S':'
asbag61
(g82
g63
NtRp4330
(dp4331
g66
(dp4332
sg75
g4317
sg68
(lp4333
g61
(g62
g63
NtRp4334
(dp4335
g66
(dp4336
g74
I5
ssg75
g4330
sg68
(lp4337
S'200'
p4338
asbasbasbag61
(g77
g63
NtRp4339
(dp4340
g66
(dp4341
sg75
g3481
sg68
(lp4342
g61
(g82
g63
NtRp4343
(dp4344
g66
(dp4345
g86
g87
ssg75
g4339
sg68
(lp4346
S'subtitle'
p4347
asbag61
(g82
g63
NtRp4348
(dp4349
g66
(dp4350
g93
g94
ssg75
g4339
sg68
(lp4351
S':'
asbag61
(g82
g63
NtRp4352
(dp4353
g66
(dp4354
sg75
g4339
sg68
(lp4355
g61
(g62
g63
NtRp4356
(dp4357
g66
(dp4358
g74
I5
ssg75
g4352
sg68
(lp4359
cgluon.languages
lazyT_unpickle
p4360
(S't\t\x00\x00\x00EuReciclo'
tRp4361
asbasbasbag61
(g77
g63
NtRp4362
(dp4363
g66
(dp4364
sg75
g3481
sg68
(lp4365
g61
(g82
g63
NtRp4366
(dp4367
g66
(dp4368
g86
g87
ssg75
g4362
sg68
(lp4369
S'title'
p4370
asbag61
(g82
g63
NtRp4371
(dp4372
g66
(dp4373
g93
g94
ssg75
g4362
sg68
(lp4374
S':'
asbag61
(g82
g63
NtRp4375
(dp4376
g66
(dp4377
sg75
g4362
sg68
(lp4378
g61
(g62
g63
NtRp4379
(dp4380
g66
(dp4381
g74
I5
ssg75
g4375
sg68
(lp4382
S'EuReciclo'
p4383
asbasbasbag61
(g77
g63
NtRp4384
(dp4385
g66
(dp4386
sg75
g3481
sg68
(lp4387
g61
(g82
g63
NtRp4388
(dp4389
g66
(dp4390
g86
g87
ssg75
g4384
sg68
(lp4391
S'view'
p4392
asbag61
(g82
g63
NtRp4393
(dp4394
g66
(dp4395
g93
g94
ssg75
g4384
sg68
(lp4396
S':'
asbag61
(g82
g63
NtRp4397
(dp4398
g66
(dp4399
sg75
g4384
sg68
(lp4400
g61
(g62
g63
NtRp4401
(dp4402
g66
(dp4403
g74
I5
ssg75
g4397
sg68
(lp4404
S'default/home.html'
p4405
asbasbasbasbasbsS'locals'
p4406
(dp4407
S'a'
S"('CREATE TABLE lixo(\\n    id INTEGER PRIMARY KEY AU...),\\n    plastico CHAR(512),\\n    vidro CHAR(512)\\n);',)"
p4408
sS'self'
p4409
S'<gluon.dal.SQLiteAdapter object>'
p4410
sS'b'
g21
sS'command'
p4411
S"'CREATE TABLE lixo(\\n    id INTEGER PRIMARY KEY AU...),\\n    plastico CHAR(512),\\n    vidro CHAR(512)\\n);'"
p4412
sS't0'
p4413
S'1360236037.337424'
p4414
sssS'traceback'
p4415
S'Traceback (most recent call last):\n  File "/home/diego/web2py/gluon/restricted.py", line 212, in restricted\n    exec ccode in environment\n  File "/home/diego/web2py/applications/eureciclo_project/models/3_db.py", line 6, in <module>\n    Field("vidro"))\n  File "/home/diego/web2py/gluon/dal.py", line 7186, in define_table\n    table = self.lazy_define_table(tablename,*fields,**args)\n  File "/home/diego/web2py/gluon/dal.py", line 7222, in lazy_define_table\n    polymodel=polymodel)\n  File "/home/diego/web2py/gluon/dal.py", line 935, in create_table\n    self.create_sequence_and_triggers(query,table)\n  File "/home/diego/web2py/gluon/dal.py", line 1694, in create_sequence_and_triggers\n    self.execute(query)\n  File "/home/diego/web2py/gluon/dal.py", line 1709, in execute\n    return self.log_execute(*a, **b)\n  File "/home/diego/web2py/gluon/dal.py", line 1703, in log_execute\n    ret = self.cursor.execute(*a, **b)\nOperationalError: table lixo already exists\n'
p4416
s.