(dp1
S'output'
p2
S"<type 'exceptions.SyntaxError'> invalid syntax (contact.py, line 9)"
p3
sS'layer'
p4
S'/home/diego/web2py/applications/irecycle/controllers/contact.py'
p5
sS'code'
p6
S'def contact():\n\tu_cont = User(a0 or me)\n\tcont = SQLFORM(db.contacts)\n\tif cont.process().accepted:\n\t\tfor name in u_cont:\n\t\t\tif cont.name == name:\n\t\t\t\tc_dastro = T()\n\t\t\tresponse.flash = "Obrigado!"\n\tinput_text = cont.elements(_type="text")[]\n\tinput_text["_required"] = ["required"]\n\treturn dict(cont=cont)\nresponse._vars=response._caller(contact)\n'
p7
sS'snapshot'
p8
(dp9
S'exception'
p10
(dp11
S'__getslice__'
p12
S"<method-wrapper '__getslice__' of exceptions.SyntaxError object>"
p13
sS'text'
p14
S'\'\\tinput_text = cont.elements(_type="text")[]\\n\''
p15
sS'__str__'
p16
S"<method-wrapper '__str__' of exceptions.SyntaxError object>"
p17
sS'__reduce__'
p18
S'<built-in method __reduce__ of exceptions.SyntaxError object>'
p19
sS'__dict__'
p20
S'{}'
p21
sS'__sizeof__'
p22
S'<built-in method __sizeof__ of exceptions.SyntaxError object>'
p23
sS'__init__'
p24
S"<method-wrapper '__init__' of exceptions.SyntaxError object>"
p25
sS'__setattr__'
p26
S"<method-wrapper '__setattr__' of exceptions.SyntaxError object>"
p27
sS'__reduce_ex__'
p28
S'<built-in method __reduce_ex__ of exceptions.SyntaxError object>'
p29
sS'__new__'
p30
S'<built-in method __new__ of type object>'
p31
sS'__format__'
p32
S'<built-in method __format__ of exceptions.SyntaxError object>'
p33
sS'__class__'
p34
S"<type 'exceptions.SyntaxError'>"
p35
sS'filename'
p36
S"'/home/diego/web2py/applications/irecycle/controllers/contact.py'"
p37
sS'lineno'
p38
S'9'
sS'msg'
p39
S"'invalid syntax'"
p40
sS'__doc__'
p41
S"'Invalid syntax.'"
p42
sS'__getitem__'
p43
S"<method-wrapper '__getitem__' of exceptions.SyntaxError object>"
p44
sS'__setstate__'
p45
S'<built-in method __setstate__ of exceptions.SyntaxError object>'
p46
sS'__getattribute__'
p47
S"<method-wrapper '__getattribute__' of exceptions.SyntaxError object>"
p48
sS'print_file_and_line'
p49
S'None'
p50
sS'args'
p51
S'(\'invalid syntax\', (\'/home/diego/web2py/applications/irecycle/controllers/contact.py\', 9, 43, \'\\tinput_text = cont.elements(_type="text")[]\\n\'))'
p52
sS'__subclasshook__'
p53
S'<built-in method __subclasshook__ of type object>'
p54
sS'offset'
p55
S'43'
p56
sS'__unicode__'
p57
S'<built-in method __unicode__ of exceptions.SyntaxError object>'
p58
sS'__delattr__'
p59
S"<method-wrapper '__delattr__' of exceptions.SyntaxError object>"
p60
sS'__repr__'
p61
S"<method-wrapper '__repr__' of exceptions.SyntaxError object>"
p62
sS'__hash__'
p63
S"<method-wrapper '__hash__' of exceptions.SyntaxError object>"
p64
ssS'evalue'
p65
S'invalid syntax (contact.py, line 9)'
p66
sS'request'
p67
ccopy_reg
_reconstructor
p68
(cgluon.html
BEAUTIFY
p69
c__builtin__
object
p70
NtRp71
(dp72
S'attributes'
p73
(dp74
sS'components'
p75
(lp76
g68
(cgluon.html
TABLE
p77
g70
NtRp78
(dp79
g73
(dp80
S'level'
p81
I5
ssS'parent'
p82
Nsg75
(lp83
g68
(cgluon.html
TR
p84
g70
NtRp85
(dp86
g73
(dp87
sg82
g78
sg75
(lp88
g68
(cgluon.html
TD
p89
g70
NtRp90
(dp91
g73
(dp92
S'_style'
p93
S'font-weight:bold;vertical-align:top'
p94
ssg82
g85
sg75
(lp95
S'ajax'
p96
asbag68
(g89
g70
NtRp97
(dp98
g73
(dp99
S'_valign'
p100
S'top'
p101
ssg82
g85
sg75
(lp102
S':'
asbag68
(g89
g70
NtRp103
(dp104
g73
(dp105
sg82
g85
sg75
(lp106
g68
(g69
g70
NtRp107
(dp108
g73
(dp109
g81
I5
ssg82
g103
sg75
(lp110
S'False'
p111
asbasbasbag68
(g84
g70
NtRp112
(dp113
g73
(dp114
sg82
g78
sg75
(lp115
g68
(g89
g70
NtRp116
(dp117
g73
(dp118
g93
g94
ssg82
g112
sg75
(lp119
S'application'
p120
asbag68
(g89
g70
NtRp121
(dp122
g73
(dp123
g100
g101
ssg82
g112
sg75
(lp124
S':'
asbag68
(g89
g70
NtRp125
(dp126
g73
(dp127
sg82
g112
sg75
(lp128
g68
(g69
g70
NtRp129
(dp130
g73
(dp131
g81
I5
ssg82
g125
sg75
(lp132
S'irecycle'
p133
asbasbasbag68
(g84
g70
NtRp134
(dp135
g73
(dp136
sg82
g78
sg75
(lp137
g68
(g89
g70
NtRp138
(dp139
g73
(dp140
g93
g94
ssg82
g134
sg75
(lp141
g51
asbag68
(g89
g70
NtRp142
(dp143
g73
(dp144
g100
g101
ssg82
g134
sg75
(lp145
S':'
asbag68
(g89
g70
NtRp146
(dp147
g73
(dp148
sg82
g134
sg75
(lp149
g68
(g69
g70
NtRp150
(dp151
g73
(dp152
g81
I5
ssg82
g146
sg75
(lp153
g68
(g77
g70
NtRp154
(dp155
g73
(dp156
g81
I4
ssg82
Nsg75
(lp157
sbasbasbasbag68
(g84
g70
NtRp158
(dp159
g73
(dp160
sg82
g78
sg75
(lp161
g68
(g89
g70
NtRp162
(dp163
g73
(dp164
g93
g94
ssg82
g158
sg75
(lp165
S'body'
p166
asbag68
(g89
g70
NtRp167
(dp168
g73
(dp169
g100
g101
ssg82
g158
sg75
(lp170
S':'
asbag68
(g89
g70
NtRp171
(dp172
g73
(dp173
sg82
g158
sg75
(lp174
g68
(g69
g70
NtRp175
(dp176
g73
(dp177
g81
I5
ssg82
g171
sg75
(lp178
S'<cStringIO.StringO object at 0x7f2c203bfdc0>'
p179
asbasbasbag68
(g84
g70
NtRp180
(dp181
g73
(dp182
sg82
g78
sg75
(lp183
g68
(g89
g70
NtRp184
(dp185
g73
(dp186
g93
g94
ssg82
g180
sg75
(lp187
S'cid'
p188
asbag68
(g89
g70
NtRp189
(dp190
g73
(dp191
g100
g101
ssg82
g180
sg75
(lp192
S':'
asbag68
(g89
g70
NtRp193
(dp194
g73
(dp195
sg82
g180
sg75
(lp196
g68
(g69
g70
NtRp197
(dp198
g73
(dp199
g81
I5
ssg82
g193
sg75
(lp200
S'None'
p201
asbasbasbag68
(g84
g70
NtRp202
(dp203
g73
(dp204
sg82
g78
sg75
(lp205
g68
(g89
g70
NtRp206
(dp207
g73
(dp208
g93
g94
ssg82
g202
sg75
(lp209
S'client'
p210
asbag68
(g89
g70
NtRp211
(dp212
g73
(dp213
g100
g101
ssg82
g202
sg75
(lp214
S':'
asbag68
(g89
g70
NtRp215
(dp216
g73
(dp217
sg82
g202
sg75
(lp218
g68
(g69
g70
NtRp219
(dp220
g73
(dp221
g81
I5
ssg82
g215
sg75
(lp222
S'127.0.0.1'
p223
asbasbasbag68
(g84
g70
NtRp224
(dp225
g73
(dp226
sg82
g78
sg75
(lp227
g68
(g89
g70
NtRp228
(dp229
g73
(dp230
g93
g94
ssg82
g224
sg75
(lp231
S'controller'
p232
asbag68
(g89
g70
NtRp233
(dp234
g73
(dp235
g100
g101
ssg82
g224
sg75
(lp236
S':'
asbag68
(g89
g70
NtRp237
(dp238
g73
(dp239
sg82
g224
sg75
(lp240
g68
(g69
g70
NtRp241
(dp242
g73
(dp243
g81
I5
ssg82
g237
sg75
(lp244
S'contact'
p245
asbasbasbag68
(g84
g70
NtRp246
(dp247
g73
(dp248
sg82
g78
sg75
(lp249
g68
(g89
g70
NtRp250
(dp251
g73
(dp252
g93
g94
ssg82
g246
sg75
(lp253
S'cookies'
p254
asbag68
(g89
g70
NtRp255
(dp256
g73
(dp257
g100
g101
ssg82
g246
sg75
(lp258
S':'
asbag68
(g89
g70
NtRp259
(dp260
g73
(dp261
sg82
g246
sg75
(lp262
g68
(g69
g70
NtRp263
(dp264
g73
(dp265
g81
I5
ssg82
g259
sg75
(lp266
g68
(g77
g70
NtRp267
(dp268
g73
(dp269
g81
I4
ssg82
Nsg75
(lp270
g68
(g84
g70
NtRp271
(dp272
g73
(dp273
sg82
g267
sg75
(lp274
g68
(g89
g70
NtRp275
(dp276
g73
(dp277
g93
g94
ssg82
g271
sg75
(lp278
S'session_id_admin'
p279
asbag68
(g89
g70
NtRp280
(dp281
g73
(dp282
g100
g101
ssg82
g271
sg75
(lp283
S':'
asbag68
(g89
g70
NtRp284
(dp285
g73
(dp286
sg82
g271
sg75
(lp287
g68
(g69
g70
NtRp288
(dp289
g73
(dp290
g81
I4
ssg82
g284
sg75
(lp291
S'127.0.0.1-e9b49389-2418-4b45-bd80-845c8869c15c'
p292
ag68
(g77
g70
NtRp293
(dp294
g73
(dp295
g81
I3
ssg82
Nsg75
(lp296
g68
(g84
g70
NtRp297
(dp298
g73
(dp299
sg82
g293
sg75
(lp300
g68
(g89
g70
NtRp301
(dp302
g73
(dp303
g93
g94
ssg82
g297
sg75
(lp304
S'comment'
p305
asbag68
(g89
g70
NtRp306
(dp307
g73
(dp308
g100
g101
ssg82
g297
sg75
(lp309
S':'
asbag68
(g89
g70
NtRp310
(dp311
g73
(dp312
sg82
g297
sg75
(lp313
g68
(g69
g70
NtRp314
(dp315
g73
(dp316
g81
I3
ssg82
g310
sg75
(lp317
S''
asbasbasbag68
(g84
g70
NtRp318
(dp319
g73
(dp320
sg82
g293
sg75
(lp321
g68
(g89
g70
NtRp322
(dp323
g73
(dp324
g93
g94
ssg82
g318
sg75
(lp325
S'domain'
p326
asbag68
(g89
g70
NtRp327
(dp328
g73
(dp329
g100
g101
ssg82
g318
sg75
(lp330
S':'
asbag68
(g89
g70
NtRp331
(dp332
g73
(dp333
sg82
g318
sg75
(lp334
g68
(g69
g70
NtRp335
(dp336
g73
(dp337
g81
I3
ssg82
g331
sg75
(lp338
S''
asbasbasbag68
(g84
g70
NtRp339
(dp340
g73
(dp341
sg82
g293
sg75
(lp342
g68
(g89
g70
NtRp343
(dp344
g73
(dp345
g93
g94
ssg82
g339
sg75
(lp346
S'expires'
p347
asbag68
(g89
g70
NtRp348
(dp349
g73
(dp350
g100
g101
ssg82
g339
sg75
(lp351
S':'
asbag68
(g89
g70
NtRp352
(dp353
g73
(dp354
sg82
g339
sg75
(lp355
g68
(g69
g70
NtRp356
(dp357
g73
(dp358
g81
I3
ssg82
g352
sg75
(lp359
S''
asbasbasbag68
(g84
g70
NtRp360
(dp361
g73
(dp362
sg82
g293
sg75
(lp363
g68
(g89
g70
NtRp364
(dp365
g73
(dp366
g93
g94
ssg82
g360
sg75
(lp367
S'httponly'
p368
asbag68
(g89
g70
NtRp369
(dp370
g73
(dp371
g100
g101
ssg82
g360
sg75
(lp372
S':'
asbag68
(g89
g70
NtRp373
(dp374
g73
(dp375
sg82
g360
sg75
(lp376
g68
(g69
g70
NtRp377
(dp378
g73
(dp379
g81
I3
ssg82
g373
sg75
(lp380
S''
asbasbasbag68
(g84
g70
NtRp381
(dp382
g73
(dp383
sg82
g293
sg75
(lp384
g68
(g89
g70
NtRp385
(dp386
g73
(dp387
g93
g94
ssg82
g381
sg75
(lp388
S'max-age'
p389
asbag68
(g89
g70
NtRp390
(dp391
g73
(dp392
g100
g101
ssg82
g381
sg75
(lp393
S':'
asbag68
(g89
g70
NtRp394
(dp395
g73
(dp396
sg82
g381
sg75
(lp397
g68
(g69
g70
NtRp398
(dp399
g73
(dp400
g81
I3
ssg82
g394
sg75
(lp401
S''
asbasbasbag68
(g84
g70
NtRp402
(dp403
g73
(dp404
sg82
g293
sg75
(lp405
g68
(g89
g70
NtRp406
(dp407
g73
(dp408
g93
g94
ssg82
g402
sg75
(lp409
S'path'
p410
asbag68
(g89
g70
NtRp411
(dp412
g73
(dp413
g100
g101
ssg82
g402
sg75
(lp414
S':'
asbag68
(g89
g70
NtRp415
(dp416
g73
(dp417
sg82
g402
sg75
(lp418
g68
(g69
g70
NtRp419
(dp420
g73
(dp421
g81
I3
ssg82
g415
sg75
(lp422
S''
asbasbasbag68
(g84
g70
NtRp423
(dp424
g73
(dp425
sg82
g293
sg75
(lp426
g68
(g89
g70
NtRp427
(dp428
g73
(dp429
g93
g94
ssg82
g423
sg75
(lp430
S'secure'
p431
asbag68
(g89
g70
NtRp432
(dp433
g73
(dp434
g100
g101
ssg82
g423
sg75
(lp435
S':'
asbag68
(g89
g70
NtRp436
(dp437
g73
(dp438
sg82
g423
sg75
(lp439
g68
(g69
g70
NtRp440
(dp441
g73
(dp442
g81
I3
ssg82
g436
sg75
(lp443
S''
asbasbasbag68
(g84
g70
NtRp444
(dp445
g73
(dp446
sg82
g293
sg75
(lp447
g68
(g89
g70
NtRp448
(dp449
g73
(dp450
g93
g94
ssg82
g444
sg75
(lp451
S'version'
p452
asbag68
(g89
g70
NtRp453
(dp454
g73
(dp455
g100
g101
ssg82
g444
sg75
(lp456
S':'
asbag68
(g89
g70
NtRp457
(dp458
g73
(dp459
sg82
g444
sg75
(lp460
g68
(g69
g70
NtRp461
(dp462
g73
(dp463
g81
I3
ssg82
g457
sg75
(lp464
S''
asbasbasbasbasbasbasbag68
(g84
g70
NtRp465
(dp466
g73
(dp467
sg82
g267
sg75
(lp468
g68
(g89
g70
NtRp469
(dp470
g73
(dp471
g93
g94
ssg82
g465
sg75
(lp472
S'session_id_irecycle'
p473
asbag68
(g89
g70
NtRp474
(dp475
g73
(dp476
g100
g101
ssg82
g465
sg75
(lp477
S':'
asbag68
(g89
g70
NtRp478
(dp479
g73
(dp480
sg82
g465
sg75
(lp481
g68
(g69
g70
NtRp482
(dp483
g73
(dp484
g81
I4
ssg82
g478
sg75
(lp485
S'127.0.0.1-10f67e0b-8b95-4045-9f3c-2e1e4dff1c83'
p486
ag68
(g77
g70
NtRp487
(dp488
g73
(dp489
g81
I3
ssg82
Nsg75
(lp490
g68
(g84
g70
NtRp491
(dp492
g73
(dp493
sg82
g487
sg75
(lp494
g68
(g89
g70
NtRp495
(dp496
g73
(dp497
g93
g94
ssg82
g491
sg75
(lp498
g305
asbag68
(g89
g70
NtRp499
(dp500
g73
(dp501
g100
g101
ssg82
g491
sg75
(lp502
S':'
asbag68
(g89
g70
NtRp503
(dp504
g73
(dp505
sg82
g491
sg75
(lp506
g68
(g69
g70
NtRp507
(dp508
g73
(dp509
g81
I3
ssg82
g503
sg75
(lp510
S''
asbasbasbag68
(g84
g70
NtRp511
(dp512
g73
(dp513
sg82
g487
sg75
(lp514
g68
(g89
g70
NtRp515
(dp516
g73
(dp517
g93
g94
ssg82
g511
sg75
(lp518
g326
asbag68
(g89
g70
NtRp519
(dp520
g73
(dp521
g100
g101
ssg82
g511
sg75
(lp522
S':'
asbag68
(g89
g70
NtRp523
(dp524
g73
(dp525
sg82
g511
sg75
(lp526
g68
(g69
g70
NtRp527
(dp528
g73
(dp529
g81
I3
ssg82
g523
sg75
(lp530
S''
asbasbasbag68
(g84
g70
NtRp531
(dp532
g73
(dp533
sg82
g487
sg75
(lp534
g68
(g89
g70
NtRp535
(dp536
g73
(dp537
g93
g94
ssg82
g531
sg75
(lp538
g347
asbag68
(g89
g70
NtRp539
(dp540
g73
(dp541
g100
g101
ssg82
g531
sg75
(lp542
S':'
asbag68
(g89
g70
NtRp543
(dp544
g73
(dp545
sg82
g531
sg75
(lp546
g68
(g69
g70
NtRp547
(dp548
g73
(dp549
g81
I3
ssg82
g543
sg75
(lp550
S''
asbasbasbag68
(g84
g70
NtRp551
(dp552
g73
(dp553
sg82
g487
sg75
(lp554
g68
(g89
g70
NtRp555
(dp556
g73
(dp557
g93
g94
ssg82
g551
sg75
(lp558
g368
asbag68
(g89
g70
NtRp559
(dp560
g73
(dp561
g100
g101
ssg82
g551
sg75
(lp562
S':'
asbag68
(g89
g70
NtRp563
(dp564
g73
(dp565
sg82
g551
sg75
(lp566
g68
(g69
g70
NtRp567
(dp568
g73
(dp569
g81
I3
ssg82
g563
sg75
(lp570
S''
asbasbasbag68
(g84
g70
NtRp571
(dp572
g73
(dp573
sg82
g487
sg75
(lp574
g68
(g89
g70
NtRp575
(dp576
g73
(dp577
g93
g94
ssg82
g571
sg75
(lp578
g389
asbag68
(g89
g70
NtRp579
(dp580
g73
(dp581
g100
g101
ssg82
g571
sg75
(lp582
S':'
asbag68
(g89
g70
NtRp583
(dp584
g73
(dp585
sg82
g571
sg75
(lp586
g68
(g69
g70
NtRp587
(dp588
g73
(dp589
g81
I3
ssg82
g583
sg75
(lp590
S''
asbasbasbag68
(g84
g70
NtRp591
(dp592
g73
(dp593
sg82
g487
sg75
(lp594
g68
(g89
g70
NtRp595
(dp596
g73
(dp597
g93
g94
ssg82
g591
sg75
(lp598
g410
asbag68
(g89
g70
NtRp599
(dp600
g73
(dp601
g100
g101
ssg82
g591
sg75
(lp602
S':'
asbag68
(g89
g70
NtRp603
(dp604
g73
(dp605
sg82
g591
sg75
(lp606
g68
(g69
g70
NtRp607
(dp608
g73
(dp609
g81
I3
ssg82
g603
sg75
(lp610
S''
asbasbasbag68
(g84
g70
NtRp611
(dp612
g73
(dp613
sg82
g487
sg75
(lp614
g68
(g89
g70
NtRp615
(dp616
g73
(dp617
g93
g94
ssg82
g611
sg75
(lp618
g431
asbag68
(g89
g70
NtRp619
(dp620
g73
(dp621
g100
g101
ssg82
g611
sg75
(lp622
S':'
asbag68
(g89
g70
NtRp623
(dp624
g73
(dp625
sg82
g611
sg75
(lp626
g68
(g69
g70
NtRp627
(dp628
g73
(dp629
g81
I3
ssg82
g623
sg75
(lp630
S''
asbasbasbag68
(g84
g70
NtRp631
(dp632
g73
(dp633
sg82
g487
sg75
(lp634
g68
(g89
g70
NtRp635
(dp636
g73
(dp637
g93
g94
ssg82
g631
sg75
(lp638
g452
asbag68
(g89
g70
NtRp639
(dp640
g73
(dp641
g100
g101
ssg82
g631
sg75
(lp642
S':'
asbag68
(g89
g70
NtRp643
(dp644
g73
(dp645
sg82
g631
sg75
(lp646
g68
(g69
g70
NtRp647
(dp648
g73
(dp649
g81
I3
ssg82
g643
sg75
(lp650
S''
asbasbasbasbasbasbasbasbasbasbasbag68
(g84
g70
NtRp651
(dp652
g73
(dp653
sg82
g78
sg75
(lp654
g68
(g89
g70
NtRp655
(dp656
g73
(dp657
g93
g94
ssg82
g651
sg75
(lp658
S'env'
p659
asbag68
(g89
g70
NtRp660
(dp661
g73
(dp662
g100
g101
ssg82
g651
sg75
(lp663
S':'
asbag68
(g89
g70
NtRp664
(dp665
g73
(dp666
sg82
g651
sg75
(lp667
g68
(g69
g70
NtRp668
(dp669
g73
(dp670
g81
I5
ssg82
g664
sg75
(lp671
g68
(g77
g70
NtRp672
(dp673
g73
(dp674
g81
I4
ssg82
Nsg75
(lp675
g68
(g84
g70
NtRp676
(dp677
g73
(dp678
sg82
g672
sg75
(lp679
g68
(g89
g70
NtRp680
(dp681
g73
(dp682
g93
g94
ssg82
g676
sg75
(lp683
S'app_folders'
p684
asbag68
(g89
g70
NtRp685
(dp686
g73
(dp687
g100
g101
ssg82
g676
sg75
(lp688
S':'
asbag68
(g89
g70
NtRp689
(dp690
g73
(dp691
sg82
g676
sg75
(lp692
g68
(g69
g70
NtRp693
(dp694
g73
(dp695
g81
I4
ssg82
g689
sg75
(lp696
S"set(['/home/diego/web2py/applications/irecycle/', '/home/diego/web2py/applications/admin/'])"
p697
asbasbasbag68
(g84
g70
NtRp698
(dp699
g73
(dp700
sg82
g672
sg75
(lp701
g68
(g89
g70
NtRp702
(dp703
g73
(dp704
g93
g94
ssg82
g698
sg75
(lp705
S'applications_parent'
p706
asbag68
(g89
g70
NtRp707
(dp708
g73
(dp709
g100
g101
ssg82
g698
sg75
(lp710
S':'
asbag68
(g89
g70
NtRp711
(dp712
g73
(dp713
sg82
g698
sg75
(lp714
g68
(g69
g70
NtRp715
(dp716
g73
(dp717
g81
I4
ssg82
g711
sg75
(lp718
S'/home/diego/web2py'
p719
asbasbasbag68
(g84
g70
NtRp720
(dp721
g73
(dp722
sg82
g672
sg75
(lp723
g68
(g89
g70
NtRp724
(dp725
g73
(dp726
g93
g94
ssg82
g720
sg75
(lp727
S'cmd_args'
p728
asbag68
(g89
g70
NtRp729
(dp730
g73
(dp731
g100
g101
ssg82
g720
sg75
(lp732
S':'
asbag68
(g89
g70
NtRp733
(dp734
g73
(dp735
sg82
g720
sg75
(lp736
g68
(g69
g70
NtRp737
(dp738
g73
(dp739
g81
I4
ssg82
g733
sg75
(lp740
g68
(g77
g70
NtRp741
(dp742
g73
(dp743
g81
I3
ssg82
Nsg75
(lp744
sbasbasbasbag68
(g84
g70
NtRp745
(dp746
g73
(dp747
sg82
g672
sg75
(lp748
g68
(g89
g70
NtRp749
(dp750
g73
(dp751
g93
g94
ssg82
g745
sg75
(lp752
S'cmd_options'
p753
asbag68
(g89
g70
NtRp754
(dp755
g73
(dp756
g100
g101
ssg82
g745
sg75
(lp757
S':'
asbag68
(g89
g70
NtRp758
(dp759
g73
(dp760
sg82
g745
sg75
(lp761
g68
(g69
g70
NtRp762
(dp763
g73
(dp764
g81
I4
ssg82
g758
sg75
(lp765
S"<Values at 0x2991488: {'verbose': False, 'ip': '127.0.0.1', 'with_scheduler': False, 'ips': ['172.30.6.210'], 'shutdown_timeout': 5, 'taskbar': False, 'port': 8000, 'maxthreads': None, 'softcron': False, 'server_name': 'madagascar', 'bpython': False, 'nogui': False, 'pid_filename': 'httpserver.pid', 'extcron': False, 'runcron': False, 'run_system_tests': False, 'test': None, 'folder': '/home/diego/web2py', 'config': '', 'minthreads': None, 'winservice': '', 'shell': None, 'run': '', 'log_filename': 'httpserver.log', 'debuglevel': 30, 'args': [''], 'socket_timeout': 5, 'ssl_ca_certificate': None, 'scheduler': None, 'profiler_filename': None, 'ssl_private_key': '', 'scheduler_groups': None, 'password': '1234', 'request_queue_size': 5, 'ssl_certificate': '', 'cronjob': False, 'numthreads': None, 'quiet': False, 'interfaces': None, 'import_models': False, 'timeout': 10, 'plain': False, 'nobanner': False}>"
p766
asbasbasbag68
(g84
g70
NtRp767
(dp768
g73
(dp769
sg82
g672
sg75
(lp770
g68
(g89
g70
NtRp771
(dp772
g73
(dp773
g93
g94
ssg82
g767
sg75
(lp774
S'db_sessions'
p775
asbag68
(g89
g70
NtRp776
(dp777
g73
(dp778
g100
g101
ssg82
g767
sg75
(lp779
S':'
asbag68
(g89
g70
NtRp780
(dp781
g73
(dp782
sg82
g767
sg75
(lp783
g68
(g69
g70
NtRp784
(dp785
g73
(dp786
g81
I4
ssg82
g780
sg75
(lp787
S'set([])'
p788
asbasbasbag68
(g84
g70
NtRp789
(dp790
g73
(dp791
sg82
g672
sg75
(lp792
g68
(g89
g70
NtRp793
(dp794
g73
(dp795
g93
g94
ssg82
g789
sg75
(lp796
S'debugging'
p797
asbag68
(g89
g70
NtRp798
(dp799
g73
(dp800
g100
g101
ssg82
g789
sg75
(lp801
S':'
asbag68
(g89
g70
NtRp802
(dp803
g73
(dp804
sg82
g789
sg75
(lp805
g68
(g69
g70
NtRp806
(dp807
g73
(dp808
g81
I4
ssg82
g802
sg75
(lp809
g111
asbasbasbag68
(g84
g70
NtRp810
(dp811
g73
(dp812
sg82
g672
sg75
(lp813
g68
(g89
g70
NtRp814
(dp815
g73
(dp816
g93
g94
ssg82
g810
sg75
(lp817
S'gluon_parent'
p818
asbag68
(g89
g70
NtRp819
(dp820
g73
(dp821
g100
g101
ssg82
g810
sg75
(lp822
S':'
asbag68
(g89
g70
NtRp823
(dp824
g73
(dp825
sg82
g810
sg75
(lp826
g68
(g69
g70
NtRp827
(dp828
g73
(dp829
g81
I4
ssg82
g823
sg75
(lp830
S'/home/diego/web2py'
p831
asbasbasbag68
(g84
g70
NtRp832
(dp833
g73
(dp834
sg82
g672
sg75
(lp835
g68
(g89
g70
NtRp836
(dp837
g73
(dp838
g93
g94
ssg82
g832
sg75
(lp839
S'http_accept'
p840
asbag68
(g89
g70
NtRp841
(dp842
g73
(dp843
g100
g101
ssg82
g832
sg75
(lp844
S':'
asbag68
(g89
g70
NtRp845
(dp846
g73
(dp847
sg82
g832
sg75
(lp848
g68
(g69
g70
NtRp849
(dp850
g73
(dp851
g81
I4
ssg82
g845
sg75
(lp852
S'text/html,application/xhtml+xml,application/xml;q=0.9,*/*;q=0.8'
p853
asbasbasbag68
(g84
g70
NtRp854
(dp855
g73
(dp856
sg82
g672
sg75
(lp857
g68
(g89
g70
NtRp858
(dp859
g73
(dp860
g93
g94
ssg82
g854
sg75
(lp861
S'http_accept_charset'
p862
asbag68
(g89
g70
NtRp863
(dp864
g73
(dp865
g100
g101
ssg82
g854
sg75
(lp866
S':'
asbag68
(g89
g70
NtRp867
(dp868
g73
(dp869
sg82
g854
sg75
(lp870
g68
(g69
g70
NtRp871
(dp872
g73
(dp873
g81
I4
ssg82
g867
sg75
(lp874
S'ISO-8859-1,utf-8;q=0.7,*;q=0.3'
p875
asbasbasbag68
(g84
g70
NtRp876
(dp877
g73
(dp878
sg82
g672
sg75
(lp879
g68
(g89
g70
NtRp880
(dp881
g73
(dp882
g93
g94
ssg82
g876
sg75
(lp883
S'http_accept_encoding'
p884
asbag68
(g89
g70
NtRp885
(dp886
g73
(dp887
g100
g101
ssg82
g876
sg75
(lp888
S':'
asbag68
(g89
g70
NtRp889
(dp890
g73
(dp891
sg82
g876
sg75
(lp892
g68
(g69
g70
NtRp893
(dp894
g73
(dp895
g81
I4
ssg82
g889
sg75
(lp896
S'gzip,deflate,sdch'
p897
asbasbasbag68
(g84
g70
NtRp898
(dp899
g73
(dp900
sg82
g672
sg75
(lp901
g68
(g89
g70
NtRp902
(dp903
g73
(dp904
g93
g94
ssg82
g898
sg75
(lp905
S'http_accept_language'
p906
asbag68
(g89
g70
NtRp907
(dp908
g73
(dp909
g100
g101
ssg82
g898
sg75
(lp910
S':'
asbag68
(g89
g70
NtRp911
(dp912
g73
(dp913
sg82
g898
sg75
(lp914
g68
(g69
g70
NtRp915
(dp916
g73
(dp917
g81
I4
ssg82
g911
sg75
(lp918
S'pt-BR,pt;q=0.8,en-US;q=0.6,en;q=0.4'
p919
asbasbasbag68
(g84
g70
NtRp920
(dp921
g73
(dp922
sg82
g672
sg75
(lp923
g68
(g89
g70
NtRp924
(dp925
g73
(dp926
g93
g94
ssg82
g920
sg75
(lp927
S'http_connection'
p928
asbag68
(g89
g70
NtRp929
(dp930
g73
(dp931
g100
g101
ssg82
g920
sg75
(lp932
S':'
asbag68
(g89
g70
NtRp933
(dp934
g73
(dp935
sg82
g920
sg75
(lp936
g68
(g69
g70
NtRp937
(dp938
g73
(dp939
g81
I4
ssg82
g933
sg75
(lp940
S'keep-alive'
p941
asbasbasbag68
(g84
g70
NtRp942
(dp943
g73
(dp944
sg82
g672
sg75
(lp945
g68
(g89
g70
NtRp946
(dp947
g73
(dp948
g93
g94
ssg82
g942
sg75
(lp949
S'http_cookie'
p950
asbag68
(g89
g70
NtRp951
(dp952
g73
(dp953
g100
g101
ssg82
g942
sg75
(lp954
S':'
asbag68
(g89
g70
NtRp955
(dp956
g73
(dp957
sg82
g942
sg75
(lp958
g68
(g69
g70
NtRp959
(dp960
g73
(dp961
g81
I4
ssg82
g955
sg75
(lp962
S'session_id_admin=127.0.0.1-e9b49389-2418-4b45-bd80-845c8869c15c; session_id_irecycle=127.0.0.1-10f67e0b-8b95-4045-9f3c-2e1e4dff1c83'
p963
asbasbasbag68
(g84
g70
NtRp964
(dp965
g73
(dp966
sg82
g672
sg75
(lp967
g68
(g89
g70
NtRp968
(dp969
g73
(dp970
g93
g94
ssg82
g964
sg75
(lp971
S'http_host'
p972
asbag68
(g89
g70
NtRp973
(dp974
g73
(dp975
g100
g101
ssg82
g964
sg75
(lp976
S':'
asbag68
(g89
g70
NtRp977
(dp978
g73
(dp979
sg82
g964
sg75
(lp980
g68
(g69
g70
NtRp981
(dp982
g73
(dp983
g81
I4
ssg82
g977
sg75
(lp984
S'localhost:8000'
p985
asbasbasbag68
(g84
g70
NtRp986
(dp987
g73
(dp988
sg82
g672
sg75
(lp989
g68
(g89
g70
NtRp990
(dp991
g73
(dp992
g93
g94
ssg82
g986
sg75
(lp993
S'http_referer'
p994
asbag68
(g89
g70
NtRp995
(dp996
g73
(dp997
g100
g101
ssg82
g986
sg75
(lp998
S':'
asbag68
(g89
g70
NtRp999
(dp1000
g73
(dp1001
sg82
g986
sg75
(lp1002
g68
(g69
g70
NtRp1003
(dp1004
g73
(dp1005
g81
I4
ssg82
g999
sg75
(lp1006
S'http://localhost:8000/irecycle/default/index'
p1007
asbasbasbag68
(g84
g70
NtRp1008
(dp1009
g73
(dp1010
sg82
g672
sg75
(lp1011
g68
(g89
g70
NtRp1012
(dp1013
g73
(dp1014
g93
g94
ssg82
g1008
sg75
(lp1015
S'http_user_agent'
p1016
asbag68
(g89
g70
NtRp1017
(dp1018
g73
(dp1019
g100
g101
ssg82
g1008
sg75
(lp1020
S':'
asbag68
(g89
g70
NtRp1021
(dp1022
g73
(dp1023
sg82
g1008
sg75
(lp1024
g68
(g69
g70
NtRp1025
(dp1026
g73
(dp1027
g81
I4
ssg82
g1021
sg75
(lp1028
S'Mozilla/5.0 (X11; Linux x86_64) AppleWebKit/537.17 (KHTML, like Gecko) Chrome/24.0.1312.52 Safari/537.17'
p1029
asbasbasbag68
(g84
g70
NtRp1030
(dp1031
g73
(dp1032
sg82
g672
sg75
(lp1033
g68
(g89
g70
NtRp1034
(dp1035
g73
(dp1036
g93
g94
ssg82
g1030
sg75
(lp1037
S'is_jython'
p1038
asbag68
(g89
g70
NtRp1039
(dp1040
g73
(dp1041
g100
g101
ssg82
g1030
sg75
(lp1042
S':'
asbag68
(g89
g70
NtRp1043
(dp1044
g73
(dp1045
sg82
g1030
sg75
(lp1046
g68
(g69
g70
NtRp1047
(dp1048
g73
(dp1049
g81
I4
ssg82
g1043
sg75
(lp1050
g111
asbasbasbag68
(g84
g70
NtRp1051
(dp1052
g73
(dp1053
sg82
g672
sg75
(lp1054
g68
(g89
g70
NtRp1055
(dp1056
g73
(dp1057
g93
g94
ssg82
g1051
sg75
(lp1058
S'is_pypy'
p1059
asbag68
(g89
g70
NtRp1060
(dp1061
g73
(dp1062
g100
g101
ssg82
g1051
sg75
(lp1063
S':'
asbag68
(g89
g70
NtRp1064
(dp1065
g73
(dp1066
sg82
g1051
sg75
(lp1067
g68
(g69
g70
NtRp1068
(dp1069
g73
(dp1070
g81
I4
ssg82
g1064
sg75
(lp1071
g111
asbasbasbag68
(g84
g70
NtRp1072
(dp1073
g73
(dp1074
sg82
g672
sg75
(lp1075
g68
(g89
g70
NtRp1076
(dp1077
g73
(dp1078
g93
g94
ssg82
g1072
sg75
(lp1079
S'local_hosts'
p1080
asbag68
(g89
g70
NtRp1081
(dp1082
g73
(dp1083
g100
g101
ssg82
g1072
sg75
(lp1084
S':'
asbag68
(g89
g70
NtRp1085
(dp1086
g73
(dp1087
sg82
g1072
sg75
(lp1088
g68
(g69
g70
NtRp1089
(dp1090
g73
(dp1091
g81
I4
ssg82
g1085
sg75
(lp1092
g68
(g77
g70
NtRp1093
(dp1094
g73
(dp1095
g81
I3
ssg82
Nsg75
(lp1096
g68
(g84
g70
NtRp1097
(dp1098
g73
(dp1099
sg82
g1093
sg75
(lp1100
g68
(g89
g70
NtRp1101
(dp1102
g73
(dp1103
sg82
g1097
sg75
(lp1104
g68
(g69
g70
NtRp1105
(dp1106
g73
(dp1107
g81
I3
ssg82
g1101
sg75
(lp1108
S'::1'
p1109
asbasbasbag68
(g84
g70
NtRp1110
(dp1111
g73
(dp1112
sg82
g1093
sg75
(lp1113
g68
(g89
g70
NtRp1114
(dp1115
g73
(dp1116
sg82
g1110
sg75
(lp1117
g68
(g69
g70
NtRp1118
(dp1119
g73
(dp1120
g81
I3
ssg82
g1114
sg75
(lp1121
S'madagascar'
p1122
asbasbasbag68
(g84
g70
NtRp1123
(dp1124
g73
(dp1125
sg82
g1093
sg75
(lp1126
g68
(g89
g70
NtRp1127
(dp1128
g73
(dp1129
sg82
g1123
sg75
(lp1130
g68
(g69
g70
NtRp1131
(dp1132
g73
(dp1133
g81
I3
ssg82
g1127
sg75
(lp1134
S'::ffff:127.0.0.1'
p1135
asbasbasbag68
(g84
g70
NtRp1136
(dp1137
g73
(dp1138
sg82
g1093
sg75
(lp1139
g68
(g89
g70
NtRp1140
(dp1141
g73
(dp1142
sg82
g1136
sg75
(lp1143
g68
(g69
g70
NtRp1144
(dp1145
g73
(dp1146
g81
I3
ssg82
g1140
sg75
(lp1147
S'127.0.0.1'
p1148
asbasbasbag68
(g84
g70
NtRp1149
(dp1150
g73
(dp1151
sg82
g1093
sg75
(lp1152
g68
(g89
g70
NtRp1153
(dp1154
g73
(dp1155
sg82
g1149
sg75
(lp1156
g68
(g69
g70
NtRp1157
(dp1158
g73
(dp1159
g81
I3
ssg82
g1153
sg75
(lp1160
S'172.30.6.210'
p1161
asbasbasbasbasbasbasbag68
(g84
g70
NtRp1162
(dp1163
g73
(dp1164
sg82
g672
sg75
(lp1165
g68
(g89
g70
NtRp1166
(dp1167
g73
(dp1168
g93
g94
ssg82
g1162
sg75
(lp1169
S'path_info'
p1170
asbag68
(g89
g70
NtRp1171
(dp1172
g73
(dp1173
g100
g101
ssg82
g1162
sg75
(lp1174
S':'
asbag68
(g89
g70
NtRp1175
(dp1176
g73
(dp1177
sg82
g1162
sg75
(lp1178
g68
(g69
g70
NtRp1179
(dp1180
g73
(dp1181
g81
I4
ssg82
g1175
sg75
(lp1182
S'/irecycle/contact/contact'
p1183
asbasbasbag68
(g84
g70
NtRp1184
(dp1185
g73
(dp1186
sg82
g672
sg75
(lp1187
g68
(g89
g70
NtRp1188
(dp1189
g73
(dp1190
g93
g94
ssg82
g1184
sg75
(lp1191
S'query_string'
p1192
asbag68
(g89
g70
NtRp1193
(dp1194
g73
(dp1195
g100
g101
ssg82
g1184
sg75
(lp1196
S':'
asbag68
(g89
g70
NtRp1197
(dp1198
g73
(dp1199
sg82
g1184
sg75
(lp1200
g68
(g69
g70
NtRp1201
(dp1202
g73
(dp1203
g81
I4
ssg82
g1197
sg75
(lp1204
S''
asbasbasbag68
(g84
g70
NtRp1205
(dp1206
g73
(dp1207
sg82
g672
sg75
(lp1208
g68
(g89
g70
NtRp1209
(dp1210
g73
(dp1211
g93
g94
ssg82
g1205
sg75
(lp1212
S'remote_addr'
p1213
asbag68
(g89
g70
NtRp1214
(dp1215
g73
(dp1216
g100
g101
ssg82
g1205
sg75
(lp1217
S':'
asbag68
(g89
g70
NtRp1218
(dp1219
g73
(dp1220
sg82
g1205
sg75
(lp1221
g68
(g69
g70
NtRp1222
(dp1223
g73
(dp1224
g81
I4
ssg82
g1218
sg75
(lp1225
g223
asbasbasbag68
(g84
g70
NtRp1226
(dp1227
g73
(dp1228
sg82
g672
sg75
(lp1229
g68
(g89
g70
NtRp1230
(dp1231
g73
(dp1232
g93
g94
ssg82
g1226
sg75
(lp1233
S'remote_port'
p1234
asbag68
(g89
g70
NtRp1235
(dp1236
g73
(dp1237
g100
g101
ssg82
g1226
sg75
(lp1238
S':'
asbag68
(g89
g70
NtRp1239
(dp1240
g73
(dp1241
sg82
g1226
sg75
(lp1242
g68
(g69
g70
NtRp1243
(dp1244
g73
(dp1245
g81
I4
ssg82
g1239
sg75
(lp1246
S'58278'
p1247
asbasbasbag68
(g84
g70
NtRp1248
(dp1249
g73
(dp1250
sg82
g672
sg75
(lp1251
g68
(g89
g70
NtRp1252
(dp1253
g73
(dp1254
g93
g94
ssg82
g1248
sg75
(lp1255
S'request_method'
p1256
asbag68
(g89
g70
NtRp1257
(dp1258
g73
(dp1259
g100
g101
ssg82
g1248
sg75
(lp1260
S':'
asbag68
(g89
g70
NtRp1261
(dp1262
g73
(dp1263
sg82
g1248
sg75
(lp1264
g68
(g69
g70
NtRp1265
(dp1266
g73
(dp1267
g81
I4
ssg82
g1261
sg75
(lp1268
S'GET'
p1269
asbasbasbag68
(g84
g70
NtRp1270
(dp1271
g73
(dp1272
sg82
g672
sg75
(lp1273
g68
(g89
g70
NtRp1274
(dp1275
g73
(dp1276
g93
g94
ssg82
g1270
sg75
(lp1277
S'request_uri'
p1278
asbag68
(g89
g70
NtRp1279
(dp1280
g73
(dp1281
g100
g101
ssg82
g1270
sg75
(lp1282
S':'
asbag68
(g89
g70
NtRp1283
(dp1284
g73
(dp1285
sg82
g1270
sg75
(lp1286
g68
(g69
g70
NtRp1287
(dp1288
g73
(dp1289
g81
I4
ssg82
g1283
sg75
(lp1290
g1183
asbasbasbag68
(g84
g70
NtRp1291
(dp1292
g73
(dp1293
sg82
g672
sg75
(lp1294
g68
(g89
g70
NtRp1295
(dp1296
g73
(dp1297
g93
g94
ssg82
g1291
sg75
(lp1298
S'script_name'
p1299
asbag68
(g89
g70
NtRp1300
(dp1301
g73
(dp1302
g100
g101
ssg82
g1291
sg75
(lp1303
S':'
asbag68
(g89
g70
NtRp1304
(dp1305
g73
(dp1306
sg82
g1291
sg75
(lp1307
g68
(g69
g70
NtRp1308
(dp1309
g73
(dp1310
g81
I4
ssg82
g1304
sg75
(lp1311
S''
asbasbasbag68
(g84
g70
NtRp1312
(dp1313
g73
(dp1314
sg82
g672
sg75
(lp1315
g68
(g89
g70
NtRp1316
(dp1317
g73
(dp1318
g93
g94
ssg82
g1312
sg75
(lp1319
S'server_name'
p1320
asbag68
(g89
g70
NtRp1321
(dp1322
g73
(dp1323
g100
g101
ssg82
g1312
sg75
(lp1324
S':'
asbag68
(g89
g70
NtRp1325
(dp1326
g73
(dp1327
sg82
g1312
sg75
(lp1328
g68
(g69
g70
NtRp1329
(dp1330
g73
(dp1331
g81
I4
ssg82
g1325
sg75
(lp1332
S'madagascar'
p1333
asbasbasbag68
(g84
g70
NtRp1334
(dp1335
g73
(dp1336
sg82
g672
sg75
(lp1337
g68
(g89
g70
NtRp1338
(dp1339
g73
(dp1340
g93
g94
ssg82
g1334
sg75
(lp1341
S'server_port'
p1342
asbag68
(g89
g70
NtRp1343
(dp1344
g73
(dp1345
g100
g101
ssg82
g1334
sg75
(lp1346
S':'
asbag68
(g89
g70
NtRp1347
(dp1348
g73
(dp1349
sg82
g1334
sg75
(lp1350
g68
(g69
g70
NtRp1351
(dp1352
g73
(dp1353
g81
I4
ssg82
g1347
sg75
(lp1354
S'8000'
p1355
asbasbasbag68
(g84
g70
NtRp1356
(dp1357
g73
(dp1358
sg82
g672
sg75
(lp1359
g68
(g89
g70
NtRp1360
(dp1361
g73
(dp1362
g93
g94
ssg82
g1356
sg75
(lp1363
S'server_protocol'
p1364
asbag68
(g89
g70
NtRp1365
(dp1366
g73
(dp1367
g100
g101
ssg82
g1356
sg75
(lp1368
S':'
asbag68
(g89
g70
NtRp1369
(dp1370
g73
(dp1371
sg82
g1356
sg75
(lp1372
g68
(g69
g70
NtRp1373
(dp1374
g73
(dp1375
g81
I4
ssg82
g1369
sg75
(lp1376
S'HTTP/1.1'
p1377
asbasbasbag68
(g84
g70
NtRp1378
(dp1379
g73
(dp1380
sg82
g672
sg75
(lp1381
g68
(g89
g70
NtRp1382
(dp1383
g73
(dp1384
g93
g94
ssg82
g1378
sg75
(lp1385
S'server_software'
p1386
asbag68
(g89
g70
NtRp1387
(dp1388
g73
(dp1389
g100
g101
ssg82
g1378
sg75
(lp1390
S':'
asbag68
(g89
g70
NtRp1391
(dp1392
g73
(dp1393
sg82
g1378
sg75
(lp1394
g68
(g69
g70
NtRp1395
(dp1396
g73
(dp1397
g81
I4
ssg82
g1391
sg75
(lp1398
S'Rocket 1.2.6'
p1399
asbasbasbag68
(g84
g70
NtRp1400
(dp1401
g73
(dp1402
sg82
g672
sg75
(lp1403
g68
(g89
g70
NtRp1404
(dp1405
g73
(dp1406
g93
g94
ssg82
g1400
sg75
(lp1407
S'web2py_path'
p1408
asbag68
(g89
g70
NtRp1409
(dp1410
g73
(dp1411
g100
g101
ssg82
g1400
sg75
(lp1412
S':'
asbag68
(g89
g70
NtRp1413
(dp1414
g73
(dp1415
sg82
g1400
sg75
(lp1416
g68
(g69
g70
NtRp1417
(dp1418
g73
(dp1419
g81
I4
ssg82
g1413
sg75
(lp1420
g719
asbasbasbag68
(g84
g70
NtRp1421
(dp1422
g73
(dp1423
sg82
g672
sg75
(lp1424
g68
(g89
g70
NtRp1425
(dp1426
g73
(dp1427
g93
g94
ssg82
g1421
sg75
(lp1428
S'web2py_version'
p1429
asbag68
(g89
g70
NtRp1430
(dp1431
g73
(dp1432
g100
g101
ssg82
g1421
sg75
(lp1433
S':'
asbag68
(g89
g70
NtRp1434
(dp1435
g73
(dp1436
sg82
g1421
sg75
(lp1437
g68
(g69
g70
NtRp1438
(dp1439
g73
(dp1440
g81
I4
ssg82
g1434
sg75
(lp1441
g68
(g77
g70
NtRp1442
(dp1443
g73
(dp1444
g81
I3
ssg82
Nsg75
(lp1445
g68
(g84
g70
NtRp1446
(dp1447
g73
(dp1448
sg82
g1442
sg75
(lp1449
g68
(g89
g70
NtRp1450
(dp1451
g73
(dp1452
sg82
g1446
sg75
(lp1453
g68
(g69
g70
NtRp1454
(dp1455
g73
(dp1456
g81
I3
ssg82
g1450
sg75
(lp1457
S'2'
asbasbasbag68
(g84
g70
NtRp1458
(dp1459
g73
(dp1460
sg82
g1442
sg75
(lp1461
g68
(g89
g70
NtRp1462
(dp1463
g73
(dp1464
sg82
g1458
sg75
(lp1465
g68
(g69
g70
NtRp1466
(dp1467
g73
(dp1468
g81
I3
ssg82
g1462
sg75
(lp1469
S'3'
asbasbasbag68
(g84
g70
NtRp1470
(dp1471
g73
(dp1472
sg82
g1442
sg75
(lp1473
g68
(g89
g70
NtRp1474
(dp1475
g73
(dp1476
sg82
g1470
sg75
(lp1477
g68
(g69
g70
NtRp1478
(dp1479
g73
(dp1480
g81
I3
ssg82
g1474
sg75
(lp1481
S'2'
asbasbasbag68
(g84
g70
NtRp1482
(dp1483
g73
(dp1484
sg82
g1442
sg75
(lp1485
g68
(g89
g70
NtRp1486
(dp1487
g73
(dp1488
sg82
g1482
sg75
(lp1489
g68
(g69
g70
NtRp1490
(dp1491
g73
(dp1492
g81
I3
ssg82
g1486
sg75
(lp1493
S'datetime.datetime(2012, 12, 17, 15, 3, 30)'
p1494
asbasbasbag68
(g84
g70
NtRp1495
(dp1496
g73
(dp1497
sg82
g1442
sg75
(lp1498
g68
(g89
g70
NtRp1499
(dp1500
g73
(dp1501
sg82
g1495
sg75
(lp1502
g68
(g69
g70
NtRp1503
(dp1504
g73
(dp1505
g81
I3
ssg82
g1499
sg75
(lp1506
S'stable'
p1507
asbasbasbasbasbasbasbag68
(g84
g70
NtRp1508
(dp1509
g73
(dp1510
sg82
g672
sg75
(lp1511
g68
(g89
g70
NtRp1512
(dp1513
g73
(dp1514
g93
g94
ssg82
g1508
sg75
(lp1515
S'wsgi_errors'
p1516
asbag68
(g89
g70
NtRp1517
(dp1518
g73
(dp1519
g100
g101
ssg82
g1508
sg75
(lp1520
S':'
asbag68
(g89
g70
NtRp1521
(dp1522
g73
(dp1523
sg82
g1508
sg75
(lp1524
g68
(g69
g70
NtRp1525
(dp1526
g73
(dp1527
g81
I4
ssg82
g1521
sg75
(lp1528
S"<open file '<stderr>', mode 'w' at 0x7f2c54870270>"
p1529
asbasbasbag68
(g84
g70
NtRp1530
(dp1531
g73
(dp1532
sg82
g672
sg75
(lp1533
g68
(g89
g70
NtRp1534
(dp1535
g73
(dp1536
g93
g94
ssg82
g1530
sg75
(lp1537
S'wsgi_file_wrapper'
p1538
asbag68
(g89
g70
NtRp1539
(dp1540
g73
(dp1541
g100
g101
ssg82
g1530
sg75
(lp1542
S':'
asbag68
(g89
g70
NtRp1543
(dp1544
g73
(dp1545
sg82
g1530
sg75
(lp1546
g68
(g69
g70
NtRp1547
(dp1548
g73
(dp1549
g81
I4
ssg82
g1543
sg75
(lp1550
S'<class wsgiref.util.FileWrapper at 0x28f0738>'
p1551
asbasbasbag68
(g84
g70
NtRp1552
(dp1553
g73
(dp1554
sg82
g672
sg75
(lp1555
g68
(g89
g70
NtRp1556
(dp1557
g73
(dp1558
g93
g94
ssg82
g1552
sg75
(lp1559
S'wsgi_input'
p1560
asbag68
(g89
g70
NtRp1561
(dp1562
g73
(dp1563
g100
g101
ssg82
g1552
sg75
(lp1564
S':'
asbag68
(g89
g70
NtRp1565
(dp1566
g73
(dp1567
sg82
g1552
sg75
(lp1568
g68
(g69
g70
NtRp1569
(dp1570
g73
(dp1571
g81
I4
ssg82
g1565
sg75
(lp1572
S'<socket._fileobject object at 0x7f2c2015b6d0>'
p1573
asbasbasbag68
(g84
g70
NtRp1574
(dp1575
g73
(dp1576
sg82
g672
sg75
(lp1577
g68
(g89
g70
NtRp1578
(dp1579
g73
(dp1580
g93
g94
ssg82
g1574
sg75
(lp1581
S'wsgi_multiprocess'
p1582
asbag68
(g89
g70
NtRp1583
(dp1584
g73
(dp1585
g100
g101
ssg82
g1574
sg75
(lp1586
S':'
asbag68
(g89
g70
NtRp1587
(dp1588
g73
(dp1589
sg82
g1574
sg75
(lp1590
g68
(g69
g70
NtRp1591
(dp1592
g73
(dp1593
g81
I4
ssg82
g1587
sg75
(lp1594
g111
asbasbasbag68
(g84
g70
NtRp1595
(dp1596
g73
(dp1597
sg82
g672
sg75
(lp1598
g68
(g89
g70
NtRp1599
(dp1600
g73
(dp1601
g93
g94
ssg82
g1595
sg75
(lp1602
S'wsgi_multithread'
p1603
asbag68
(g89
g70
NtRp1604
(dp1605
g73
(dp1606
g100
g101
ssg82
g1595
sg75
(lp1607
S':'
asbag68
(g89
g70
NtRp1608
(dp1609
g73
(dp1610
sg82
g1595
sg75
(lp1611
g68
(g69
g70
NtRp1612
(dp1613
g73
(dp1614
g81
I4
ssg82
g1608
sg75
(lp1615
S'True'
p1616
asbasbasbag68
(g84
g70
NtRp1617
(dp1618
g73
(dp1619
sg82
g672
sg75
(lp1620
g68
(g89
g70
NtRp1621
(dp1622
g73
(dp1623
g93
g94
ssg82
g1617
sg75
(lp1624
S'wsgi_run_once'
p1625
asbag68
(g89
g70
NtRp1626
(dp1627
g73
(dp1628
g100
g101
ssg82
g1617
sg75
(lp1629
S':'
asbag68
(g89
g70
NtRp1630
(dp1631
g73
(dp1632
sg82
g1617
sg75
(lp1633
g68
(g69
g70
NtRp1634
(dp1635
g73
(dp1636
g81
I4
ssg82
g1630
sg75
(lp1637
g111
asbasbasbag68
(g84
g70
NtRp1638
(dp1639
g73
(dp1640
sg82
g672
sg75
(lp1641
g68
(g89
g70
NtRp1642
(dp1643
g73
(dp1644
g93
g94
ssg82
g1638
sg75
(lp1645
S'wsgi_url_scheme'
p1646
asbag68
(g89
g70
NtRp1647
(dp1648
g73
(dp1649
g100
g101
ssg82
g1638
sg75
(lp1650
S':'
asbag68
(g89
g70
NtRp1651
(dp1652
g73
(dp1653
sg82
g1638
sg75
(lp1654
g68
(g69
g70
NtRp1655
(dp1656
g73
(dp1657
g81
I4
ssg82
g1651
sg75
(lp1658
S'http'
p1659
asbasbasbag68
(g84
g70
NtRp1660
(dp1661
g73
(dp1662
sg82
g672
sg75
(lp1663
g68
(g89
g70
NtRp1664
(dp1665
g73
(dp1666
g93
g94
ssg82
g1660
sg75
(lp1667
S'wsgi_version'
p1668
asbag68
(g89
g70
NtRp1669
(dp1670
g73
(dp1671
g100
g101
ssg82
g1660
sg75
(lp1672
S':'
asbag68
(g89
g70
NtRp1673
(dp1674
g73
(dp1675
sg82
g1660
sg75
(lp1676
g68
(g69
g70
NtRp1677
(dp1678
g73
(dp1679
g81
I4
ssg82
g1673
sg75
(lp1680
g68
(g77
g70
NtRp1681
(dp1682
g73
(dp1683
g81
I3
ssg82
Nsg75
(lp1684
g68
(g84
g70
NtRp1685
(dp1686
g73
(dp1687
sg82
g1681
sg75
(lp1688
g68
(g89
g70
NtRp1689
(dp1690
g73
(dp1691
sg82
g1685
sg75
(lp1692
g68
(g69
g70
NtRp1693
(dp1694
g73
(dp1695
g81
I3
ssg82
g1689
sg75
(lp1696
S'1'
asbasbasbag68
(g84
g70
NtRp1697
(dp1698
g73
(dp1699
sg82
g1681
sg75
(lp1700
g68
(g89
g70
NtRp1701
(dp1702
g73
(dp1703
sg82
g1697
sg75
(lp1704
g68
(g69
g70
NtRp1705
(dp1706
g73
(dp1707
g81
I3
ssg82
g1701
sg75
(lp1708
S'0'
asbasbasbasbasbasbasbasbasbasbasbag68
(g84
g70
NtRp1709
(dp1710
g73
(dp1711
sg82
g78
sg75
(lp1712
g68
(g89
g70
NtRp1713
(dp1714
g73
(dp1715
g93
g94
ssg82
g1709
sg75
(lp1716
S'extension'
p1717
asbag68
(g89
g70
NtRp1718
(dp1719
g73
(dp1720
g100
g101
ssg82
g1709
sg75
(lp1721
S':'
asbag68
(g89
g70
NtRp1722
(dp1723
g73
(dp1724
sg82
g1709
sg75
(lp1725
g68
(g69
g70
NtRp1726
(dp1727
g73
(dp1728
g81
I5
ssg82
g1722
sg75
(lp1729
S'html'
p1730
asbasbasbag68
(g84
g70
NtRp1731
(dp1732
g73
(dp1733
sg82
g78
sg75
(lp1734
g68
(g89
g70
NtRp1735
(dp1736
g73
(dp1737
g93
g94
ssg82
g1731
sg75
(lp1738
S'folder'
p1739
asbag68
(g89
g70
NtRp1740
(dp1741
g73
(dp1742
g100
g101
ssg82
g1731
sg75
(lp1743
S':'
asbag68
(g89
g70
NtRp1744
(dp1745
g73
(dp1746
sg82
g1731
sg75
(lp1747
g68
(g69
g70
NtRp1748
(dp1749
g73
(dp1750
g81
I5
ssg82
g1744
sg75
(lp1751
S'/home/diego/web2py/applications/irecycle/'
p1752
asbasbasbag68
(g84
g70
NtRp1753
(dp1754
g73
(dp1755
sg82
g78
sg75
(lp1756
g68
(g89
g70
NtRp1757
(dp1758
g73
(dp1759
g93
g94
ssg82
g1753
sg75
(lp1760
S'function'
p1761
asbag68
(g89
g70
NtRp1762
(dp1763
g73
(dp1764
g100
g101
ssg82
g1753
sg75
(lp1765
S':'
asbag68
(g89
g70
NtRp1766
(dp1767
g73
(dp1768
sg82
g1753
sg75
(lp1769
g68
(g69
g70
NtRp1770
(dp1771
g73
(dp1772
g81
I5
ssg82
g1766
sg75
(lp1773
S'contact'
p1774
asbasbasbag68
(g84
g70
NtRp1775
(dp1776
g73
(dp1777
sg82
g78
sg75
(lp1778
g68
(g89
g70
NtRp1779
(dp1780
g73
(dp1781
g93
g94
ssg82
g1775
sg75
(lp1782
S'get_vars'
p1783
asbag68
(g89
g70
NtRp1784
(dp1785
g73
(dp1786
g100
g101
ssg82
g1775
sg75
(lp1787
S':'
asbag68
(g89
g70
NtRp1788
(dp1789
g73
(dp1790
sg82
g1775
sg75
(lp1791
g68
(g69
g70
NtRp1792
(dp1793
g73
(dp1794
g81
I5
ssg82
g1788
sg75
(lp1795
g68
(g77
g70
NtRp1796
(dp1797
g73
(dp1798
g81
I4
ssg82
Nsg75
(lp1799
sbasbasbasbag68
(g84
g70
NtRp1800
(dp1801
g73
(dp1802
sg82
g78
sg75
(lp1803
g68
(g89
g70
NtRp1804
(dp1805
g73
(dp1806
g93
g94
ssg82
g1800
sg75
(lp1807
S'global_settings'
p1808
asbag68
(g89
g70
NtRp1809
(dp1810
g73
(dp1811
g100
g101
ssg82
g1800
sg75
(lp1812
S':'
asbag68
(g89
g70
NtRp1813
(dp1814
g73
(dp1815
sg82
g1800
sg75
(lp1816
g68
(g69
g70
NtRp1817
(dp1818
g73
(dp1819
g81
I5
ssg82
g1813
sg75
(lp1820
g68
(g77
g70
NtRp1821
(dp1822
g73
(dp1823
g81
I4
ssg82
Nsg75
(lp1824
g68
(g84
g70
NtRp1825
(dp1826
g73
(dp1827
sg82
g1821
sg75
(lp1828
g68
(g89
g70
NtRp1829
(dp1830
g73
(dp1831
g93
g94
ssg82
g1825
sg75
(lp1832
g684
asbag68
(g89
g70
NtRp1833
(dp1834
g73
(dp1835
g100
g101
ssg82
g1825
sg75
(lp1836
S':'
asbag68
(g89
g70
NtRp1837
(dp1838
g73
(dp1839
sg82
g1825
sg75
(lp1840
g68
(g69
g70
NtRp1841
(dp1842
g73
(dp1843
g81
I4
ssg82
g1837
sg75
(lp1844
S"set(['/home/diego/web2py/applications/irecycle/', '/home/diego/web2py/applications/admin/'])"
p1845
asbasbasbag68
(g84
g70
NtRp1846
(dp1847
g73
(dp1848
sg82
g1821
sg75
(lp1849
g68
(g89
g70
NtRp1850
(dp1851
g73
(dp1852
g93
g94
ssg82
g1846
sg75
(lp1853
g706
asbag68
(g89
g70
NtRp1854
(dp1855
g73
(dp1856
g100
g101
ssg82
g1846
sg75
(lp1857
S':'
asbag68
(g89
g70
NtRp1858
(dp1859
g73
(dp1860
sg82
g1846
sg75
(lp1861
g68
(g69
g70
NtRp1862
(dp1863
g73
(dp1864
g81
I4
ssg82
g1858
sg75
(lp1865
g719
asbasbasbag68
(g84
g70
NtRp1866
(dp1867
g73
(dp1868
sg82
g1821
sg75
(lp1869
g68
(g89
g70
NtRp1870
(dp1871
g73
(dp1872
g93
g94
ssg82
g1866
sg75
(lp1873
g728
asbag68
(g89
g70
NtRp1874
(dp1875
g73
(dp1876
g100
g101
ssg82
g1866
sg75
(lp1877
S':'
asbag68
(g89
g70
NtRp1878
(dp1879
g73
(dp1880
sg82
g1866
sg75
(lp1881
g68
(g69
g70
NtRp1882
(dp1883
g73
(dp1884
g81
I4
ssg82
g1878
sg75
(lp1885
g68
(g77
g70
NtRp1886
(dp1887
g73
(dp1888
g81
I3
ssg82
Nsg75
(lp1889
sbasbasbasbag68
(g84
g70
NtRp1890
(dp1891
g73
(dp1892
sg82
g1821
sg75
(lp1893
g68
(g89
g70
NtRp1894
(dp1895
g73
(dp1896
g93
g94
ssg82
g1890
sg75
(lp1897
g753
asbag68
(g89
g70
NtRp1898
(dp1899
g73
(dp1900
g100
g101
ssg82
g1890
sg75
(lp1901
S':'
asbag68
(g89
g70
NtRp1902
(dp1903
g73
(dp1904
sg82
g1890
sg75
(lp1905
g68
(g69
g70
NtRp1906
(dp1907
g73
(dp1908
g81
I4
ssg82
g1902
sg75
(lp1909
S"<Values at 0x2991488: {'verbose': False, 'ip': '127.0.0.1', 'with_scheduler': False, 'ips': ['172.30.6.210'], 'shutdown_timeout': 5, 'taskbar': False, 'port': 8000, 'maxthreads': None, 'softcron': False, 'server_name': 'madagascar', 'bpython': False, 'nogui': False, 'pid_filename': 'httpserver.pid', 'extcron': False, 'runcron': False, 'run_system_tests': False, 'test': None, 'folder': '/home/diego/web2py', 'config': '', 'minthreads': None, 'winservice': '', 'shell': None, 'run': '', 'log_filename': 'httpserver.log', 'debuglevel': 30, 'args': [''], 'socket_timeout': 5, 'ssl_ca_certificate': None, 'scheduler': None, 'profiler_filename': None, 'ssl_private_key': '', 'scheduler_groups': None, 'password': '1234', 'request_queue_size': 5, 'ssl_certificate': '', 'cronjob': False, 'numthreads': None, 'quiet': False, 'interfaces': None, 'import_models': False, 'timeout': 10, 'plain': False, 'nobanner': False}>"
p1910
asbasbasbag68
(g84
g70
NtRp1911
(dp1912
g73
(dp1913
sg82
g1821
sg75
(lp1914
g68
(g89
g70
NtRp1915
(dp1916
g73
(dp1917
g93
g94
ssg82
g1911
sg75
(lp1918
g775
asbag68
(g89
g70
NtRp1919
(dp1920
g73
(dp1921
g100
g101
ssg82
g1911
sg75
(lp1922
S':'
asbag68
(g89
g70
NtRp1923
(dp1924
g73
(dp1925
sg82
g1911
sg75
(lp1926
g68
(g69
g70
NtRp1927
(dp1928
g73
(dp1929
g81
I4
ssg82
g1923
sg75
(lp1930
S'set([])'
p1931
asbasbasbag68
(g84
g70
NtRp1932
(dp1933
g73
(dp1934
sg82
g1821
sg75
(lp1935
g68
(g89
g70
NtRp1936
(dp1937
g73
(dp1938
g93
g94
ssg82
g1932
sg75
(lp1939
g797
asbag68
(g89
g70
NtRp1940
(dp1941
g73
(dp1942
g100
g101
ssg82
g1932
sg75
(lp1943
S':'
asbag68
(g89
g70
NtRp1944
(dp1945
g73
(dp1946
sg82
g1932
sg75
(lp1947
g68
(g69
g70
NtRp1948
(dp1949
g73
(dp1950
g81
I4
ssg82
g1944
sg75
(lp1951
g111
asbasbasbag68
(g84
g70
NtRp1952
(dp1953
g73
(dp1954
sg82
g1821
sg75
(lp1955
g68
(g89
g70
NtRp1956
(dp1957
g73
(dp1958
g93
g94
ssg82
g1952
sg75
(lp1959
g818
asbag68
(g89
g70
NtRp1960
(dp1961
g73
(dp1962
g100
g101
ssg82
g1952
sg75
(lp1963
S':'
asbag68
(g89
g70
NtRp1964
(dp1965
g73
(dp1966
sg82
g1952
sg75
(lp1967
g68
(g69
g70
NtRp1968
(dp1969
g73
(dp1970
g81
I4
ssg82
g1964
sg75
(lp1971
g831
asbasbasbag68
(g84
g70
NtRp1972
(dp1973
g73
(dp1974
sg82
g1821
sg75
(lp1975
g68
(g89
g70
NtRp1976
(dp1977
g73
(dp1978
g93
g94
ssg82
g1972
sg75
(lp1979
g1038
asbag68
(g89
g70
NtRp1980
(dp1981
g73
(dp1982
g100
g101
ssg82
g1972
sg75
(lp1983
S':'
asbag68
(g89
g70
NtRp1984
(dp1985
g73
(dp1986
sg82
g1972
sg75
(lp1987
g68
(g69
g70
NtRp1988
(dp1989
g73
(dp1990
g81
I4
ssg82
g1984
sg75
(lp1991
g111
asbasbasbag68
(g84
g70
NtRp1992
(dp1993
g73
(dp1994
sg82
g1821
sg75
(lp1995
g68
(g89
g70
NtRp1996
(dp1997
g73
(dp1998
g93
g94
ssg82
g1992
sg75
(lp1999
g1059
asbag68
(g89
g70
NtRp2000
(dp2001
g73
(dp2002
g100
g101
ssg82
g1992
sg75
(lp2003
S':'
asbag68
(g89
g70
NtRp2004
(dp2005
g73
(dp2006
sg82
g1992
sg75
(lp2007
g68
(g69
g70
NtRp2008
(dp2009
g73
(dp2010
g81
I4
ssg82
g2004
sg75
(lp2011
g111
asbasbasbag68
(g84
g70
NtRp2012
(dp2013
g73
(dp2014
sg82
g1821
sg75
(lp2015
g68
(g89
g70
NtRp2016
(dp2017
g73
(dp2018
g93
g94
ssg82
g2012
sg75
(lp2019
g1080
asbag68
(g89
g70
NtRp2020
(dp2021
g73
(dp2022
g100
g101
ssg82
g2012
sg75
(lp2023
S':'
asbag68
(g89
g70
NtRp2024
(dp2025
g73
(dp2026
sg82
g2012
sg75
(lp2027
g68
(g69
g70
NtRp2028
(dp2029
g73
(dp2030
g81
I4
ssg82
g2024
sg75
(lp2031
g68
(g77
g70
NtRp2032
(dp2033
g73
(dp2034
g81
I3
ssg82
Nsg75
(lp2035
g68
(g84
g70
NtRp2036
(dp2037
g73
(dp2038
sg82
g2032
sg75
(lp2039
g68
(g89
g70
NtRp2040
(dp2041
g73
(dp2042
sg82
g2036
sg75
(lp2043
g68
(g69
g70
NtRp2044
(dp2045
g73
(dp2046
g81
I3
ssg82
g2040
sg75
(lp2047
g1109
asbasbasbag68
(g84
g70
NtRp2048
(dp2049
g73
(dp2050
sg82
g2032
sg75
(lp2051
g68
(g89
g70
NtRp2052
(dp2053
g73
(dp2054
sg82
g2048
sg75
(lp2055
g68
(g69
g70
NtRp2056
(dp2057
g73
(dp2058
g81
I3
ssg82
g2052
sg75
(lp2059
g1122
asbasbasbag68
(g84
g70
NtRp2060
(dp2061
g73
(dp2062
sg82
g2032
sg75
(lp2063
g68
(g89
g70
NtRp2064
(dp2065
g73
(dp2066
sg82
g2060
sg75
(lp2067
g68
(g69
g70
NtRp2068
(dp2069
g73
(dp2070
g81
I3
ssg82
g2064
sg75
(lp2071
g1135
asbasbasbag68
(g84
g70
NtRp2072
(dp2073
g73
(dp2074
sg82
g2032
sg75
(lp2075
g68
(g89
g70
NtRp2076
(dp2077
g73
(dp2078
sg82
g2072
sg75
(lp2079
g68
(g69
g70
NtRp2080
(dp2081
g73
(dp2082
g81
I3
ssg82
g2076
sg75
(lp2083
g1148
asbasbasbag68
(g84
g70
NtRp2084
(dp2085
g73
(dp2086
sg82
g2032
sg75
(lp2087
g68
(g89
g70
NtRp2088
(dp2089
g73
(dp2090
sg82
g2084
sg75
(lp2091
g68
(g69
g70
NtRp2092
(dp2093
g73
(dp2094
g81
I3
ssg82
g2088
sg75
(lp2095
g1161
asbasbasbasbasbasbasbag68
(g84
g70
NtRp2096
(dp2097
g73
(dp2098
sg82
g1821
sg75
(lp2099
g68
(g89
g70
NtRp2100
(dp2101
g73
(dp2102
g93
g94
ssg82
g2096
sg75
(lp2103
g1429
asbag68
(g89
g70
NtRp2104
(dp2105
g73
(dp2106
g100
g101
ssg82
g2096
sg75
(lp2107
S':'
asbag68
(g89
g70
NtRp2108
(dp2109
g73
(dp2110
sg82
g2096
sg75
(lp2111
g68
(g69
g70
NtRp2112
(dp2113
g73
(dp2114
g81
I4
ssg82
g2108
sg75
(lp2115
g68
(g77
g70
NtRp2116
(dp2117
g73
(dp2118
g81
I3
ssg82
Nsg75
(lp2119
g68
(g84
g70
NtRp2120
(dp2121
g73
(dp2122
sg82
g2116
sg75
(lp2123
g68
(g89
g70
NtRp2124
(dp2125
g73
(dp2126
sg82
g2120
sg75
(lp2127
g68
(g69
g70
NtRp2128
(dp2129
g73
(dp2130
g81
I3
ssg82
g2124
sg75
(lp2131
S'2'
asbasbasbag68
(g84
g70
NtRp2132
(dp2133
g73
(dp2134
sg82
g2116
sg75
(lp2135
g68
(g89
g70
NtRp2136
(dp2137
g73
(dp2138
sg82
g2132
sg75
(lp2139
g68
(g69
g70
NtRp2140
(dp2141
g73
(dp2142
g81
I3
ssg82
g2136
sg75
(lp2143
S'3'
asbasbasbag68
(g84
g70
NtRp2144
(dp2145
g73
(dp2146
sg82
g2116
sg75
(lp2147
g68
(g89
g70
NtRp2148
(dp2149
g73
(dp2150
sg82
g2144
sg75
(lp2151
g68
(g69
g70
NtRp2152
(dp2153
g73
(dp2154
g81
I3
ssg82
g2148
sg75
(lp2155
S'2'
asbasbasbag68
(g84
g70
NtRp2156
(dp2157
g73
(dp2158
sg82
g2116
sg75
(lp2159
g68
(g89
g70
NtRp2160
(dp2161
g73
(dp2162
sg82
g2156
sg75
(lp2163
g68
(g69
g70
NtRp2164
(dp2165
g73
(dp2166
g81
I3
ssg82
g2160
sg75
(lp2167
S'datetime.datetime(2012, 12, 17, 15, 3, 30)'
p2168
asbasbasbag68
(g84
g70
NtRp2169
(dp2170
g73
(dp2171
sg82
g2116
sg75
(lp2172
g68
(g89
g70
NtRp2173
(dp2174
g73
(dp2175
sg82
g2169
sg75
(lp2176
g68
(g69
g70
NtRp2177
(dp2178
g73
(dp2179
g81
I3
ssg82
g2173
sg75
(lp2180
g1507
asbasbasbasbasbasbasbasbasbasbasbag68
(g84
g70
NtRp2181
(dp2182
g73
(dp2183
sg82
g78
sg75
(lp2184
g68
(g89
g70
NtRp2185
(dp2186
g73
(dp2187
g93
g94
ssg82
g2181
sg75
(lp2188
S'is_https'
p2189
asbag68
(g89
g70
NtRp2190
(dp2191
g73
(dp2192
g100
g101
ssg82
g2181
sg75
(lp2193
S':'
asbag68
(g89
g70
NtRp2194
(dp2195
g73
(dp2196
sg82
g2181
sg75
(lp2197
g68
(g69
g70
NtRp2198
(dp2199
g73
(dp2200
g81
I5
ssg82
g2194
sg75
(lp2201
g111
asbasbasbag68
(g84
g70
NtRp2202
(dp2203
g73
(dp2204
sg82
g78
sg75
(lp2205
g68
(g89
g70
NtRp2206
(dp2207
g73
(dp2208
g93
g94
ssg82
g2202
sg75
(lp2209
S'is_local'
p2210
asbag68
(g89
g70
NtRp2211
(dp2212
g73
(dp2213
g100
g101
ssg82
g2202
sg75
(lp2214
S':'
asbag68
(g89
g70
NtRp2215
(dp2216
g73
(dp2217
sg82
g2202
sg75
(lp2218
g68
(g69
g70
NtRp2219
(dp2220
g73
(dp2221
g81
I5
ssg82
g2215
sg75
(lp2222
g1616
asbasbasbag68
(g84
g70
NtRp2223
(dp2224
g73
(dp2225
sg82
g78
sg75
(lp2226
g68
(g89
g70
NtRp2227
(dp2228
g73
(dp2229
g93
g94
ssg82
g2223
sg75
(lp2230
S'is_restful'
p2231
asbag68
(g89
g70
NtRp2232
(dp2233
g73
(dp2234
g100
g101
ssg82
g2223
sg75
(lp2235
S':'
asbag68
(g89
g70
NtRp2236
(dp2237
g73
(dp2238
sg82
g2223
sg75
(lp2239
g68
(g69
g70
NtRp2240
(dp2241
g73
(dp2242
g81
I5
ssg82
g2236
sg75
(lp2243
g111
asbasbasbag68
(g84
g70
NtRp2244
(dp2245
g73
(dp2246
sg82
g78
sg75
(lp2247
g68
(g89
g70
NtRp2248
(dp2249
g73
(dp2250
g93
g94
ssg82
g2244
sg75
(lp2251
S'now'
p2252
asbag68
(g89
g70
NtRp2253
(dp2254
g73
(dp2255
g100
g101
ssg82
g2244
sg75
(lp2256
S':'
asbag68
(g89
g70
NtRp2257
(dp2258
g73
(dp2259
sg82
g2244
sg75
(lp2260
g68
(g69
g70
NtRp2261
(dp2262
g73
(dp2263
g81
I5
ssg82
g2257
sg75
(lp2264
S'datetime.datetime(2013, 2, 2, 11, 11, 50, 883269)'
p2265
asbasbasbag68
(g84
g70
NtRp2266
(dp2267
g73
(dp2268
sg82
g78
sg75
(lp2269
g68
(g89
g70
NtRp2270
(dp2271
g73
(dp2272
g93
g94
ssg82
g2266
sg75
(lp2273
S'post_vars'
p2274
asbag68
(g89
g70
NtRp2275
(dp2276
g73
(dp2277
g100
g101
ssg82
g2266
sg75
(lp2278
S':'
asbag68
(g89
g70
NtRp2279
(dp2280
g73
(dp2281
sg82
g2266
sg75
(lp2282
g68
(g69
g70
NtRp2283
(dp2284
g73
(dp2285
g81
I5
ssg82
g2279
sg75
(lp2286
g68
(g77
g70
NtRp2287
(dp2288
g73
(dp2289
g81
I4
ssg82
Nsg75
(lp2290
sbasbasbasbag68
(g84
g70
NtRp2291
(dp2292
g73
(dp2293
sg82
g78
sg75
(lp2294
g68
(g89
g70
NtRp2295
(dp2296
g73
(dp2297
g93
g94
ssg82
g2291
sg75
(lp2298
S'raw_args'
p2299
asbag68
(g89
g70
NtRp2300
(dp2301
g73
(dp2302
g100
g101
ssg82
g2291
sg75
(lp2303
S':'
asbag68
(g89
g70
NtRp2304
(dp2305
g73
(dp2306
sg82
g2291
sg75
(lp2307
g68
(g69
g70
NtRp2308
(dp2309
g73
(dp2310
g81
I5
ssg82
g2304
sg75
(lp2311
S''
asbasbasbag68
(g84
g70
NtRp2312
(dp2313
g73
(dp2314
sg82
g78
sg75
(lp2315
g68
(g89
g70
NtRp2316
(dp2317
g73
(dp2318
g93
g94
ssg82
g2312
sg75
(lp2319
S'raw_extension'
p2320
asbag68
(g89
g70
NtRp2321
(dp2322
g73
(dp2323
g100
g101
ssg82
g2312
sg75
(lp2324
S':'
asbag68
(g89
g70
NtRp2325
(dp2326
g73
(dp2327
sg82
g2312
sg75
(lp2328
g68
(g69
g70
NtRp2329
(dp2330
g73
(dp2331
g81
I5
ssg82
g2325
sg75
(lp2332
S'None'
p2333
asbasbasbag68
(g84
g70
NtRp2334
(dp2335
g73
(dp2336
sg82
g78
sg75
(lp2337
g68
(g89
g70
NtRp2338
(dp2339
g73
(dp2340
g93
g94
ssg82
g2334
sg75
(lp2341
S'url'
p2342
asbag68
(g89
g70
NtRp2343
(dp2344
g73
(dp2345
g100
g101
ssg82
g2334
sg75
(lp2346
S':'
asbag68
(g89
g70
NtRp2347
(dp2348
g73
(dp2349
sg82
g2334
sg75
(lp2350
g68
(g69
g70
NtRp2351
(dp2352
g73
(dp2353
g81
I5
ssg82
g2347
sg75
(lp2354
g1183
asbasbasbag68
(g84
g70
NtRp2355
(dp2356
g73
(dp2357
sg82
g78
sg75
(lp2358
g68
(g89
g70
NtRp2359
(dp2360
g73
(dp2361
g93
g94
ssg82
g2355
sg75
(lp2362
S'utcnow'
p2363
asbag68
(g89
g70
NtRp2364
(dp2365
g73
(dp2366
g100
g101
ssg82
g2355
sg75
(lp2367
S':'
asbag68
(g89
g70
NtRp2368
(dp2369
g73
(dp2370
sg82
g2355
sg75
(lp2371
g68
(g69
g70
NtRp2372
(dp2373
g73
(dp2374
g81
I5
ssg82
g2368
sg75
(lp2375
S'datetime.datetime(2013, 2, 2, 13, 11, 50, 883285)'
p2376
asbasbasbag68
(g84
g70
NtRp2377
(dp2378
g73
(dp2379
sg82
g78
sg75
(lp2380
g68
(g89
g70
NtRp2381
(dp2382
g73
(dp2383
g93
g94
ssg82
g2377
sg75
(lp2384
S'uuid'
p2385
asbag68
(g89
g70
NtRp2386
(dp2387
g73
(dp2388
g100
g101
ssg82
g2377
sg75
(lp2389
S':'
asbag68
(g89
g70
NtRp2390
(dp2391
g73
(dp2392
sg82
g2377
sg75
(lp2393
g68
(g69
g70
NtRp2394
(dp2395
g73
(dp2396
g81
I5
ssg82
g2390
sg75
(lp2397
S'irecycle/127.0.0.1.2013-02-02.11-11-50.2b643cfa-f867-46de-a1f4-9e7e6365fced'
p2398
asbasbasbag68
(g84
g70
NtRp2399
(dp2400
g73
(dp2401
sg82
g78
sg75
(lp2402
g68
(g89
g70
NtRp2403
(dp2404
g73
(dp2405
g93
g94
ssg82
g2399
sg75
(lp2406
S'vars'
p2407
asbag68
(g89
g70
NtRp2408
(dp2409
g73
(dp2410
g100
g101
ssg82
g2399
sg75
(lp2411
S':'
asbag68
(g89
g70
NtRp2412
(dp2413
g73
(dp2414
sg82
g2399
sg75
(lp2415
g68
(g69
g70
NtRp2416
(dp2417
g73
(dp2418
g81
I5
ssg82
g2412
sg75
(lp2419
g68
(g77
g70
NtRp2420
(dp2421
g73
(dp2422
g81
I4
ssg82
Nsg75
(lp2423
sbasbasbasbag68
(g84
g70
NtRp2424
(dp2425
g73
(dp2426
sg82
g78
sg75
(lp2427
g68
(g89
g70
NtRp2428
(dp2429
g73
(dp2430
g93
g94
ssg82
g2424
sg75
(lp2431
S'wsgi'
p2432
asbag68
(g89
g70
NtRp2433
(dp2434
g73
(dp2435
g100
g101
ssg82
g2424
sg75
(lp2436
S':'
asbag68
(g89
g70
NtRp2437
(dp2438
g73
(dp2439
sg82
g2424
sg75
(lp2440
g68
(g69
g70
NtRp2441
(dp2442
g73
(dp2443
g81
I5
ssg82
g2437
sg75
(lp2444
g68
(g77
g70
NtRp2445
(dp2446
g73
(dp2447
g81
I4
ssg82
Nsg75
(lp2448
g68
(g84
g70
NtRp2449
(dp2450
g73
(dp2451
sg82
g2445
sg75
(lp2452
g68
(g89
g70
NtRp2453
(dp2454
g73
(dp2455
g93
g94
ssg82
g2449
sg75
(lp2456
S'environ'
p2457
asbag68
(g89
g70
NtRp2458
(dp2459
g73
(dp2460
g100
g101
ssg82
g2449
sg75
(lp2461
S':'
asbag68
(g89
g70
NtRp2462
(dp2463
g73
(dp2464
sg82
g2449
sg75
(lp2465
g68
(g69
g70
NtRp2466
(dp2467
g73
(dp2468
g81
I4
ssg82
g2462
sg75
(lp2469
g68
(g77
g70
NtRp2470
(dp2471
g73
(dp2472
g81
I3
ssg82
Nsg75
(lp2473
g68
(g84
g70
NtRp2474
(dp2475
g73
(dp2476
sg82
g2470
sg75
(lp2477
g68
(g89
g70
NtRp2478
(dp2479
g73
(dp2480
g93
g94
ssg82
g2474
sg75
(lp2481
S'HTTP_ACCEPT'
p2482
asbag68
(g89
g70
NtRp2483
(dp2484
g73
(dp2485
g100
g101
ssg82
g2474
sg75
(lp2486
S':'
asbag68
(g89
g70
NtRp2487
(dp2488
g73
(dp2489
sg82
g2474
sg75
(lp2490
g68
(g69
g70
NtRp2491
(dp2492
g73
(dp2493
g81
I3
ssg82
g2487
sg75
(lp2494
g853
asbasbasbag68
(g84
g70
NtRp2495
(dp2496
g73
(dp2497
sg82
g2470
sg75
(lp2498
g68
(g89
g70
NtRp2499
(dp2500
g73
(dp2501
g93
g94
ssg82
g2495
sg75
(lp2502
S'HTTP_ACCEPT_CHARSET'
p2503
asbag68
(g89
g70
NtRp2504
(dp2505
g73
(dp2506
g100
g101
ssg82
g2495
sg75
(lp2507
S':'
asbag68
(g89
g70
NtRp2508
(dp2509
g73
(dp2510
sg82
g2495
sg75
(lp2511
g68
(g69
g70
NtRp2512
(dp2513
g73
(dp2514
g81
I3
ssg82
g2508
sg75
(lp2515
g875
asbasbasbag68
(g84
g70
NtRp2516
(dp2517
g73
(dp2518
sg82
g2470
sg75
(lp2519
g68
(g89
g70
NtRp2520
(dp2521
g73
(dp2522
g93
g94
ssg82
g2516
sg75
(lp2523
S'HTTP_ACCEPT_ENCODING'
p2524
asbag68
(g89
g70
NtRp2525
(dp2526
g73
(dp2527
g100
g101
ssg82
g2516
sg75
(lp2528
S':'
asbag68
(g89
g70
NtRp2529
(dp2530
g73
(dp2531
sg82
g2516
sg75
(lp2532
g68
(g69
g70
NtRp2533
(dp2534
g73
(dp2535
g81
I3
ssg82
g2529
sg75
(lp2536
g897
asbasbasbag68
(g84
g70
NtRp2537
(dp2538
g73
(dp2539
sg82
g2470
sg75
(lp2540
g68
(g89
g70
NtRp2541
(dp2542
g73
(dp2543
g93
g94
ssg82
g2537
sg75
(lp2544
S'HTTP_ACCEPT_LANGUAGE'
p2545
asbag68
(g89
g70
NtRp2546
(dp2547
g73
(dp2548
g100
g101
ssg82
g2537
sg75
(lp2549
S':'
asbag68
(g89
g70
NtRp2550
(dp2551
g73
(dp2552
sg82
g2537
sg75
(lp2553
g68
(g69
g70
NtRp2554
(dp2555
g73
(dp2556
g81
I3
ssg82
g2550
sg75
(lp2557
g919
asbasbasbag68
(g84
g70
NtRp2558
(dp2559
g73
(dp2560
sg82
g2470
sg75
(lp2561
g68
(g89
g70
NtRp2562
(dp2563
g73
(dp2564
g93
g94
ssg82
g2558
sg75
(lp2565
S'HTTP_CONNECTION'
p2566
asbag68
(g89
g70
NtRp2567
(dp2568
g73
(dp2569
g100
g101
ssg82
g2558
sg75
(lp2570
S':'
asbag68
(g89
g70
NtRp2571
(dp2572
g73
(dp2573
sg82
g2558
sg75
(lp2574
g68
(g69
g70
NtRp2575
(dp2576
g73
(dp2577
g81
I3
ssg82
g2571
sg75
(lp2578
g941
asbasbasbag68
(g84
g70
NtRp2579
(dp2580
g73
(dp2581
sg82
g2470
sg75
(lp2582
g68
(g89
g70
NtRp2583
(dp2584
g73
(dp2585
g93
g94
ssg82
g2579
sg75
(lp2586
S'HTTP_COOKIE'
p2587
asbag68
(g89
g70
NtRp2588
(dp2589
g73
(dp2590
g100
g101
ssg82
g2579
sg75
(lp2591
S':'
asbag68
(g89
g70
NtRp2592
(dp2593
g73
(dp2594
sg82
g2579
sg75
(lp2595
g68
(g69
g70
NtRp2596
(dp2597
g73
(dp2598
g81
I3
ssg82
g2592
sg75
(lp2599
g963
asbasbasbag68
(g84
g70
NtRp2600
(dp2601
g73
(dp2602
sg82
g2470
sg75
(lp2603
g68
(g89
g70
NtRp2604
(dp2605
g73
(dp2606
g93
g94
ssg82
g2600
sg75
(lp2607
S'HTTP_HOST'
p2608
asbag68
(g89
g70
NtRp2609
(dp2610
g73
(dp2611
g100
g101
ssg82
g2600
sg75
(lp2612
S':'
asbag68
(g89
g70
NtRp2613
(dp2614
g73
(dp2615
sg82
g2600
sg75
(lp2616
g68
(g69
g70
NtRp2617
(dp2618
g73
(dp2619
g81
I3
ssg82
g2613
sg75
(lp2620
g985
asbasbasbag68
(g84
g70
NtRp2621
(dp2622
g73
(dp2623
sg82
g2470
sg75
(lp2624
g68
(g89
g70
NtRp2625
(dp2626
g73
(dp2627
g93
g94
ssg82
g2621
sg75
(lp2628
S'HTTP_REFERER'
p2629
asbag68
(g89
g70
NtRp2630
(dp2631
g73
(dp2632
g100
g101
ssg82
g2621
sg75
(lp2633
S':'
asbag68
(g89
g70
NtRp2634
(dp2635
g73
(dp2636
sg82
g2621
sg75
(lp2637
g68
(g69
g70
NtRp2638
(dp2639
g73
(dp2640
g81
I3
ssg82
g2634
sg75
(lp2641
g1007
asbasbasbag68
(g84
g70
NtRp2642
(dp2643
g73
(dp2644
sg82
g2470
sg75
(lp2645
g68
(g89
g70
NtRp2646
(dp2647
g73
(dp2648
g93
g94
ssg82
g2642
sg75
(lp2649
S'HTTP_USER_AGENT'
p2650
asbag68
(g89
g70
NtRp2651
(dp2652
g73
(dp2653
g100
g101
ssg82
g2642
sg75
(lp2654
S':'
asbag68
(g89
g70
NtRp2655
(dp2656
g73
(dp2657
sg82
g2642
sg75
(lp2658
g68
(g69
g70
NtRp2659
(dp2660
g73
(dp2661
g81
I3
ssg82
g2655
sg75
(lp2662
g1029
asbasbasbag68
(g84
g70
NtRp2663
(dp2664
g73
(dp2665
sg82
g2470
sg75
(lp2666
g68
(g89
g70
NtRp2667
(dp2668
g73
(dp2669
g93
g94
ssg82
g2663
sg75
(lp2670
S'PATH_INFO'
p2671
asbag68
(g89
g70
NtRp2672
(dp2673
g73
(dp2674
g100
g101
ssg82
g2663
sg75
(lp2675
S':'
asbag68
(g89
g70
NtRp2676
(dp2677
g73
(dp2678
sg82
g2663
sg75
(lp2679
g68
(g69
g70
NtRp2680
(dp2681
g73
(dp2682
g81
I3
ssg82
g2676
sg75
(lp2683
g1183
asbasbasbag68
(g84
g70
NtRp2684
(dp2685
g73
(dp2686
sg82
g2470
sg75
(lp2687
g68
(g89
g70
NtRp2688
(dp2689
g73
(dp2690
g93
g94
ssg82
g2684
sg75
(lp2691
S'QUERY_STRING'
p2692
asbag68
(g89
g70
NtRp2693
(dp2694
g73
(dp2695
g100
g101
ssg82
g2684
sg75
(lp2696
S':'
asbag68
(g89
g70
NtRp2697
(dp2698
g73
(dp2699
sg82
g2684
sg75
(lp2700
g68
(g69
g70
NtRp2701
(dp2702
g73
(dp2703
g81
I3
ssg82
g2697
sg75
(lp2704
S''
asbasbasbag68
(g84
g70
NtRp2705
(dp2706
g73
(dp2707
sg82
g2470
sg75
(lp2708
g68
(g89
g70
NtRp2709
(dp2710
g73
(dp2711
g93
g94
ssg82
g2705
sg75
(lp2712
S'REMOTE_ADDR'
p2713
asbag68
(g89
g70
NtRp2714
(dp2715
g73
(dp2716
g100
g101
ssg82
g2705
sg75
(lp2717
S':'
asbag68
(g89
g70
NtRp2718
(dp2719
g73
(dp2720
sg82
g2705
sg75
(lp2721
g68
(g69
g70
NtRp2722
(dp2723
g73
(dp2724
g81
I3
ssg82
g2718
sg75
(lp2725
g223
asbasbasbag68
(g84
g70
NtRp2726
(dp2727
g73
(dp2728
sg82
g2470
sg75
(lp2729
g68
(g89
g70
NtRp2730
(dp2731
g73
(dp2732
g93
g94
ssg82
g2726
sg75
(lp2733
S'REMOTE_PORT'
p2734
asbag68
(g89
g70
NtRp2735
(dp2736
g73
(dp2737
g100
g101
ssg82
g2726
sg75
(lp2738
S':'
asbag68
(g89
g70
NtRp2739
(dp2740
g73
(dp2741
sg82
g2726
sg75
(lp2742
g68
(g69
g70
NtRp2743
(dp2744
g73
(dp2745
g81
I3
ssg82
g2739
sg75
(lp2746
g1247
asbasbasbag68
(g84
g70
NtRp2747
(dp2748
g73
(dp2749
sg82
g2470
sg75
(lp2750
g68
(g89
g70
NtRp2751
(dp2752
g73
(dp2753
g93
g94
ssg82
g2747
sg75
(lp2754
S'REQUEST_METHOD'
p2755
asbag68
(g89
g70
NtRp2756
(dp2757
g73
(dp2758
g100
g101
ssg82
g2747
sg75
(lp2759
S':'
asbag68
(g89
g70
NtRp2760
(dp2761
g73
(dp2762
sg82
g2747
sg75
(lp2763
g68
(g69
g70
NtRp2764
(dp2765
g73
(dp2766
g81
I3
ssg82
g2760
sg75
(lp2767
g1269
asbasbasbag68
(g84
g70
NtRp2768
(dp2769
g73
(dp2770
sg82
g2470
sg75
(lp2771
g68
(g89
g70
NtRp2772
(dp2773
g73
(dp2774
g93
g94
ssg82
g2768
sg75
(lp2775
S'REQUEST_URI'
p2776
asbag68
(g89
g70
NtRp2777
(dp2778
g73
(dp2779
g100
g101
ssg82
g2768
sg75
(lp2780
S':'
asbag68
(g89
g70
NtRp2781
(dp2782
g73
(dp2783
sg82
g2768
sg75
(lp2784
g68
(g69
g70
NtRp2785
(dp2786
g73
(dp2787
g81
I3
ssg82
g2781
sg75
(lp2788
g1183
asbasbasbag68
(g84
g70
NtRp2789
(dp2790
g73
(dp2791
sg82
g2470
sg75
(lp2792
g68
(g89
g70
NtRp2793
(dp2794
g73
(dp2795
g93
g94
ssg82
g2789
sg75
(lp2796
S'SCRIPT_NAME'
p2797
asbag68
(g89
g70
NtRp2798
(dp2799
g73
(dp2800
g100
g101
ssg82
g2789
sg75
(lp2801
S':'
asbag68
(g89
g70
NtRp2802
(dp2803
g73
(dp2804
sg82
g2789
sg75
(lp2805
g68
(g69
g70
NtRp2806
(dp2807
g73
(dp2808
g81
I3
ssg82
g2802
sg75
(lp2809
S''
asbasbasbag68
(g84
g70
NtRp2810
(dp2811
g73
(dp2812
sg82
g2470
sg75
(lp2813
g68
(g89
g70
NtRp2814
(dp2815
g73
(dp2816
g93
g94
ssg82
g2810
sg75
(lp2817
S'SERVER_NAME'
p2818
asbag68
(g89
g70
NtRp2819
(dp2820
g73
(dp2821
g100
g101
ssg82
g2810
sg75
(lp2822
S':'
asbag68
(g89
g70
NtRp2823
(dp2824
g73
(dp2825
sg82
g2810
sg75
(lp2826
g68
(g69
g70
NtRp2827
(dp2828
g73
(dp2829
g81
I3
ssg82
g2823
sg75
(lp2830
g1333
asbasbasbag68
(g84
g70
NtRp2831
(dp2832
g73
(dp2833
sg82
g2470
sg75
(lp2834
g68
(g89
g70
NtRp2835
(dp2836
g73
(dp2837
g93
g94
ssg82
g2831
sg75
(lp2838
S'SERVER_PORT'
p2839
asbag68
(g89
g70
NtRp2840
(dp2841
g73
(dp2842
g100
g101
ssg82
g2831
sg75
(lp2843
S':'
asbag68
(g89
g70
NtRp2844
(dp2845
g73
(dp2846
sg82
g2831
sg75
(lp2847
g68
(g69
g70
NtRp2848
(dp2849
g73
(dp2850
g81
I3
ssg82
g2844
sg75
(lp2851
g1355
asbasbasbag68
(g84
g70
NtRp2852
(dp2853
g73
(dp2854
sg82
g2470
sg75
(lp2855
g68
(g89
g70
NtRp2856
(dp2857
g73
(dp2858
g93
g94
ssg82
g2852
sg75
(lp2859
S'SERVER_PROTOCOL'
p2860
asbag68
(g89
g70
NtRp2861
(dp2862
g73
(dp2863
g100
g101
ssg82
g2852
sg75
(lp2864
S':'
asbag68
(g89
g70
NtRp2865
(dp2866
g73
(dp2867
sg82
g2852
sg75
(lp2868
g68
(g69
g70
NtRp2869
(dp2870
g73
(dp2871
g81
I3
ssg82
g2865
sg75
(lp2872
g1377
asbasbasbag68
(g84
g70
NtRp2873
(dp2874
g73
(dp2875
sg82
g2470
sg75
(lp2876
g68
(g89
g70
NtRp2877
(dp2878
g73
(dp2879
g93
g94
ssg82
g2873
sg75
(lp2880
S'SERVER_SOFTWARE'
p2881
asbag68
(g89
g70
NtRp2882
(dp2883
g73
(dp2884
g100
g101
ssg82
g2873
sg75
(lp2885
S':'
asbag68
(g89
g70
NtRp2886
(dp2887
g73
(dp2888
sg82
g2873
sg75
(lp2889
g68
(g69
g70
NtRp2890
(dp2891
g73
(dp2892
g81
I3
ssg82
g2886
sg75
(lp2893
g1399
asbasbasbag68
(g84
g70
NtRp2894
(dp2895
g73
(dp2896
sg82
g2470
sg75
(lp2897
g68
(g89
g70
NtRp2898
(dp2899
g73
(dp2900
g93
g94
ssg82
g2894
sg75
(lp2901
S'wsgi.errors'
p2902
asbag68
(g89
g70
NtRp2903
(dp2904
g73
(dp2905
g100
g101
ssg82
g2894
sg75
(lp2906
S':'
asbag68
(g89
g70
NtRp2907
(dp2908
g73
(dp2909
sg82
g2894
sg75
(lp2910
g68
(g69
g70
NtRp2911
(dp2912
g73
(dp2913
g81
I3
ssg82
g2907
sg75
(lp2914
S"<open file '<stderr>', mode 'w' at 0x7f2c54870270>"
p2915
asbasbasbag68
(g84
g70
NtRp2916
(dp2917
g73
(dp2918
sg82
g2470
sg75
(lp2919
g68
(g89
g70
NtRp2920
(dp2921
g73
(dp2922
g93
g94
ssg82
g2916
sg75
(lp2923
S'wsgi.file_wrapper'
p2924
asbag68
(g89
g70
NtRp2925
(dp2926
g73
(dp2927
g100
g101
ssg82
g2916
sg75
(lp2928
S':'
asbag68
(g89
g70
NtRp2929
(dp2930
g73
(dp2931
sg82
g2916
sg75
(lp2932
g68
(g69
g70
NtRp2933
(dp2934
g73
(dp2935
g81
I3
ssg82
g2929
sg75
(lp2936
S'<class wsgiref.util.FileWrapper at 0x28f0738>'
p2937
asbasbasbag68
(g84
g70
NtRp2938
(dp2939
g73
(dp2940
sg82
g2470
sg75
(lp2941
g68
(g89
g70
NtRp2942
(dp2943
g73
(dp2944
g93
g94
ssg82
g2938
sg75
(lp2945
S'wsgi.input'
p2946
asbag68
(g89
g70
NtRp2947
(dp2948
g73
(dp2949
g100
g101
ssg82
g2938
sg75
(lp2950
S':'
asbag68
(g89
g70
NtRp2951
(dp2952
g73
(dp2953
sg82
g2938
sg75
(lp2954
g68
(g69
g70
NtRp2955
(dp2956
g73
(dp2957
g81
I3
ssg82
g2951
sg75
(lp2958
S'<cStringIO.StringO object at 0x7f2c203bfdc0>'
p2959
asbasbasbag68
(g84
g70
NtRp2960
(dp2961
g73
(dp2962
sg82
g2470
sg75
(lp2963
g68
(g89
g70
NtRp2964
(dp2965
g73
(dp2966
g93
g94
ssg82
g2960
sg75
(lp2967
S'wsgi.multiprocess'
p2968
asbag68
(g89
g70
NtRp2969
(dp2970
g73
(dp2971
g100
g101
ssg82
g2960
sg75
(lp2972
S':'
asbag68
(g89
g70
NtRp2973
(dp2974
g73
(dp2975
sg82
g2960
sg75
(lp2976
g68
(g69
g70
NtRp2977
(dp2978
g73
(dp2979
g81
I3
ssg82
g2973
sg75
(lp2980
g111
asbasbasbag68
(g84
g70
NtRp2981
(dp2982
g73
(dp2983
sg82
g2470
sg75
(lp2984
g68
(g89
g70
NtRp2985
(dp2986
g73
(dp2987
g93
g94
ssg82
g2981
sg75
(lp2988
S'wsgi.multithread'
p2989
asbag68
(g89
g70
NtRp2990
(dp2991
g73
(dp2992
g100
g101
ssg82
g2981
sg75
(lp2993
S':'
asbag68
(g89
g70
NtRp2994
(dp2995
g73
(dp2996
sg82
g2981
sg75
(lp2997
g68
(g69
g70
NtRp2998
(dp2999
g73
(dp3000
g81
I3
ssg82
g2994
sg75
(lp3001
g1616
asbasbasbag68
(g84
g70
NtRp3002
(dp3003
g73
(dp3004
sg82
g2470
sg75
(lp3005
g68
(g89
g70
NtRp3006
(dp3007
g73
(dp3008
g93
g94
ssg82
g3002
sg75
(lp3009
S'wsgi.run_once'
p3010
asbag68
(g89
g70
NtRp3011
(dp3012
g73
(dp3013
g100
g101
ssg82
g3002
sg75
(lp3014
S':'
asbag68
(g89
g70
NtRp3015
(dp3016
g73
(dp3017
sg82
g3002
sg75
(lp3018
g68
(g69
g70
NtRp3019
(dp3020
g73
(dp3021
g81
I3
ssg82
g3015
sg75
(lp3022
g111
asbasbasbag68
(g84
g70
NtRp3023
(dp3024
g73
(dp3025
sg82
g2470
sg75
(lp3026
g68
(g89
g70
NtRp3027
(dp3028
g73
(dp3029
g93
g94
ssg82
g3023
sg75
(lp3030
S'wsgi.url_scheme'
p3031
asbag68
(g89
g70
NtRp3032
(dp3033
g73
(dp3034
g100
g101
ssg82
g3023
sg75
(lp3035
S':'
asbag68
(g89
g70
NtRp3036
(dp3037
g73
(dp3038
sg82
g3023
sg75
(lp3039
g68
(g69
g70
NtRp3040
(dp3041
g73
(dp3042
g81
I3
ssg82
g3036
sg75
(lp3043
g1659
asbasbasbag68
(g84
g70
NtRp3044
(dp3045
g73
(dp3046
sg82
g2470
sg75
(lp3047
g68
(g89
g70
NtRp3048
(dp3049
g73
(dp3050
g93
g94
ssg82
g3044
sg75
(lp3051
S'wsgi.version'
p3052
asbag68
(g89
g70
NtRp3053
(dp3054
g73
(dp3055
g100
g101
ssg82
g3044
sg75
(lp3056
S':'
asbag68
(g89
g70
NtRp3057
(dp3058
g73
(dp3059
sg82
g3044
sg75
(lp3060
g68
(g69
g70
NtRp3061
(dp3062
g73
(dp3063
g81
I3
ssg82
g3057
sg75
(lp3064
S'1'
asbasbasbasbasbasbasbasbasbasbasbasbasbsS'frames'
p3065
(lp3066
(dp3067
S'file'
p3068
S'/home/diego/web2py/gluon/restricted.py'
p3069
sS'dump'
p3070
(dp3071
S'code'
p3072
S"'def contact():\\n\\tu_cont = User(a0 or me)\\n\\tcont = ...t=cont)\\nresponse._vars=response._caller(contact)\\n'"
p3073
sS'layer'
p3074
S"'/home/diego/web2py/applications/irecycle/controllers/contact.py'"
p3075
sS'global compile2'
p3076
S'<function compile2>'
p3077
sS'ccode'
p3078
S'undefined'
p3079
ssS'lnum'
p3080
I211
sS'lines'
p3081
(dp3082
I206
S"    environment['__name__'] = '__restricted__'"
p3083
sI207
S'    try:'
p3084
sI208
S'        if isinstance(code, types.CodeType):'
p3085
sI209
S'            ccode = code'
p3086
sI210
S'        else:'
p3087
sI211
S'            ccode = compile2(code, layer)'
p3088
sI212
S'        exec ccode in environment'
p3089
sI213
S'    except HTTP:'
p3090
sI214
S'        raise'
p3091
sI215
S'    except RestrictedError:'
p3092
ssS'call'
p3093
S"(code='def contact():\\n\\tu_cont = User(a0 or me)\\n\\tcont = ...t=cont)\\nresponse._vars=response._caller(contact)\\n', environment={'A': <class 'gluon.html.A'>, 'Auth': <class 'gluon.tools.Auth'>, 'B': <class 'gluon.html.B'>, 'BEAUTIFY': <class 'gluon.html.BEAUTIFY'>, 'BODY': <class 'gluon.html.BODY'>, 'BR': <class 'gluon.html.BR'>, 'BUTTON': <class 'gluon.html.BUTTON'>, 'CAT': <class 'gluon.html.CAT'>, 'CENTER': <class 'gluon.html.CENTER'>, 'CLEANUP': <class 'gluon.validators.CLEANUP'>, ...}, layer='/home/diego/web2py/applications/irecycle/controllers/contact.py')"
p3094
sS'func'
p3095
S'restricted'
p3096
sa(dp3097
g3068
S'/home/diego/web2py/gluon/restricted.py'
p3098
sg3070
(dp3099
S'builtincompile'
p3100
S'<built-in function compile>'
p3101
sS'code'
p3102
S"'def contact():\\n\\tu_cont = User(a0 or me)\\n\\tcont = ...t=cont)\\nresponse._vars=response._caller(contact)\\n'"
p3103
sS'code.rstrip'
p3104
S'<built-in method rstrip of str object>'
p3105
sS').replace'
p3106
g3079
sS'layer'
p3107
S"'/home/diego/web2py/applications/irecycle/controllers/contact.py'"
p3108
ssg3080
I194
sg3081
(dp3109
I192
S"    The +'\\n' is necessary else compile fails when code ends in a comment."
p3110
sI193
S'    """'
p3111
sI194
S"    return compile(code.rstrip().replace('\\r\\n', '\\n') + '\\n', layer, 'exec')"
p3112
sI195
S''
sI196
S''
sI197
S"def restricted(code, environment=None, layer='Unknown'):"
p3113
sI198
S'    """'
p3114
sI189
S''
sI190
S'def compile2(code, layer):'
p3115
sI191
S'    """'
p3116
ssg3093
S"(code='def contact():\\n\\tu_cont = User(a0 or me)\\n\\tcont = ...t=cont)\\nresponse._vars=response._caller(contact)\\n', layer='/home/diego/web2py/applications/irecycle/controllers/contact.py')"
p3117
sg3095
S'compile2'
p3118
sasS'pyver'
p3119
S'Python 2.7.3: /usr/bin/python'
p3120
sS'session'
p3121
g68
(g69
g70
NtRp3122
(dp3123
g73
(dp3124
sg75
(lp3125
g68
(g77
g70
NtRp3126
(dp3127
g73
(dp3128
g81
I5
ssg82
Nsg75
(lp3129
g68
(g84
g70
NtRp3130
(dp3131
g73
(dp3132
sg82
g3126
sg75
(lp3133
g68
(g89
g70
NtRp3134
(dp3135
g73
(dp3136
g93
g94
ssg82
g3130
sg75
(lp3137
S'auth'
p3138
asbag68
(g89
g70
NtRp3139
(dp3140
g73
(dp3141
g100
g101
ssg82
g3130
sg75
(lp3142
S':'
asbag68
(g89
g70
NtRp3143
(dp3144
g73
(dp3145
sg82
g3130
sg75
(lp3146
g68
(g69
g70
NtRp3147
(dp3148
g73
(dp3149
g81
I5
ssg82
g3143
sg75
(lp3150
S'None'
p3151
asbasbasbag68
(g84
g70
NtRp3152
(dp3153
g73
(dp3154
sg82
g3126
sg75
(lp3155
g68
(g89
g70
NtRp3156
(dp3157
g73
(dp3158
g93
g94
ssg82
g3152
sg75
(lp3159
S'flash'
p3160
asbag68
(g89
g70
NtRp3161
(dp3162
g73
(dp3163
g100
g101
ssg82
g3152
sg75
(lp3164
S':'
asbag68
(g89
g70
NtRp3165
(dp3166
g73
(dp3167
sg82
g3152
sg75
(lp3168
g68
(g69
g70
NtRp3169
(dp3170
g73
(dp3171
g81
I5
ssg82
g3165
sg75
(lp3172
S'None'
p3173
asbasbasbag68
(g84
g70
NtRp3174
(dp3175
g73
(dp3176
sg82
g3126
sg75
(lp3177
g68
(g89
g70
NtRp3178
(dp3179
g73
(dp3180
g93
g94
ssg82
g3174
sg75
(lp3181
S'last_orderby'
p3182
asbag68
(g89
g70
NtRp3183
(dp3184
g73
(dp3185
g100
g101
ssg82
g3174
sg75
(lp3186
S':'
asbag68
(g89
g70
NtRp3187
(dp3188
g73
(dp3189
sg82
g3174
sg75
(lp3190
g68
(g69
g70
NtRp3191
(dp3192
g73
(dp3193
g81
I5
ssg82
g3187
sg75
(lp3194
S'None'
p3195
asbasbasbag68
(g84
g70
NtRp3196
(dp3197
g73
(dp3198
sg82
g3126
sg75
(lp3199
g68
(g89
g70
NtRp3200
(dp3201
g73
(dp3202
g93
g94
ssg82
g3196
sg75
(lp3203
S'last_query'
p3204
asbag68
(g89
g70
NtRp3205
(dp3206
g73
(dp3207
g100
g101
ssg82
g3196
sg75
(lp3208
S':'
asbag68
(g89
g70
NtRp3209
(dp3210
g73
(dp3211
sg82
g3196
sg75
(lp3212
g68
(g69
g70
NtRp3213
(dp3214
g73
(dp3215
g81
I5
ssg82
g3209
sg75
(lp3216
S'db.auth_user.id>0'
p3217
asbasbasbasbasbsS'etype'
p3218
S"<type 'exceptions.SyntaxError'>"
p3219
sS'date'
p3220
S'Sat Feb  2 11:11:50 2013'
p3221
sS'response'
p3222
g68
(g69
g70
NtRp3223
(dp3224
g73
(dp3225
sg75
(lp3226
g68
(g77
g70
NtRp3227
(dp3228
g73
(dp3229
g81
I5
ssg82
Nsg75
(lp3230
g68
(g84
g70
NtRp3231
(dp3232
g73
(dp3233
sg82
g3227
sg75
(lp3234
g68
(g89
g70
NtRp3235
(dp3236
g73
(dp3237
g93
g94
ssg82
g3231
sg75
(lp3238
g166
asbag68
(g89
g70
NtRp3239
(dp3240
g73
(dp3241
g100
g101
ssg82
g3231
sg75
(lp3242
S':'
asbag68
(g89
g70
NtRp3243
(dp3244
g73
(dp3245
sg82
g3231
sg75
(lp3246
g68
(g69
g70
NtRp3247
(dp3248
g73
(dp3249
g81
I5
ssg82
g3243
sg75
(lp3250
S'<cStringIO.StringO object at 0x299a768>'
p3251
asbasbasbag68
(g84
g70
NtRp3252
(dp3253
g73
(dp3254
sg82
g3227
sg75
(lp3255
g68
(g89
g70
NtRp3256
(dp3257
g73
(dp3258
g93
g94
ssg82
g3252
sg75
(lp3259
g254
asbag68
(g89
g70
NtRp3260
(dp3261
g73
(dp3262
g100
g101
ssg82
g3252
sg75
(lp3263
S':'
asbag68
(g89
g70
NtRp3264
(dp3265
g73
(dp3266
sg82
g3252
sg75
(lp3267
g68
(g69
g70
NtRp3268
(dp3269
g73
(dp3270
g81
I5
ssg82
g3264
sg75
(lp3271
g68
(g77
g70
NtRp3272
(dp3273
g73
(dp3274
g81
I4
ssg82
Nsg75
(lp3275
g68
(g84
g70
NtRp3276
(dp3277
g73
(dp3278
sg82
g3272
sg75
(lp3279
g68
(g89
g70
NtRp3280
(dp3281
g73
(dp3282
g93
g94
ssg82
g3276
sg75
(lp3283
S'session_id_irecycle'
p3284
asbag68
(g89
g70
NtRp3285
(dp3286
g73
(dp3287
g100
g101
ssg82
g3276
sg75
(lp3288
S':'
asbag68
(g89
g70
NtRp3289
(dp3290
g73
(dp3291
sg82
g3276
sg75
(lp3292
g68
(g69
g70
NtRp3293
(dp3294
g73
(dp3295
g81
I4
ssg82
g3289
sg75
(lp3296
g486
ag68
(g77
g70
NtRp3297
(dp3298
g73
(dp3299
g81
I3
ssg82
Nsg75
(lp3300
g68
(g84
g70
NtRp3301
(dp3302
g73
(dp3303
sg82
g3297
sg75
(lp3304
g68
(g89
g70
NtRp3305
(dp3306
g73
(dp3307
g93
g94
ssg82
g3301
sg75
(lp3308
g305
asbag68
(g89
g70
NtRp3309
(dp3310
g73
(dp3311
g100
g101
ssg82
g3301
sg75
(lp3312
S':'
asbag68
(g89
g70
NtRp3313
(dp3314
g73
(dp3315
sg82
g3301
sg75
(lp3316
g68
(g69
g70
NtRp3317
(dp3318
g73
(dp3319
g81
I3
ssg82
g3313
sg75
(lp3320
S''
asbasbasbag68
(g84
g70
NtRp3321
(dp3322
g73
(dp3323
sg82
g3297
sg75
(lp3324
g68
(g89
g70
NtRp3325
(dp3326
g73
(dp3327
g93
g94
ssg82
g3321
sg75
(lp3328
g326
asbag68
(g89
g70
NtRp3329
(dp3330
g73
(dp3331
g100
g101
ssg82
g3321
sg75
(lp3332
S':'
asbag68
(g89
g70
NtRp3333
(dp3334
g73
(dp3335
sg82
g3321
sg75
(lp3336
g68
(g69
g70
NtRp3337
(dp3338
g73
(dp3339
g81
I3
ssg82
g3333
sg75
(lp3340
S''
asbasbasbag68
(g84
g70
NtRp3341
(dp3342
g73
(dp3343
sg82
g3297
sg75
(lp3344
g68
(g89
g70
NtRp3345
(dp3346
g73
(dp3347
g93
g94
ssg82
g3341
sg75
(lp3348
g347
asbag68
(g89
g70
NtRp3349
(dp3350
g73
(dp3351
g100
g101
ssg82
g3341
sg75
(lp3352
S':'
asbag68
(g89
g70
NtRp3353
(dp3354
g73
(dp3355
sg82
g3341
sg75
(lp3356
g68
(g69
g70
NtRp3357
(dp3358
g73
(dp3359
g81
I3
ssg82
g3353
sg75
(lp3360
S''
asbasbasbag68
(g84
g70
NtRp3361
(dp3362
g73
(dp3363
sg82
g3297
sg75
(lp3364
g68
(g89
g70
NtRp3365
(dp3366
g73
(dp3367
g93
g94
ssg82
g3361
sg75
(lp3368
g368
asbag68
(g89
g70
NtRp3369
(dp3370
g73
(dp3371
g100
g101
ssg82
g3361
sg75
(lp3372
S':'
asbag68
(g89
g70
NtRp3373
(dp3374
g73
(dp3375
sg82
g3361
sg75
(lp3376
g68
(g69
g70
NtRp3377
(dp3378
g73
(dp3379
g81
I3
ssg82
g3373
sg75
(lp3380
S''
asbasbasbag68
(g84
g70
NtRp3381
(dp3382
g73
(dp3383
sg82
g3297
sg75
(lp3384
g68
(g89
g70
NtRp3385
(dp3386
g73
(dp3387
g93
g94
ssg82
g3381
sg75
(lp3388
g389
asbag68
(g89
g70
NtRp3389
(dp3390
g73
(dp3391
g100
g101
ssg82
g3381
sg75
(lp3392
S':'
asbag68
(g89
g70
NtRp3393
(dp3394
g73
(dp3395
sg82
g3381
sg75
(lp3396
g68
(g69
g70
NtRp3397
(dp3398
g73
(dp3399
g81
I3
ssg82
g3393
sg75
(lp3400
S''
asbasbasbag68
(g84
g70
NtRp3401
(dp3402
g73
(dp3403
sg82
g3297
sg75
(lp3404
g68
(g89
g70
NtRp3405
(dp3406
g73
(dp3407
g93
g94
ssg82
g3401
sg75
(lp3408
g410
asbag68
(g89
g70
NtRp3409
(dp3410
g73
(dp3411
g100
g101
ssg82
g3401
sg75
(lp3412
S':'
asbag68
(g89
g70
NtRp3413
(dp3414
g73
(dp3415
sg82
g3401
sg75
(lp3416
g68
(g69
g70
NtRp3417
(dp3418
g73
(dp3419
g81
I3
ssg82
g3413
sg75
(lp3420
S'/'
asbasbasbag68
(g84
g70
NtRp3421
(dp3422
g73
(dp3423
sg82
g3297
sg75
(lp3424
g68
(g89
g70
NtRp3425
(dp3426
g73
(dp3427
g93
g94
ssg82
g3421
sg75
(lp3428
g431
asbag68
(g89
g70
NtRp3429
(dp3430
g73
(dp3431
g100
g101
ssg82
g3421
sg75
(lp3432
S':'
asbag68
(g89
g70
NtRp3433
(dp3434
g73
(dp3435
sg82
g3421
sg75
(lp3436
g68
(g69
g70
NtRp3437
(dp3438
g73
(dp3439
g81
I3
ssg82
g3433
sg75
(lp3440
S''
asbasbasbag68
(g84
g70
NtRp3441
(dp3442
g73
(dp3443
sg82
g3297
sg75
(lp3444
g68
(g89
g70
NtRp3445
(dp3446
g73
(dp3447
g93
g94
ssg82
g3441
sg75
(lp3448
g452
asbag68
(g89
g70
NtRp3449
(dp3450
g73
(dp3451
g100
g101
ssg82
g3441
sg75
(lp3452
S':'
asbag68
(g89
g70
NtRp3453
(dp3454
g73
(dp3455
sg82
g3441
sg75
(lp3456
g68
(g69
g70
NtRp3457
(dp3458
g73
(dp3459
g81
I3
ssg82
g3453
sg75
(lp3460
S''
asbasbasbasbasbasbasbasbasbasbasbag68
(g84
g70
NtRp3461
(dp3462
g73
(dp3463
sg82
g3227
sg75
(lp3464
g68
(g89
g70
NtRp3465
(dp3466
g73
(dp3467
g93
g94
ssg82
g3461
sg75
(lp3468
S'delimiters'
p3469
asbag68
(g89
g70
NtRp3470
(dp3471
g73
(dp3472
g100
g101
ssg82
g3461
sg75
(lp3473
S':'
asbag68
(g89
g70
NtRp3474
(dp3475
g73
(dp3476
sg82
g3461
sg75
(lp3477
g68
(g69
g70
NtRp3478
(dp3479
g73
(dp3480
g81
I5
ssg82
g3474
sg75
(lp3481
g68
(g77
g70
NtRp3482
(dp3483
g73
(dp3484
g81
I4
ssg82
Nsg75
(lp3485
g68
(g84
g70
NtRp3486
(dp3487
g73
(dp3488
sg82
g3482
sg75
(lp3489
g68
(g89
g70
NtRp3490
(dp3491
g73
(dp3492
sg82
g3486
sg75
(lp3493
g68
(g69
g70
NtRp3494
(dp3495
g73
(dp3496
g81
I4
ssg82
g3490
sg75
(lp3497
S'{{'
p3498
asbasbasbag68
(g84
g70
NtRp3499
(dp3500
g73
(dp3501
sg82
g3482
sg75
(lp3502
g68
(g89
g70
NtRp3503
(dp3504
g73
(dp3505
sg82
g3499
sg75
(lp3506
g68
(g69
g70
NtRp3507
(dp3508
g73
(dp3509
g81
I4
ssg82
g3503
sg75
(lp3510
S'}}'
p3511
asbasbasbasbasbasbasbag68
(g84
g70
NtRp3512
(dp3513
g73
(dp3514
sg82
g3227
sg75
(lp3515
g68
(g89
g70
NtRp3516
(dp3517
g73
(dp3518
g93
g94
ssg82
g3512
sg75
(lp3519
S'files'
p3520
asbag68
(g89
g70
NtRp3521
(dp3522
g73
(dp3523
g100
g101
ssg82
g3512
sg75
(lp3524
S':'
asbag68
(g89
g70
NtRp3525
(dp3526
g73
(dp3527
sg82
g3512
sg75
(lp3528
g68
(g69
g70
NtRp3529
(dp3530
g73
(dp3531
g81
I5
ssg82
g3525
sg75
(lp3532
g68
(g77
g70
NtRp3533
(dp3534
g73
(dp3535
g81
I4
ssg82
Nsg75
(lp3536
sbasbasbasbag68
(g84
g70
NtRp3537
(dp3538
g73
(dp3539
sg82
g3227
sg75
(lp3540
g68
(g89
g70
NtRp3541
(dp3542
g73
(dp3543
g93
g94
ssg82
g3537
sg75
(lp3544
S'flash'
p3545
asbag68
(g89
g70
NtRp3546
(dp3547
g73
(dp3548
g100
g101
ssg82
g3537
sg75
(lp3549
S':'
asbag68
(g89
g70
NtRp3550
(dp3551
g73
(dp3552
sg82
g3537
sg75
(lp3553
g68
(g69
g70
NtRp3554
(dp3555
g73
(dp3556
g81
I5
ssg82
g3550
sg75
(lp3557
S''
asbasbasbag68
(g84
g70
NtRp3558
(dp3559
g73
(dp3560
sg82
g3227
sg75
(lp3561
g68
(g89
g70
NtRp3562
(dp3563
g73
(dp3564
g93
g94
ssg82
g3558
sg75
(lp3565
S'generic_patterns'
p3566
asbag68
(g89
g70
NtRp3567
(dp3568
g73
(dp3569
g100
g101
ssg82
g3558
sg75
(lp3570
S':'
asbag68
(g89
g70
NtRp3571
(dp3572
g73
(dp3573
sg82
g3558
sg75
(lp3574
g68
(g69
g70
NtRp3575
(dp3576
g73
(dp3577
g81
I5
ssg82
g3571
sg75
(lp3578
g68
(g77
g70
NtRp3579
(dp3580
g73
(dp3581
g81
I4
ssg82
Nsg75
(lp3582
g68
(g84
g70
NtRp3583
(dp3584
g73
(dp3585
sg82
g3579
sg75
(lp3586
g68
(g89
g70
NtRp3587
(dp3588
g73
(dp3589
sg82
g3583
sg75
(lp3590
g68
(g69
g70
NtRp3591
(dp3592
g73
(dp3593
g81
I4
ssg82
g3587
sg75
(lp3594
S'*'
asbasbasbasbasbasbasbag68
(g84
g70
NtRp3595
(dp3596
g73
(dp3597
sg82
g3227
sg75
(lp3598
g68
(g89
g70
NtRp3599
(dp3600
g73
(dp3601
g93
g94
ssg82
g3595
sg75
(lp3602
S'headers'
p3603
asbag68
(g89
g70
NtRp3604
(dp3605
g73
(dp3606
g100
g101
ssg82
g3595
sg75
(lp3607
S':'
asbag68
(g89
g70
NtRp3608
(dp3609
g73
(dp3610
sg82
g3595
sg75
(lp3611
g68
(g69
g70
NtRp3612
(dp3613
g73
(dp3614
g81
I5
ssg82
g3608
sg75
(lp3615
g68
(g77
g70
NtRp3616
(dp3617
g73
(dp3618
g81
I4
ssg82
Nsg75
(lp3619
g68
(g84
g70
NtRp3620
(dp3621
g73
(dp3622
sg82
g3616
sg75
(lp3623
g68
(g89
g70
NtRp3624
(dp3625
g73
(dp3626
g93
g94
ssg82
g3620
sg75
(lp3627
S'X-Powered-By'
p3628
asbag68
(g89
g70
NtRp3629
(dp3630
g73
(dp3631
g100
g101
ssg82
g3620
sg75
(lp3632
S':'
asbag68
(g89
g70
NtRp3633
(dp3634
g73
(dp3635
sg82
g3620
sg75
(lp3636
g68
(g69
g70
NtRp3637
(dp3638
g73
(dp3639
g81
I4
ssg82
g3633
sg75
(lp3640
S'web2py'
p3641
asbasbasbasbasbasbasbag68
(g84
g70
NtRp3642
(dp3643
g73
(dp3644
sg82
g3227
sg75
(lp3645
g68
(g89
g70
NtRp3646
(dp3647
g73
(dp3648
g93
g94
ssg82
g3642
sg75
(lp3649
S'menu'
p3650
asbag68
(g89
g70
NtRp3651
(dp3652
g73
(dp3653
g100
g101
ssg82
g3642
sg75
(lp3654
S':'
asbag68
(g89
g70
NtRp3655
(dp3656
g73
(dp3657
sg82
g3642
sg75
(lp3658
g68
(g69
g70
NtRp3659
(dp3660
g73
(dp3661
g81
I5
ssg82
g3655
sg75
(lp3662
g68
(g77
g70
NtRp3663
(dp3664
g73
(dp3665
g81
I4
ssg82
Nsg75
(lp3666
g68
(g84
g70
NtRp3667
(dp3668
g73
(dp3669
sg82
g3663
sg75
(lp3670
g68
(g89
g70
NtRp3671
(dp3672
g73
(dp3673
sg82
g3667
sg75
(lp3674
g68
(g69
g70
NtRp3675
(dp3676
g73
(dp3677
g81
I4
ssg82
g3671
sg75
(lp3678
g68
(g77
g70
NtRp3679
(dp3680
g73
(dp3681
g81
I3
ssg82
Nsg75
(lp3682
g68
(g84
g70
NtRp3683
(dp3684
g73
(dp3685
sg82
g3679
sg75
(lp3686
g68
(g89
g70
NtRp3687
(dp3688
g73
(dp3689
sg82
g3683
sg75
(lp3690
g68
(g69
g70
NtRp3691
(dp3692
g73
(dp3693
g81
I3
ssg82
g3687
sg75
(lp3694
cgluon.languages
lazyT_unpickle
p3695
(S't\x04\x00\x00\x00Home'
tRp3696
asbasbasbag68
(g84
g70
NtRp3697
(dp3698
g73
(dp3699
sg82
g3679
sg75
(lp3700
g68
(g89
g70
NtRp3701
(dp3702
g73
(dp3703
sg82
g3697
sg75
(lp3704
g68
(g69
g70
NtRp3705
(dp3706
g73
(dp3707
g81
I3
ssg82
g3701
sg75
(lp3708
g111
asbasbasbag68
(g84
g70
NtRp3709
(dp3710
g73
(dp3711
sg82
g3679
sg75
(lp3712
g68
(g89
g70
NtRp3713
(dp3714
g73
(dp3715
sg82
g3709
sg75
(lp3716
g68
(g69
g70
NtRp3717
(dp3718
g73
(dp3719
g81
I3
ssg82
g3713
sg75
(lp3720
S'/irecycle/default/home'
p3721
asbasbasbasbasbasbasbag68
(g84
g70
NtRp3722
(dp3723
g73
(dp3724
sg82
g3663
sg75
(lp3725
g68
(g89
g70
NtRp3726
(dp3727
g73
(dp3728
sg82
g3722
sg75
(lp3729
g68
(g69
g70
NtRp3730
(dp3731
g73
(dp3732
g81
I4
ssg82
g3726
sg75
(lp3733
g68
(g77
g70
NtRp3734
(dp3735
g73
(dp3736
g81
I3
ssg82
Nsg75
(lp3737
g68
(g84
g70
NtRp3738
(dp3739
g73
(dp3740
sg82
g3734
sg75
(lp3741
g68
(g89
g70
NtRp3742
(dp3743
g73
(dp3744
sg82
g3738
sg75
(lp3745
g68
(g69
g70
NtRp3746
(dp3747
g73
(dp3748
g81
I3
ssg82
g3742
sg75
(lp3749
g3695
(S't\x04\x00\x00\x00Wall'
tRp3750
asbasbasbag68
(g84
g70
NtRp3751
(dp3752
g73
(dp3753
sg82
g3734
sg75
(lp3754
g68
(g89
g70
NtRp3755
(dp3756
g73
(dp3757
sg82
g3751
sg75
(lp3758
g68
(g69
g70
NtRp3759
(dp3760
g73
(dp3761
g81
I3
ssg82
g3755
sg75
(lp3762
g111
asbasbasbag68
(g84
g70
NtRp3763
(dp3764
g73
(dp3765
sg82
g3734
sg75
(lp3766
g68
(g89
g70
NtRp3767
(dp3768
g73
(dp3769
sg82
g3763
sg75
(lp3770
g68
(g69
g70
NtRp3771
(dp3772
g73
(dp3773
g81
I3
ssg82
g3767
sg75
(lp3774
S'/irecycle/default/wall'
p3775
asbasbasbasbasbasbasbag68
(g84
g70
NtRp3776
(dp3777
g73
(dp3778
sg82
g3663
sg75
(lp3779
g68
(g89
g70
NtRp3780
(dp3781
g73
(dp3782
sg82
g3776
sg75
(lp3783
g68
(g69
g70
NtRp3784
(dp3785
g73
(dp3786
g81
I4
ssg82
g3780
sg75
(lp3787
g68
(g77
g70
NtRp3788
(dp3789
g73
(dp3790
g81
I3
ssg82
Nsg75
(lp3791
g68
(g84
g70
NtRp3792
(dp3793
g73
(dp3794
sg82
g3788
sg75
(lp3795
g68
(g89
g70
NtRp3796
(dp3797
g73
(dp3798
sg82
g3792
sg75
(lp3799
g68
(g69
g70
NtRp3800
(dp3801
g73
(dp3802
g81
I3
ssg82
g3796
sg75
(lp3803
g3695
(S't\x07\x00\x00\x00Friends'
tRp3804
asbasbasbag68
(g84
g70
NtRp3805
(dp3806
g73
(dp3807
sg82
g3788
sg75
(lp3808
g68
(g89
g70
NtRp3809
(dp3810
g73
(dp3811
sg82
g3805
sg75
(lp3812
g68
(g69
g70
NtRp3813
(dp3814
g73
(dp3815
g81
I3
ssg82
g3809
sg75
(lp3816
g111
asbasbasbag68
(g84
g70
NtRp3817
(dp3818
g73
(dp3819
sg82
g3788
sg75
(lp3820
g68
(g89
g70
NtRp3821
(dp3822
g73
(dp3823
sg82
g3817
sg75
(lp3824
g68
(g69
g70
NtRp3825
(dp3826
g73
(dp3827
g81
I3
ssg82
g3821
sg75
(lp3828
S'/irecycle/default/friends'
p3829
asbasbasbasbasbasbasbag68
(g84
g70
NtRp3830
(dp3831
g73
(dp3832
sg82
g3663
sg75
(lp3833
g68
(g89
g70
NtRp3834
(dp3835
g73
(dp3836
sg82
g3830
sg75
(lp3837
g68
(g69
g70
NtRp3838
(dp3839
g73
(dp3840
g81
I4
ssg82
g3834
sg75
(lp3841
g68
(g77
g70
NtRp3842
(dp3843
g73
(dp3844
g81
I3
ssg82
Nsg75
(lp3845
g68
(g84
g70
NtRp3846
(dp3847
g73
(dp3848
sg82
g3842
sg75
(lp3849
g68
(g89
g70
NtRp3850
(dp3851
g73
(dp3852
sg82
g3846
sg75
(lp3853
g68
(g69
g70
NtRp3854
(dp3855
g73
(dp3856
g81
I3
ssg82
g3850
sg75
(lp3857
g3695
(S't\x06\x00\x00\x00Search'
tRp3858
asbasbasbag68
(g84
g70
NtRp3859
(dp3860
g73
(dp3861
sg82
g3842
sg75
(lp3862
g68
(g89
g70
NtRp3863
(dp3864
g73
(dp3865
sg82
g3859
sg75
(lp3866
g68
(g69
g70
NtRp3867
(dp3868
g73
(dp3869
g81
I3
ssg82
g3863
sg75
(lp3870
g111
asbasbasbag68
(g84
g70
NtRp3871
(dp3872
g73
(dp3873
sg82
g3842
sg75
(lp3874
g68
(g89
g70
NtRp3875
(dp3876
g73
(dp3877
sg82
g3871
sg75
(lp3878
g68
(g69
g70
NtRp3879
(dp3880
g73
(dp3881
g81
I3
ssg82
g3875
sg75
(lp3882
S'/irecycle/default/search'
p3883
asbasbasbasbasbasbasbasbasbasbasbag68
(g84
g70
NtRp3884
(dp3885
g73
(dp3886
sg82
g3227
sg75
(lp3887
g68
(g89
g70
NtRp3888
(dp3889
g73
(dp3890
g93
g94
ssg82
g3884
sg75
(lp3891
S'meta'
p3892
asbag68
(g89
g70
NtRp3893
(dp3894
g73
(dp3895
g100
g101
ssg82
g3884
sg75
(lp3896
S':'
asbag68
(g89
g70
NtRp3897
(dp3898
g73
(dp3899
sg82
g3884
sg75
(lp3900
g68
(g69
g70
NtRp3901
(dp3902
g73
(dp3903
g81
I5
ssg82
g3897
sg75
(lp3904
g68
(g77
g70
NtRp3905
(dp3906
g73
(dp3907
g81
I4
ssg82
Nsg75
(lp3908
g68
(g84
g70
NtRp3909
(dp3910
g73
(dp3911
sg82
g3905
sg75
(lp3912
g68
(g89
g70
NtRp3913
(dp3914
g73
(dp3915
g93
g94
ssg82
g3909
sg75
(lp3916
S'author'
p3917
asbag68
(g89
g70
NtRp3918
(dp3919
g73
(dp3920
g100
g101
ssg82
g3909
sg75
(lp3921
S':'
asbag68
(g89
g70
NtRp3922
(dp3923
g73
(dp3924
sg82
g3909
sg75
(lp3925
g68
(g69
g70
NtRp3926
(dp3927
g73
(dp3928
g81
I4
ssg82
g3922
sg75
(lp3929
S'Diego Miranda'
p3930
asbasbasbag68
(g84
g70
NtRp3931
(dp3932
g73
(dp3933
sg82
g3905
sg75
(lp3934
g68
(g89
g70
NtRp3935
(dp3936
g73
(dp3937
g93
g94
ssg82
g3931
sg75
(lp3938
S'copyright'
p3939
asbag68
(g89
g70
NtRp3940
(dp3941
g73
(dp3942
g100
g101
ssg82
g3931
sg75
(lp3943
S':'
asbag68
(g89
g70
NtRp3944
(dp3945
g73
(dp3946
sg82
g3931
sg75
(lp3947
g68
(g69
g70
NtRp3948
(dp3949
g73
(dp3950
g81
I4
ssg82
g3944
sg75
(lp3951
S'DSMTech Copyright 2012'
p3952
asbasbasbag68
(g84
g70
NtRp3953
(dp3954
g73
(dp3955
sg82
g3905
sg75
(lp3956
g68
(g89
g70
NtRp3957
(dp3958
g73
(dp3959
g93
g94
ssg82
g3953
sg75
(lp3960
S'description'
p3961
asbag68
(g89
g70
NtRp3962
(dp3963
g73
(dp3964
g100
g101
ssg82
g3953
sg75
(lp3965
S':'
asbag68
(g89
g70
NtRp3966
(dp3967
g73
(dp3968
sg82
g3953
sg75
(lp3969
g68
(g69
g70
NtRp3970
(dp3971
g73
(dp3972
g81
I4
ssg82
g3966
sg75
(lp3973
S'App for recycling trash'
p3974
asbasbasbag68
(g84
g70
NtRp3975
(dp3976
g73
(dp3977
sg82
g3905
sg75
(lp3978
g68
(g89
g70
NtRp3979
(dp3980
g73
(dp3981
g93
g94
ssg82
g3975
sg75
(lp3982
S'generator'
p3983
asbag68
(g89
g70
NtRp3984
(dp3985
g73
(dp3986
g100
g101
ssg82
g3975
sg75
(lp3987
S':'
asbag68
(g89
g70
NtRp3988
(dp3989
g73
(dp3990
sg82
g3975
sg75
(lp3991
g68
(g69
g70
NtRp3992
(dp3993
g73
(dp3994
g81
I4
ssg82
g3988
sg75
(lp3995
S'web2py web framework'
p3996
asbasbasbag68
(g84
g70
NtRp3997
(dp3998
g73
(dp3999
sg82
g3905
sg75
(lp4000
g68
(g89
g70
NtRp4001
(dp4002
g73
(dp4003
g93
g94
ssg82
g3997
sg75
(lp4004
S'keywords'
p4005
asbag68
(g89
g70
NtRp4006
(dp4007
g73
(dp4008
g100
g101
ssg82
g3997
sg75
(lp4009
S':'
asbag68
(g89
g70
NtRp4010
(dp4011
g73
(dp4012
sg82
g3997
sg75
(lp4013
g68
(g69
g70
NtRp4014
(dp4015
g73
(dp4016
g81
I4
ssg82
g4010
sg75
(lp4017
S'web2py, python framework'
p4018
asbasbasbasbasbasbasbag68
(g84
g70
NtRp4019
(dp4020
g73
(dp4021
sg82
g3227
sg75
(lp4022
g68
(g89
g70
NtRp4023
(dp4024
g73
(dp4025
g93
g94
ssg82
g4019
sg75
(lp4026
S'models_to_run'
p4027
asbag68
(g89
g70
NtRp4028
(dp4029
g73
(dp4030
g100
g101
ssg82
g4019
sg75
(lp4031
S':'
asbag68
(g89
g70
NtRp4032
(dp4033
g73
(dp4034
sg82
g4019
sg75
(lp4035
g68
(g69
g70
NtRp4036
(dp4037
g73
(dp4038
g81
I5
ssg82
g4032
sg75
(lp4039
g68
(g77
g70
NtRp4040
(dp4041
g73
(dp4042
g81
I4
ssg82
Nsg75
(lp4043
g68
(g84
g70
NtRp4044
(dp4045
g73
(dp4046
sg82
g4040
sg75
(lp4047
g68
(g89
g70
NtRp4048
(dp4049
g73
(dp4050
sg82
g4044
sg75
(lp4051
g68
(g69
g70
NtRp4052
(dp4053
g73
(dp4054
g81
I4
ssg82
g4048
sg75
(lp4055
S'^\\w+\\.py$'
p4056
asbasbasbag68
(g84
g70
NtRp4057
(dp4058
g73
(dp4059
sg82
g4040
sg75
(lp4060
g68
(g89
g70
NtRp4061
(dp4062
g73
(dp4063
sg82
g4057
sg75
(lp4064
g68
(g69
g70
NtRp4065
(dp4066
g73
(dp4067
g81
I4
ssg82
g4061
sg75
(lp4068
S'^contact/\\w+\\.py$'
p4069
asbasbasbag68
(g84
g70
NtRp4070
(dp4071
g73
(dp4072
sg82
g4040
sg75
(lp4073
g68
(g89
g70
NtRp4074
(dp4075
g73
(dp4076
sg82
g4070
sg75
(lp4077
g68
(g69
g70
NtRp4078
(dp4079
g73
(dp4080
g81
I4
ssg82
g4074
sg75
(lp4081
S'^contact/contact/\\w+\\.py$'
p4082
asbasbasbasbasbasbasbag68
(g84
g70
NtRp4083
(dp4084
g73
(dp4085
sg82
g3227
sg75
(lp4086
g68
(g89
g70
NtRp4087
(dp4088
g73
(dp4089
g93
g94
ssg82
g4083
sg75
(lp4090
S'postprocessing'
p4091
asbag68
(g89
g70
NtRp4092
(dp4093
g73
(dp4094
g100
g101
ssg82
g4083
sg75
(lp4095
S':'
asbag68
(g89
g70
NtRp4096
(dp4097
g73
(dp4098
sg82
g4083
sg75
(lp4099
g68
(g69
g70
NtRp4100
(dp4101
g73
(dp4102
g81
I5
ssg82
g4096
sg75
(lp4103
g68
(g77
g70
NtRp4104
(dp4105
g73
(dp4106
g81
I4
ssg82
Nsg75
(lp4107
sbasbasbasbag68
(g84
g70
NtRp4108
(dp4109
g73
(dp4110
sg82
g3227
sg75
(lp4111
g68
(g89
g70
NtRp4112
(dp4113
g73
(dp4114
g93
g94
ssg82
g4108
sg75
(lp4115
S'session_cookie_expires'
p4116
asbag68
(g89
g70
NtRp4117
(dp4118
g73
(dp4119
g100
g101
ssg82
g4108
sg75
(lp4120
S':'
asbag68
(g89
g70
NtRp4121
(dp4122
g73
(dp4123
sg82
g4108
sg75
(lp4124
g68
(g69
g70
NtRp4125
(dp4126
g73
(dp4127
g81
I5
ssg82
g4121
sg75
(lp4128
S'None'
p4129
asbasbasbag68
(g84
g70
NtRp4130
(dp4131
g73
(dp4132
sg82
g3227
sg75
(lp4133
g68
(g89
g70
NtRp4134
(dp4135
g73
(dp4136
g93
g94
ssg82
g4130
sg75
(lp4137
S'session_data_name'
p4138
asbag68
(g89
g70
NtRp4139
(dp4140
g73
(dp4141
g100
g101
ssg82
g4130
sg75
(lp4142
S':'
asbag68
(g89
g70
NtRp4143
(dp4144
g73
(dp4145
sg82
g4130
sg75
(lp4146
g68
(g69
g70
NtRp4147
(dp4148
g73
(dp4149
g81
I5
ssg82
g4143
sg75
(lp4150
S'session_data_irecycle'
p4151
asbasbasbag68
(g84
g70
NtRp4152
(dp4153
g73
(dp4154
sg82
g3227
sg75
(lp4155
g68
(g89
g70
NtRp4156
(dp4157
g73
(dp4158
g93
g94
ssg82
g4152
sg75
(lp4159
S'session_file'
p4160
asbag68
(g89
g70
NtRp4161
(dp4162
g73
(dp4163
g100
g101
ssg82
g4152
sg75
(lp4164
S':'
asbag68
(g89
g70
NtRp4165
(dp4166
g73
(dp4167
sg82
g4152
sg75
(lp4168
g68
(g69
g70
NtRp4169
(dp4170
g73
(dp4171
g81
I5
ssg82
g4165
sg75
(lp4172
S"<open file '/home/diego/web2py/applications/irecycle/sessions/127.0.0.1-10f67e0b-8b95-4045-9f3c-2e1e4dff1c83', mode 'rb+' at 0x7f2c3408a030>"
p4173
asbasbasbag68
(g84
g70
NtRp4174
(dp4175
g73
(dp4176
sg82
g3227
sg75
(lp4177
g68
(g89
g70
NtRp4178
(dp4179
g73
(dp4180
g93
g94
ssg82
g4174
sg75
(lp4181
S'session_filename'
p4182
asbag68
(g89
g70
NtRp4183
(dp4184
g73
(dp4185
g100
g101
ssg82
g4174
sg75
(lp4186
S':'
asbag68
(g89
g70
NtRp4187
(dp4188
g73
(dp4189
sg82
g4174
sg75
(lp4190
g68
(g69
g70
NtRp4191
(dp4192
g73
(dp4193
g81
I5
ssg82
g4187
sg75
(lp4194
S'/home/diego/web2py/applications/irecycle/sessions/127.0.0.1-10f67e0b-8b95-4045-9f3c-2e1e4dff1c83'
p4195
asbasbasbag68
(g84
g70
NtRp4196
(dp4197
g73
(dp4198
sg82
g3227
sg75
(lp4199
g68
(g89
g70
NtRp4200
(dp4201
g73
(dp4202
g93
g94
ssg82
g4196
sg75
(lp4203
S'session_id'
p4204
asbag68
(g89
g70
NtRp4205
(dp4206
g73
(dp4207
g100
g101
ssg82
g4196
sg75
(lp4208
S':'
asbag68
(g89
g70
NtRp4209
(dp4210
g73
(dp4211
sg82
g4196
sg75
(lp4212
g68
(g69
g70
NtRp4213
(dp4214
g73
(dp4215
g81
I5
ssg82
g4209
sg75
(lp4216
g486
asbasbasbag68
(g84
g70
NtRp4217
(dp4218
g73
(dp4219
sg82
g3227
sg75
(lp4220
g68
(g89
g70
NtRp4221
(dp4222
g73
(dp4223
g93
g94
ssg82
g4217
sg75
(lp4224
S'session_id_name'
p4225
asbag68
(g89
g70
NtRp4226
(dp4227
g73
(dp4228
g100
g101
ssg82
g4217
sg75
(lp4229
S':'
asbag68
(g89
g70
NtRp4230
(dp4231
g73
(dp4232
sg82
g4217
sg75
(lp4233
g68
(g69
g70
NtRp4234
(dp4235
g73
(dp4236
g81
I5
ssg82
g4230
sg75
(lp4237
g3284
asbasbasbag68
(g84
g70
NtRp4238
(dp4239
g73
(dp4240
sg82
g3227
sg75
(lp4241
g68
(g89
g70
NtRp4242
(dp4243
g73
(dp4244
g93
g94
ssg82
g4238
sg75
(lp4245
S'session_locked'
p4246
asbag68
(g89
g70
NtRp4247
(dp4248
g73
(dp4249
g100
g101
ssg82
g4238
sg75
(lp4250
S':'
asbag68
(g89
g70
NtRp4251
(dp4252
g73
(dp4253
sg82
g4238
sg75
(lp4254
g68
(g69
g70
NtRp4255
(dp4256
g73
(dp4257
g81
I5
ssg82
g4251
sg75
(lp4258
g1616
asbasbasbag68
(g84
g70
NtRp4259
(dp4260
g73
(dp4261
sg82
g3227
sg75
(lp4262
g68
(g89
g70
NtRp4263
(dp4264
g73
(dp4265
g93
g94
ssg82
g4259
sg75
(lp4266
S'session_new'
p4267
asbag68
(g89
g70
NtRp4268
(dp4269
g73
(dp4270
g100
g101
ssg82
g4259
sg75
(lp4271
S':'
asbag68
(g89
g70
NtRp4272
(dp4273
g73
(dp4274
sg82
g4259
sg75
(lp4275
g68
(g69
g70
NtRp4276
(dp4277
g73
(dp4278
g81
I5
ssg82
g4272
sg75
(lp4279
g111
asbasbasbag68
(g84
g70
NtRp4280
(dp4281
g73
(dp4282
sg82
g3227
sg75
(lp4283
g68
(g89
g70
NtRp4284
(dp4285
g73
(dp4286
g93
g94
ssg82
g4280
sg75
(lp4287
S'session_storage_type'
p4288
asbag68
(g89
g70
NtRp4289
(dp4290
g73
(dp4291
g100
g101
ssg82
g4280
sg75
(lp4292
S':'
asbag68
(g89
g70
NtRp4293
(dp4294
g73
(dp4295
sg82
g4280
sg75
(lp4296
g68
(g69
g70
NtRp4297
(dp4298
g73
(dp4299
g81
I5
ssg82
g4293
sg75
(lp4300
g3068
asbasbasbag68
(g84
g70
NtRp4301
(dp4302
g73
(dp4303
sg82
g3227
sg75
(lp4304
g68
(g89
g70
NtRp4305
(dp4306
g73
(dp4307
g93
g94
ssg82
g4301
sg75
(lp4308
S'status'
p4309
asbag68
(g89
g70
NtRp4310
(dp4311
g73
(dp4312
g100
g101
ssg82
g4301
sg75
(lp4313
S':'
asbag68
(g89
g70
NtRp4314
(dp4315
g73
(dp4316
sg82
g4301
sg75
(lp4317
g68
(g69
g70
NtRp4318
(dp4319
g73
(dp4320
g81
I5
ssg82
g4314
sg75
(lp4321
S'200'
p4322
asbasbasbag68
(g84
g70
NtRp4323
(dp4324
g73
(dp4325
sg82
g3227
sg75
(lp4326
g68
(g89
g70
NtRp4327
(dp4328
g73
(dp4329
g93
g94
ssg82
g4323
sg75
(lp4330
S'subtitle'
p4331
asbag68
(g89
g70
NtRp4332
(dp4333
g73
(dp4334
g100
g101
ssg82
g4323
sg75
(lp4335
S':'
asbag68
(g89
g70
NtRp4336
(dp4337
g73
(dp4338
sg82
g4323
sg75
(lp4339
g68
(g69
g70
NtRp4340
(dp4341
g73
(dp4342
g81
I5
ssg82
g4336
sg75
(lp4343
g3695
(S't\t\x00\x00\x00EuReciclo'
tRp4344
asbasbasbag68
(g84
g70
NtRp4345
(dp4346
g73
(dp4347
sg82
g3227
sg75
(lp4348
g68
(g89
g70
NtRp4349
(dp4350
g73
(dp4351
g93
g94
ssg82
g4345
sg75
(lp4352
S'title'
p4353
asbag68
(g89
g70
NtRp4354
(dp4355
g73
(dp4356
g100
g101
ssg82
g4345
sg75
(lp4357
S':'
asbag68
(g89
g70
NtRp4358
(dp4359
g73
(dp4360
sg82
g4345
sg75
(lp4361
g68
(g69
g70
NtRp4362
(dp4363
g73
(dp4364
g81
I5
ssg82
g4358
sg75
(lp4365
S'EuReciclo'
p4366
asbasbasbag68
(g84
g70
NtRp4367
(dp4368
g73
(dp4369
sg82
g3227
sg75
(lp4370
g68
(g89
g70
NtRp4371
(dp4372
g73
(dp4373
g93
g94
ssg82
g4367
sg75
(lp4374
S'view'
p4375
asbag68
(g89
g70
NtRp4376
(dp4377
g73
(dp4378
g100
g101
ssg82
g4367
sg75
(lp4379
S':'
asbag68
(g89
g70
NtRp4380
(dp4381
g73
(dp4382
sg82
g4367
sg75
(lp4383
g68
(g69
g70
NtRp4384
(dp4385
g73
(dp4386
g81
I5
ssg82
g4380
sg75
(lp4387
S'contact/contact.html'
p4388
asbasbasbasbasbsS'locals'
p4389
(dp4390
g4
S"'/home/diego/web2py/applications/irecycle/controllers/contact.py'"
p4391
sg6
S"'def contact():\\n\\tu_cont = User(a0 or me)\\n\\tcont = ...t=cont)\\nresponse._vars=response._caller(contact)\\n'"
p4392
sssS'traceback'
p4393
S'Traceback (most recent call last):\n  File "/home/diego/web2py/gluon/restricted.py", line 211, in restricted\n    ccode = compile2(code, layer)\n  File "/home/diego/web2py/gluon/restricted.py", line 194, in compile2\n    return compile(code.rstrip().replace(\'\\r\\n\', \'\\n\') + \'\\n\', layer, \'exec\')\n  File "/home/diego/web2py/applications/irecycle/controllers/contact.py", line 9\n    input_text = cont.elements(_type="text")[]\n                                             ^\nSyntaxError: invalid syntax\n'
p4394
s.