(dp1
S'output'
p2
S"<type 'exceptions.SyntaxError'> invalid table or field name: Pa\xc3\xads"
p3
sS'layer'
p4
S'/home/diego/web2py/applications/irecycle/models/3_db.py'
p5
sS'code'
p6
S'\nEntrar = db.define_table("logn",\n\tField("name", "reference auth_user"),\n\tField("email", "reference user_email", notnull=True, requires=IS_EMAIL()),\n\tField("password"))\n\n\nUserr = db.define_table("username",\n\tField("user_id" ),\n\tField("name", "reference auth_user", notnull=True, unique=True),\n\tField("email", requires=IS_EMAIL(), notnull=True),\n\tField("tel", requires=IS_MATCH(\'[\\d\\-\\(\\)] +\')),\n\tField("password"),\n\tField("adress"),\n\tformat="%(name)s")\n\nUserAddress = db.define_table("user_address",\n\tField("user_id", "reference user_id"),\n\tField("CEP"),\n\tField("Pa\xc3\xads"),\n\tField("region"),\n\tField("Estado"),\n\tField("Cidade"),\n\tField("address_type"),\n\tField("address"),\n\tField("home_number"),\n\tField("extra"),\n\tformat="%(region)s")\n\nPictures = db.define_table("pictures",\n\tField("pic", "reference user_id"),\n\tField("thumb", "upload"),\n\tField("foto", "upload"))\n\nContacts = db.define_table("contacts",\n\tField("name", requires=IS_NOT_EMPTY()),\n\tField("posting", "text", required=True),\n\tformat=\'%(name)s\')\n\n#social db\nWall = db.define_table("post",\n\tField("body","text", requires=IS_NOT_EMPTY(),\n\t\tlabel=\'what happening?\'),\n\tField("posted_on","datetime", readable=False, writable=False),\n\tField("posted_by", "reference auth_user", readable=False,\n\t\twritable=False),\n\tformat=\'%(posted_by)s\')\n\nLink = db.define_table("link",\n\tField("fonte", "reference auth_user"),\n\tField("target", "reference auth_user"),\n\tField("accepted", "boolean", default=False))\n\n# and define some global variables that will make code more compact\nUser, Link, Post = db.auth_user, db.link, db.post\nme, a0, a1 = auth.user_id, request.args(0), request.args(1)\nmyfriends = db(Link.fonte==me)(Link.accepted==True)\nalphabetical = User.first_name | User.last_name\ndef name_of(user):\n\treturn \'%(first_name)s %(last_name)s\' % user\n\nclass NOT_STARTS_WITH(object):\n\tdef __init__(self, error_message="nao permitido iniciar com %s", letter="a"):\n\t\tself.error_message = error_message\n\t\tself.letter = letter\n\n\tdef __call__(self, value):\n\t\t# (value, None) # passou\n\t\t# (value, error_message) # n\xc3\xa3o passou\n\t\tif value.startswith(self.letter):\n\t\t\treturn (value, self.error_message % self.letter)\n\t\telse:\n\t\t\treturn (value, None)\n\n\nUserr.name.requires = [IS_NOT_EMPTY(error_message="voce deve preencher"),\n                          IS_NOT_IN_DB(db, \'Userr.name\')]\n# Contacts.description.represent = lambda value, row: XML(value)\nUserr.name.label = "email"\nUserr.name.comment = "Your name"\n\n#auth user\ndb.auth_user.avatar.label = "sua foto"\n\ndbset = db(Userr.user_id == auth.user_id)\nUserr.name.requires = IS_IN_DB(dbset, "user_address.id", "%(country)s - %(city)s")'
p7
sS'snapshot'
p8
(dp9
S'exception'
p10
(dp11
S'__getslice__'
p12
S"<method-wrapper '__getslice__' of exceptions.SyntaxError object>"
p13
sS'text'
p14
S'None'
p15
sS'__str__'
p16
S"<method-wrapper '__str__' of exceptions.SyntaxError object>"
p17
sS'__reduce__'
p18
S'<built-in method __reduce__ of exceptions.SyntaxError object>'
p19
sS'__dict__'
p20
S'{}'
p21
sS'__sizeof__'
p22
S'<built-in method __sizeof__ of exceptions.SyntaxError object>'
p23
sS'__init__'
p24
S"<method-wrapper '__init__' of exceptions.SyntaxError object>"
p25
sS'__setattr__'
p26
S"<method-wrapper '__setattr__' of exceptions.SyntaxError object>"
p27
sS'__reduce_ex__'
p28
S'<built-in method __reduce_ex__ of exceptions.SyntaxError object>'
p29
sS'__new__'
p30
S'<built-in method __new__ of type object>'
p31
sS'__format__'
p32
S'<built-in method __format__ of exceptions.SyntaxError object>'
p33
sS'__class__'
p34
S"<type 'exceptions.SyntaxError'>"
p35
sS'filename'
p36
S'None'
p37
sS'lineno'
p38
S'None'
p39
sS'msg'
p40
S"'invalid table or field name: Pa\\xc3\\xads'"
p41
sS'__doc__'
p42
S"'Invalid syntax.'"
p43
sS'__getitem__'
p44
S"<method-wrapper '__getitem__' of exceptions.SyntaxError object>"
p45
sS'__setstate__'
p46
S'<built-in method __setstate__ of exceptions.SyntaxError object>'
p47
sS'__getattribute__'
p48
S"<method-wrapper '__getattribute__' of exceptions.SyntaxError object>"
p49
sS'print_file_and_line'
p50
S'None'
p51
sS'args'
p52
S"('invalid table or field name: Pa\\xc3\\xads',)"
p53
sS'__subclasshook__'
p54
S'<built-in method __subclasshook__ of type object>'
p55
sS'offset'
p56
S'None'
p57
sS'__unicode__'
p58
S'<built-in method __unicode__ of exceptions.SyntaxError object>'
p59
sS'__delattr__'
p60
S"<method-wrapper '__delattr__' of exceptions.SyntaxError object>"
p61
sS'__repr__'
p62
S"<method-wrapper '__repr__' of exceptions.SyntaxError object>"
p63
sS'__hash__'
p64
S"<method-wrapper '__hash__' of exceptions.SyntaxError object>"
p65
ssS'evalue'
p66
S'invalid table or field name: Pa\xc3\xads'
p67
sS'request'
p68
ccopy_reg
_reconstructor
p69
(cgluon.html
BEAUTIFY
p70
c__builtin__
object
p71
NtRp72
(dp73
S'attributes'
p74
(dp75
sS'components'
p76
(lp77
g69
(cgluon.html
TABLE
p78
g71
NtRp79
(dp80
g74
(dp81
S'level'
p82
I5
ssS'parent'
p83
Nsg76
(lp84
g69
(cgluon.html
TR
p85
g71
NtRp86
(dp87
g74
(dp88
sg83
g79
sg76
(lp89
g69
(cgluon.html
TD
p90
g71
NtRp91
(dp92
g74
(dp93
S'_style'
p94
S'font-weight:bold;vertical-align:top'
p95
ssg83
g86
sg76
(lp96
S'ajax'
p97
asbag69
(g90
g71
NtRp98
(dp99
g74
(dp100
S'_valign'
p101
S'top'
p102
ssg83
g86
sg76
(lp103
S':'
asbag69
(g90
g71
NtRp104
(dp105
g74
(dp106
sg83
g86
sg76
(lp107
g69
(g70
g71
NtRp108
(dp109
g74
(dp110
g82
I5
ssg83
g104
sg76
(lp111
S'False'
p112
asbasbasbag69
(g85
g71
NtRp113
(dp114
g74
(dp115
sg83
g79
sg76
(lp116
g69
(g90
g71
NtRp117
(dp118
g74
(dp119
g94
g95
ssg83
g113
sg76
(lp120
S'application'
p121
asbag69
(g90
g71
NtRp122
(dp123
g74
(dp124
g101
g102
ssg83
g113
sg76
(lp125
S':'
asbag69
(g90
g71
NtRp126
(dp127
g74
(dp128
sg83
g113
sg76
(lp129
g69
(g70
g71
NtRp130
(dp131
g74
(dp132
g82
I5
ssg83
g126
sg76
(lp133
S'irecycle'
p134
asbasbasbag69
(g85
g71
NtRp135
(dp136
g74
(dp137
sg83
g79
sg76
(lp138
g69
(g90
g71
NtRp139
(dp140
g74
(dp141
g94
g95
ssg83
g135
sg76
(lp142
g52
asbag69
(g90
g71
NtRp143
(dp144
g74
(dp145
g101
g102
ssg83
g135
sg76
(lp146
S':'
asbag69
(g90
g71
NtRp147
(dp148
g74
(dp149
sg83
g135
sg76
(lp150
g69
(g70
g71
NtRp151
(dp152
g74
(dp153
g82
I5
ssg83
g147
sg76
(lp154
g69
(g78
g71
NtRp155
(dp156
g74
(dp157
g82
I4
ssg83
Nsg76
(lp158
sbasbasbasbag69
(g85
g71
NtRp159
(dp160
g74
(dp161
sg83
g79
sg76
(lp162
g69
(g90
g71
NtRp163
(dp164
g74
(dp165
g94
g95
ssg83
g159
sg76
(lp166
S'body'
p167
asbag69
(g90
g71
NtRp168
(dp169
g74
(dp170
g101
g102
ssg83
g159
sg76
(lp171
S':'
asbag69
(g90
g71
NtRp172
(dp173
g74
(dp174
sg83
g159
sg76
(lp175
g69
(g70
g71
NtRp176
(dp177
g74
(dp178
g82
I5
ssg83
g172
sg76
(lp179
S'<cStringIO.StringO object at 0x7f2c242914c8>'
p180
asbasbasbag69
(g85
g71
NtRp181
(dp182
g74
(dp183
sg83
g79
sg76
(lp184
g69
(g90
g71
NtRp185
(dp186
g74
(dp187
g94
g95
ssg83
g181
sg76
(lp188
S'cid'
p189
asbag69
(g90
g71
NtRp190
(dp191
g74
(dp192
g101
g102
ssg83
g181
sg76
(lp193
S':'
asbag69
(g90
g71
NtRp194
(dp195
g74
(dp196
sg83
g181
sg76
(lp197
g69
(g70
g71
NtRp198
(dp199
g74
(dp200
g82
I5
ssg83
g194
sg76
(lp201
S'None'
p202
asbasbasbag69
(g85
g71
NtRp203
(dp204
g74
(dp205
sg83
g79
sg76
(lp206
g69
(g90
g71
NtRp207
(dp208
g74
(dp209
g94
g95
ssg83
g203
sg76
(lp210
S'client'
p211
asbag69
(g90
g71
NtRp212
(dp213
g74
(dp214
g101
g102
ssg83
g203
sg76
(lp215
S':'
asbag69
(g90
g71
NtRp216
(dp217
g74
(dp218
sg83
g203
sg76
(lp219
g69
(g70
g71
NtRp220
(dp221
g74
(dp222
g82
I5
ssg83
g216
sg76
(lp223
S'127.0.0.1'
p224
asbasbasbag69
(g85
g71
NtRp225
(dp226
g74
(dp227
sg83
g79
sg76
(lp228
g69
(g90
g71
NtRp229
(dp230
g74
(dp231
g94
g95
ssg83
g225
sg76
(lp232
S'controller'
p233
asbag69
(g90
g71
NtRp234
(dp235
g74
(dp236
g101
g102
ssg83
g225
sg76
(lp237
S':'
asbag69
(g90
g71
NtRp238
(dp239
g74
(dp240
sg83
g225
sg76
(lp241
g69
(g70
g71
NtRp242
(dp243
g74
(dp244
g82
I5
ssg83
g238
sg76
(lp245
S'default'
p246
asbasbasbag69
(g85
g71
NtRp247
(dp248
g74
(dp249
sg83
g79
sg76
(lp250
g69
(g90
g71
NtRp251
(dp252
g74
(dp253
g94
g95
ssg83
g247
sg76
(lp254
S'cookies'
p255
asbag69
(g90
g71
NtRp256
(dp257
g74
(dp258
g101
g102
ssg83
g247
sg76
(lp259
S':'
asbag69
(g90
g71
NtRp260
(dp261
g74
(dp262
sg83
g247
sg76
(lp263
g69
(g70
g71
NtRp264
(dp265
g74
(dp266
g82
I5
ssg83
g260
sg76
(lp267
g69
(g78
g71
NtRp268
(dp269
g74
(dp270
g82
I4
ssg83
Nsg76
(lp271
g69
(g85
g71
NtRp272
(dp273
g74
(dp274
sg83
g268
sg76
(lp275
g69
(g90
g71
NtRp276
(dp277
g74
(dp278
g94
g95
ssg83
g272
sg76
(lp279
S'session_id_admin'
p280
asbag69
(g90
g71
NtRp281
(dp282
g74
(dp283
g101
g102
ssg83
g272
sg76
(lp284
S':'
asbag69
(g90
g71
NtRp285
(dp286
g74
(dp287
sg83
g272
sg76
(lp288
g69
(g70
g71
NtRp289
(dp290
g74
(dp291
g82
I4
ssg83
g285
sg76
(lp292
S'127.0.0.1-e9b49389-2418-4b45-bd80-845c8869c15c'
p293
ag69
(g78
g71
NtRp294
(dp295
g74
(dp296
g82
I3
ssg83
Nsg76
(lp297
g69
(g85
g71
NtRp298
(dp299
g74
(dp300
sg83
g294
sg76
(lp301
g69
(g90
g71
NtRp302
(dp303
g74
(dp304
g94
g95
ssg83
g298
sg76
(lp305
S'comment'
p306
asbag69
(g90
g71
NtRp307
(dp308
g74
(dp309
g101
g102
ssg83
g298
sg76
(lp310
S':'
asbag69
(g90
g71
NtRp311
(dp312
g74
(dp313
sg83
g298
sg76
(lp314
g69
(g70
g71
NtRp315
(dp316
g74
(dp317
g82
I3
ssg83
g311
sg76
(lp318
S''
asbasbasbag69
(g85
g71
NtRp319
(dp320
g74
(dp321
sg83
g294
sg76
(lp322
g69
(g90
g71
NtRp323
(dp324
g74
(dp325
g94
g95
ssg83
g319
sg76
(lp326
S'domain'
p327
asbag69
(g90
g71
NtRp328
(dp329
g74
(dp330
g101
g102
ssg83
g319
sg76
(lp331
S':'
asbag69
(g90
g71
NtRp332
(dp333
g74
(dp334
sg83
g319
sg76
(lp335
g69
(g70
g71
NtRp336
(dp337
g74
(dp338
g82
I3
ssg83
g332
sg76
(lp339
S''
asbasbasbag69
(g85
g71
NtRp340
(dp341
g74
(dp342
sg83
g294
sg76
(lp343
g69
(g90
g71
NtRp344
(dp345
g74
(dp346
g94
g95
ssg83
g340
sg76
(lp347
S'expires'
p348
asbag69
(g90
g71
NtRp349
(dp350
g74
(dp351
g101
g102
ssg83
g340
sg76
(lp352
S':'
asbag69
(g90
g71
NtRp353
(dp354
g74
(dp355
sg83
g340
sg76
(lp356
g69
(g70
g71
NtRp357
(dp358
g74
(dp359
g82
I3
ssg83
g353
sg76
(lp360
S''
asbasbasbag69
(g85
g71
NtRp361
(dp362
g74
(dp363
sg83
g294
sg76
(lp364
g69
(g90
g71
NtRp365
(dp366
g74
(dp367
g94
g95
ssg83
g361
sg76
(lp368
S'httponly'
p369
asbag69
(g90
g71
NtRp370
(dp371
g74
(dp372
g101
g102
ssg83
g361
sg76
(lp373
S':'
asbag69
(g90
g71
NtRp374
(dp375
g74
(dp376
sg83
g361
sg76
(lp377
g69
(g70
g71
NtRp378
(dp379
g74
(dp380
g82
I3
ssg83
g374
sg76
(lp381
S''
asbasbasbag69
(g85
g71
NtRp382
(dp383
g74
(dp384
sg83
g294
sg76
(lp385
g69
(g90
g71
NtRp386
(dp387
g74
(dp388
g94
g95
ssg83
g382
sg76
(lp389
S'max-age'
p390
asbag69
(g90
g71
NtRp391
(dp392
g74
(dp393
g101
g102
ssg83
g382
sg76
(lp394
S':'
asbag69
(g90
g71
NtRp395
(dp396
g74
(dp397
sg83
g382
sg76
(lp398
g69
(g70
g71
NtRp399
(dp400
g74
(dp401
g82
I3
ssg83
g395
sg76
(lp402
S''
asbasbasbag69
(g85
g71
NtRp403
(dp404
g74
(dp405
sg83
g294
sg76
(lp406
g69
(g90
g71
NtRp407
(dp408
g74
(dp409
g94
g95
ssg83
g403
sg76
(lp410
S'path'
p411
asbag69
(g90
g71
NtRp412
(dp413
g74
(dp414
g101
g102
ssg83
g403
sg76
(lp415
S':'
asbag69
(g90
g71
NtRp416
(dp417
g74
(dp418
sg83
g403
sg76
(lp419
g69
(g70
g71
NtRp420
(dp421
g74
(dp422
g82
I3
ssg83
g416
sg76
(lp423
S''
asbasbasbag69
(g85
g71
NtRp424
(dp425
g74
(dp426
sg83
g294
sg76
(lp427
g69
(g90
g71
NtRp428
(dp429
g74
(dp430
g94
g95
ssg83
g424
sg76
(lp431
S'secure'
p432
asbag69
(g90
g71
NtRp433
(dp434
g74
(dp435
g101
g102
ssg83
g424
sg76
(lp436
S':'
asbag69
(g90
g71
NtRp437
(dp438
g74
(dp439
sg83
g424
sg76
(lp440
g69
(g70
g71
NtRp441
(dp442
g74
(dp443
g82
I3
ssg83
g437
sg76
(lp444
S''
asbasbasbag69
(g85
g71
NtRp445
(dp446
g74
(dp447
sg83
g294
sg76
(lp448
g69
(g90
g71
NtRp449
(dp450
g74
(dp451
g94
g95
ssg83
g445
sg76
(lp452
S'version'
p453
asbag69
(g90
g71
NtRp454
(dp455
g74
(dp456
g101
g102
ssg83
g445
sg76
(lp457
S':'
asbag69
(g90
g71
NtRp458
(dp459
g74
(dp460
sg83
g445
sg76
(lp461
g69
(g70
g71
NtRp462
(dp463
g74
(dp464
g82
I3
ssg83
g458
sg76
(lp465
S''
asbasbasbasbasbasbasbag69
(g85
g71
NtRp466
(dp467
g74
(dp468
sg83
g268
sg76
(lp469
g69
(g90
g71
NtRp470
(dp471
g74
(dp472
g94
g95
ssg83
g466
sg76
(lp473
S'session_id_irecycle'
p474
asbag69
(g90
g71
NtRp475
(dp476
g74
(dp477
g101
g102
ssg83
g466
sg76
(lp478
S':'
asbag69
(g90
g71
NtRp479
(dp480
g74
(dp481
sg83
g466
sg76
(lp482
g69
(g70
g71
NtRp483
(dp484
g74
(dp485
g82
I4
ssg83
g479
sg76
(lp486
S'127.0.0.1-10f67e0b-8b95-4045-9f3c-2e1e4dff1c83'
p487
ag69
(g78
g71
NtRp488
(dp489
g74
(dp490
g82
I3
ssg83
Nsg76
(lp491
g69
(g85
g71
NtRp492
(dp493
g74
(dp494
sg83
g488
sg76
(lp495
g69
(g90
g71
NtRp496
(dp497
g74
(dp498
g94
g95
ssg83
g492
sg76
(lp499
g306
asbag69
(g90
g71
NtRp500
(dp501
g74
(dp502
g101
g102
ssg83
g492
sg76
(lp503
S':'
asbag69
(g90
g71
NtRp504
(dp505
g74
(dp506
sg83
g492
sg76
(lp507
g69
(g70
g71
NtRp508
(dp509
g74
(dp510
g82
I3
ssg83
g504
sg76
(lp511
S''
asbasbasbag69
(g85
g71
NtRp512
(dp513
g74
(dp514
sg83
g488
sg76
(lp515
g69
(g90
g71
NtRp516
(dp517
g74
(dp518
g94
g95
ssg83
g512
sg76
(lp519
g327
asbag69
(g90
g71
NtRp520
(dp521
g74
(dp522
g101
g102
ssg83
g512
sg76
(lp523
S':'
asbag69
(g90
g71
NtRp524
(dp525
g74
(dp526
sg83
g512
sg76
(lp527
g69
(g70
g71
NtRp528
(dp529
g74
(dp530
g82
I3
ssg83
g524
sg76
(lp531
S''
asbasbasbag69
(g85
g71
NtRp532
(dp533
g74
(dp534
sg83
g488
sg76
(lp535
g69
(g90
g71
NtRp536
(dp537
g74
(dp538
g94
g95
ssg83
g532
sg76
(lp539
g348
asbag69
(g90
g71
NtRp540
(dp541
g74
(dp542
g101
g102
ssg83
g532
sg76
(lp543
S':'
asbag69
(g90
g71
NtRp544
(dp545
g74
(dp546
sg83
g532
sg76
(lp547
g69
(g70
g71
NtRp548
(dp549
g74
(dp550
g82
I3
ssg83
g544
sg76
(lp551
S''
asbasbasbag69
(g85
g71
NtRp552
(dp553
g74
(dp554
sg83
g488
sg76
(lp555
g69
(g90
g71
NtRp556
(dp557
g74
(dp558
g94
g95
ssg83
g552
sg76
(lp559
g369
asbag69
(g90
g71
NtRp560
(dp561
g74
(dp562
g101
g102
ssg83
g552
sg76
(lp563
S':'
asbag69
(g90
g71
NtRp564
(dp565
g74
(dp566
sg83
g552
sg76
(lp567
g69
(g70
g71
NtRp568
(dp569
g74
(dp570
g82
I3
ssg83
g564
sg76
(lp571
S''
asbasbasbag69
(g85
g71
NtRp572
(dp573
g74
(dp574
sg83
g488
sg76
(lp575
g69
(g90
g71
NtRp576
(dp577
g74
(dp578
g94
g95
ssg83
g572
sg76
(lp579
g390
asbag69
(g90
g71
NtRp580
(dp581
g74
(dp582
g101
g102
ssg83
g572
sg76
(lp583
S':'
asbag69
(g90
g71
NtRp584
(dp585
g74
(dp586
sg83
g572
sg76
(lp587
g69
(g70
g71
NtRp588
(dp589
g74
(dp590
g82
I3
ssg83
g584
sg76
(lp591
S''
asbasbasbag69
(g85
g71
NtRp592
(dp593
g74
(dp594
sg83
g488
sg76
(lp595
g69
(g90
g71
NtRp596
(dp597
g74
(dp598
g94
g95
ssg83
g592
sg76
(lp599
g411
asbag69
(g90
g71
NtRp600
(dp601
g74
(dp602
g101
g102
ssg83
g592
sg76
(lp603
S':'
asbag69
(g90
g71
NtRp604
(dp605
g74
(dp606
sg83
g592
sg76
(lp607
g69
(g70
g71
NtRp608
(dp609
g74
(dp610
g82
I3
ssg83
g604
sg76
(lp611
S''
asbasbasbag69
(g85
g71
NtRp612
(dp613
g74
(dp614
sg83
g488
sg76
(lp615
g69
(g90
g71
NtRp616
(dp617
g74
(dp618
g94
g95
ssg83
g612
sg76
(lp619
g432
asbag69
(g90
g71
NtRp620
(dp621
g74
(dp622
g101
g102
ssg83
g612
sg76
(lp623
S':'
asbag69
(g90
g71
NtRp624
(dp625
g74
(dp626
sg83
g612
sg76
(lp627
g69
(g70
g71
NtRp628
(dp629
g74
(dp630
g82
I3
ssg83
g624
sg76
(lp631
S''
asbasbasbag69
(g85
g71
NtRp632
(dp633
g74
(dp634
sg83
g488
sg76
(lp635
g69
(g90
g71
NtRp636
(dp637
g74
(dp638
g94
g95
ssg83
g632
sg76
(lp639
g453
asbag69
(g90
g71
NtRp640
(dp641
g74
(dp642
g101
g102
ssg83
g632
sg76
(lp643
S':'
asbag69
(g90
g71
NtRp644
(dp645
g74
(dp646
sg83
g632
sg76
(lp647
g69
(g70
g71
NtRp648
(dp649
g74
(dp650
g82
I3
ssg83
g644
sg76
(lp651
S''
asbasbasbasbasbasbasbasbasbasbasbag69
(g85
g71
NtRp652
(dp653
g74
(dp654
sg83
g79
sg76
(lp655
g69
(g90
g71
NtRp656
(dp657
g74
(dp658
g94
g95
ssg83
g652
sg76
(lp659
S'env'
p660
asbag69
(g90
g71
NtRp661
(dp662
g74
(dp663
g101
g102
ssg83
g652
sg76
(lp664
S':'
asbag69
(g90
g71
NtRp665
(dp666
g74
(dp667
sg83
g652
sg76
(lp668
g69
(g70
g71
NtRp669
(dp670
g74
(dp671
g82
I5
ssg83
g665
sg76
(lp672
g69
(g78
g71
NtRp673
(dp674
g74
(dp675
g82
I4
ssg83
Nsg76
(lp676
g69
(g85
g71
NtRp677
(dp678
g74
(dp679
sg83
g673
sg76
(lp680
g69
(g90
g71
NtRp681
(dp682
g74
(dp683
g94
g95
ssg83
g677
sg76
(lp684
S'app_folders'
p685
asbag69
(g90
g71
NtRp686
(dp687
g74
(dp688
g101
g102
ssg83
g677
sg76
(lp689
S':'
asbag69
(g90
g71
NtRp690
(dp691
g74
(dp692
sg83
g677
sg76
(lp693
g69
(g70
g71
NtRp694
(dp695
g74
(dp696
g82
I4
ssg83
g690
sg76
(lp697
S"set(['/home/diego/web2py/applications/irecycle/', '/home/diego/web2py/applications/admin/'])"
p698
asbasbasbag69
(g85
g71
NtRp699
(dp700
g74
(dp701
sg83
g673
sg76
(lp702
g69
(g90
g71
NtRp703
(dp704
g74
(dp705
g94
g95
ssg83
g699
sg76
(lp706
S'applications_parent'
p707
asbag69
(g90
g71
NtRp708
(dp709
g74
(dp710
g101
g102
ssg83
g699
sg76
(lp711
S':'
asbag69
(g90
g71
NtRp712
(dp713
g74
(dp714
sg83
g699
sg76
(lp715
g69
(g70
g71
NtRp716
(dp717
g74
(dp718
g82
I4
ssg83
g712
sg76
(lp719
S'/home/diego/web2py'
p720
asbasbasbag69
(g85
g71
NtRp721
(dp722
g74
(dp723
sg83
g673
sg76
(lp724
g69
(g90
g71
NtRp725
(dp726
g74
(dp727
g94
g95
ssg83
g721
sg76
(lp728
S'cmd_args'
p729
asbag69
(g90
g71
NtRp730
(dp731
g74
(dp732
g101
g102
ssg83
g721
sg76
(lp733
S':'
asbag69
(g90
g71
NtRp734
(dp735
g74
(dp736
sg83
g721
sg76
(lp737
g69
(g70
g71
NtRp738
(dp739
g74
(dp740
g82
I4
ssg83
g734
sg76
(lp741
g69
(g78
g71
NtRp742
(dp743
g74
(dp744
g82
I3
ssg83
Nsg76
(lp745
sbasbasbasbag69
(g85
g71
NtRp746
(dp747
g74
(dp748
sg83
g673
sg76
(lp749
g69
(g90
g71
NtRp750
(dp751
g74
(dp752
g94
g95
ssg83
g746
sg76
(lp753
S'cmd_options'
p754
asbag69
(g90
g71
NtRp755
(dp756
g74
(dp757
g101
g102
ssg83
g746
sg76
(lp758
S':'
asbag69
(g90
g71
NtRp759
(dp760
g74
(dp761
sg83
g746
sg76
(lp762
g69
(g70
g71
NtRp763
(dp764
g74
(dp765
g82
I4
ssg83
g759
sg76
(lp766
S"<Values at 0x2991488: {'verbose': False, 'ip': '127.0.0.1', 'with_scheduler': False, 'ips': ['172.30.6.210'], 'shutdown_timeout': 5, 'taskbar': False, 'port': 8000, 'maxthreads': None, 'softcron': False, 'server_name': 'madagascar', 'bpython': False, 'nogui': False, 'pid_filename': 'httpserver.pid', 'extcron': False, 'runcron': False, 'run_system_tests': False, 'test': None, 'folder': '/home/diego/web2py', 'config': '', 'minthreads': None, 'winservice': '', 'shell': None, 'run': '', 'log_filename': 'httpserver.log', 'debuglevel': 30, 'args': [''], 'socket_timeout': 5, 'ssl_ca_certificate': None, 'scheduler': None, 'profiler_filename': None, 'ssl_private_key': '', 'scheduler_groups': None, 'password': '1234', 'request_queue_size': 5, 'ssl_certificate': '', 'cronjob': False, 'numthreads': None, 'quiet': False, 'interfaces': None, 'import_models': False, 'timeout': 10, 'plain': False, 'nobanner': False}>"
p767
asbasbasbag69
(g85
g71
NtRp768
(dp769
g74
(dp770
sg83
g673
sg76
(lp771
g69
(g90
g71
NtRp772
(dp773
g74
(dp774
g94
g95
ssg83
g768
sg76
(lp775
S'db_sessions'
p776
asbag69
(g90
g71
NtRp777
(dp778
g74
(dp779
g101
g102
ssg83
g768
sg76
(lp780
S':'
asbag69
(g90
g71
NtRp781
(dp782
g74
(dp783
sg83
g768
sg76
(lp784
g69
(g70
g71
NtRp785
(dp786
g74
(dp787
g82
I4
ssg83
g781
sg76
(lp788
S'set([])'
p789
asbasbasbag69
(g85
g71
NtRp790
(dp791
g74
(dp792
sg83
g673
sg76
(lp793
g69
(g90
g71
NtRp794
(dp795
g74
(dp796
g94
g95
ssg83
g790
sg76
(lp797
S'debugging'
p798
asbag69
(g90
g71
NtRp799
(dp800
g74
(dp801
g101
g102
ssg83
g790
sg76
(lp802
S':'
asbag69
(g90
g71
NtRp803
(dp804
g74
(dp805
sg83
g790
sg76
(lp806
g69
(g70
g71
NtRp807
(dp808
g74
(dp809
g82
I4
ssg83
g803
sg76
(lp810
g112
asbasbasbag69
(g85
g71
NtRp811
(dp812
g74
(dp813
sg83
g673
sg76
(lp814
g69
(g90
g71
NtRp815
(dp816
g74
(dp817
g94
g95
ssg83
g811
sg76
(lp818
S'gluon_parent'
p819
asbag69
(g90
g71
NtRp820
(dp821
g74
(dp822
g101
g102
ssg83
g811
sg76
(lp823
S':'
asbag69
(g90
g71
NtRp824
(dp825
g74
(dp826
sg83
g811
sg76
(lp827
g69
(g70
g71
NtRp828
(dp829
g74
(dp830
g82
I4
ssg83
g824
sg76
(lp831
S'/home/diego/web2py'
p832
asbasbasbag69
(g85
g71
NtRp833
(dp834
g74
(dp835
sg83
g673
sg76
(lp836
g69
(g90
g71
NtRp837
(dp838
g74
(dp839
g94
g95
ssg83
g833
sg76
(lp840
S'http_accept'
p841
asbag69
(g90
g71
NtRp842
(dp843
g74
(dp844
g101
g102
ssg83
g833
sg76
(lp845
S':'
asbag69
(g90
g71
NtRp846
(dp847
g74
(dp848
sg83
g833
sg76
(lp849
g69
(g70
g71
NtRp850
(dp851
g74
(dp852
g82
I4
ssg83
g846
sg76
(lp853
S'text/html,application/xhtml+xml,application/xml;q=0.9,*/*;q=0.8'
p854
asbasbasbag69
(g85
g71
NtRp855
(dp856
g74
(dp857
sg83
g673
sg76
(lp858
g69
(g90
g71
NtRp859
(dp860
g74
(dp861
g94
g95
ssg83
g855
sg76
(lp862
S'http_accept_charset'
p863
asbag69
(g90
g71
NtRp864
(dp865
g74
(dp866
g101
g102
ssg83
g855
sg76
(lp867
S':'
asbag69
(g90
g71
NtRp868
(dp869
g74
(dp870
sg83
g855
sg76
(lp871
g69
(g70
g71
NtRp872
(dp873
g74
(dp874
g82
I4
ssg83
g868
sg76
(lp875
S'ISO-8859-1,utf-8;q=0.7,*;q=0.3'
p876
asbasbasbag69
(g85
g71
NtRp877
(dp878
g74
(dp879
sg83
g673
sg76
(lp880
g69
(g90
g71
NtRp881
(dp882
g74
(dp883
g94
g95
ssg83
g877
sg76
(lp884
S'http_accept_encoding'
p885
asbag69
(g90
g71
NtRp886
(dp887
g74
(dp888
g101
g102
ssg83
g877
sg76
(lp889
S':'
asbag69
(g90
g71
NtRp890
(dp891
g74
(dp892
sg83
g877
sg76
(lp893
g69
(g70
g71
NtRp894
(dp895
g74
(dp896
g82
I4
ssg83
g890
sg76
(lp897
S'gzip,deflate,sdch'
p898
asbasbasbag69
(g85
g71
NtRp899
(dp900
g74
(dp901
sg83
g673
sg76
(lp902
g69
(g90
g71
NtRp903
(dp904
g74
(dp905
g94
g95
ssg83
g899
sg76
(lp906
S'http_accept_language'
p907
asbag69
(g90
g71
NtRp908
(dp909
g74
(dp910
g101
g102
ssg83
g899
sg76
(lp911
S':'
asbag69
(g90
g71
NtRp912
(dp913
g74
(dp914
sg83
g899
sg76
(lp915
g69
(g70
g71
NtRp916
(dp917
g74
(dp918
g82
I4
ssg83
g912
sg76
(lp919
S'pt-BR,pt;q=0.8,en-US;q=0.6,en;q=0.4'
p920
asbasbasbag69
(g85
g71
NtRp921
(dp922
g74
(dp923
sg83
g673
sg76
(lp924
g69
(g90
g71
NtRp925
(dp926
g74
(dp927
g94
g95
ssg83
g921
sg76
(lp928
S'http_cache_control'
p929
asbag69
(g90
g71
NtRp930
(dp931
g74
(dp932
g101
g102
ssg83
g921
sg76
(lp933
S':'
asbag69
(g90
g71
NtRp934
(dp935
g74
(dp936
sg83
g921
sg76
(lp937
g69
(g70
g71
NtRp938
(dp939
g74
(dp940
g82
I4
ssg83
g934
sg76
(lp941
S'max-age=0'
p942
asbasbasbag69
(g85
g71
NtRp943
(dp944
g74
(dp945
sg83
g673
sg76
(lp946
g69
(g90
g71
NtRp947
(dp948
g74
(dp949
g94
g95
ssg83
g943
sg76
(lp950
S'http_connection'
p951
asbag69
(g90
g71
NtRp952
(dp953
g74
(dp954
g101
g102
ssg83
g943
sg76
(lp955
S':'
asbag69
(g90
g71
NtRp956
(dp957
g74
(dp958
sg83
g943
sg76
(lp959
g69
(g70
g71
NtRp960
(dp961
g74
(dp962
g82
I4
ssg83
g956
sg76
(lp963
S'keep-alive'
p964
asbasbasbag69
(g85
g71
NtRp965
(dp966
g74
(dp967
sg83
g673
sg76
(lp968
g69
(g90
g71
NtRp969
(dp970
g74
(dp971
g94
g95
ssg83
g965
sg76
(lp972
S'http_cookie'
p973
asbag69
(g90
g71
NtRp974
(dp975
g74
(dp976
g101
g102
ssg83
g965
sg76
(lp977
S':'
asbag69
(g90
g71
NtRp978
(dp979
g74
(dp980
sg83
g965
sg76
(lp981
g69
(g70
g71
NtRp982
(dp983
g74
(dp984
g82
I4
ssg83
g978
sg76
(lp985
S'session_id_admin=127.0.0.1-e9b49389-2418-4b45-bd80-845c8869c15c; session_id_irecycle=127.0.0.1-10f67e0b-8b95-4045-9f3c-2e1e4dff1c83'
p986
asbasbasbag69
(g85
g71
NtRp987
(dp988
g74
(dp989
sg83
g673
sg76
(lp990
g69
(g90
g71
NtRp991
(dp992
g74
(dp993
g94
g95
ssg83
g987
sg76
(lp994
S'http_host'
p995
asbag69
(g90
g71
NtRp996
(dp997
g74
(dp998
g101
g102
ssg83
g987
sg76
(lp999
S':'
asbag69
(g90
g71
NtRp1000
(dp1001
g74
(dp1002
sg83
g987
sg76
(lp1003
g69
(g70
g71
NtRp1004
(dp1005
g74
(dp1006
g82
I4
ssg83
g1000
sg76
(lp1007
S'localhost:8000'
p1008
asbasbasbag69
(g85
g71
NtRp1009
(dp1010
g74
(dp1011
sg83
g673
sg76
(lp1012
g69
(g90
g71
NtRp1013
(dp1014
g74
(dp1015
g94
g95
ssg83
g1009
sg76
(lp1016
S'http_referer'
p1017
asbag69
(g90
g71
NtRp1018
(dp1019
g74
(dp1020
g101
g102
ssg83
g1009
sg76
(lp1021
S':'
asbag69
(g90
g71
NtRp1022
(dp1023
g74
(dp1024
sg83
g1009
sg76
(lp1025
g69
(g70
g71
NtRp1026
(dp1027
g74
(dp1028
g82
I4
ssg83
g1022
sg76
(lp1029
S'http://localhost:8000/irecycle/default/user/register'
p1030
asbasbasbag69
(g85
g71
NtRp1031
(dp1032
g74
(dp1033
sg83
g673
sg76
(lp1034
g69
(g90
g71
NtRp1035
(dp1036
g74
(dp1037
g94
g95
ssg83
g1031
sg76
(lp1038
S'http_user_agent'
p1039
asbag69
(g90
g71
NtRp1040
(dp1041
g74
(dp1042
g101
g102
ssg83
g1031
sg76
(lp1043
S':'
asbag69
(g90
g71
NtRp1044
(dp1045
g74
(dp1046
sg83
g1031
sg76
(lp1047
g69
(g70
g71
NtRp1048
(dp1049
g74
(dp1050
g82
I4
ssg83
g1044
sg76
(lp1051
S'Mozilla/5.0 (X11; Linux x86_64) AppleWebKit/537.17 (KHTML, like Gecko) Chrome/24.0.1312.52 Safari/537.17'
p1052
asbasbasbag69
(g85
g71
NtRp1053
(dp1054
g74
(dp1055
sg83
g673
sg76
(lp1056
g69
(g90
g71
NtRp1057
(dp1058
g74
(dp1059
g94
g95
ssg83
g1053
sg76
(lp1060
S'is_jython'
p1061
asbag69
(g90
g71
NtRp1062
(dp1063
g74
(dp1064
g101
g102
ssg83
g1053
sg76
(lp1065
S':'
asbag69
(g90
g71
NtRp1066
(dp1067
g74
(dp1068
sg83
g1053
sg76
(lp1069
g69
(g70
g71
NtRp1070
(dp1071
g74
(dp1072
g82
I4
ssg83
g1066
sg76
(lp1073
g112
asbasbasbag69
(g85
g71
NtRp1074
(dp1075
g74
(dp1076
sg83
g673
sg76
(lp1077
g69
(g90
g71
NtRp1078
(dp1079
g74
(dp1080
g94
g95
ssg83
g1074
sg76
(lp1081
S'is_pypy'
p1082
asbag69
(g90
g71
NtRp1083
(dp1084
g74
(dp1085
g101
g102
ssg83
g1074
sg76
(lp1086
S':'
asbag69
(g90
g71
NtRp1087
(dp1088
g74
(dp1089
sg83
g1074
sg76
(lp1090
g69
(g70
g71
NtRp1091
(dp1092
g74
(dp1093
g82
I4
ssg83
g1087
sg76
(lp1094
g112
asbasbasbag69
(g85
g71
NtRp1095
(dp1096
g74
(dp1097
sg83
g673
sg76
(lp1098
g69
(g90
g71
NtRp1099
(dp1100
g74
(dp1101
g94
g95
ssg83
g1095
sg76
(lp1102
S'local_hosts'
p1103
asbag69
(g90
g71
NtRp1104
(dp1105
g74
(dp1106
g101
g102
ssg83
g1095
sg76
(lp1107
S':'
asbag69
(g90
g71
NtRp1108
(dp1109
g74
(dp1110
sg83
g1095
sg76
(lp1111
g69
(g70
g71
NtRp1112
(dp1113
g74
(dp1114
g82
I4
ssg83
g1108
sg76
(lp1115
g69
(g78
g71
NtRp1116
(dp1117
g74
(dp1118
g82
I3
ssg83
Nsg76
(lp1119
g69
(g85
g71
NtRp1120
(dp1121
g74
(dp1122
sg83
g1116
sg76
(lp1123
g69
(g90
g71
NtRp1124
(dp1125
g74
(dp1126
sg83
g1120
sg76
(lp1127
g69
(g70
g71
NtRp1128
(dp1129
g74
(dp1130
g82
I3
ssg83
g1124
sg76
(lp1131
S'::1'
p1132
asbasbasbag69
(g85
g71
NtRp1133
(dp1134
g74
(dp1135
sg83
g1116
sg76
(lp1136
g69
(g90
g71
NtRp1137
(dp1138
g74
(dp1139
sg83
g1133
sg76
(lp1140
g69
(g70
g71
NtRp1141
(dp1142
g74
(dp1143
g82
I3
ssg83
g1137
sg76
(lp1144
S'madagascar'
p1145
asbasbasbag69
(g85
g71
NtRp1146
(dp1147
g74
(dp1148
sg83
g1116
sg76
(lp1149
g69
(g90
g71
NtRp1150
(dp1151
g74
(dp1152
sg83
g1146
sg76
(lp1153
g69
(g70
g71
NtRp1154
(dp1155
g74
(dp1156
g82
I3
ssg83
g1150
sg76
(lp1157
S'::ffff:127.0.0.1'
p1158
asbasbasbag69
(g85
g71
NtRp1159
(dp1160
g74
(dp1161
sg83
g1116
sg76
(lp1162
g69
(g90
g71
NtRp1163
(dp1164
g74
(dp1165
sg83
g1159
sg76
(lp1166
g69
(g70
g71
NtRp1167
(dp1168
g74
(dp1169
g82
I3
ssg83
g1163
sg76
(lp1170
S'127.0.0.1'
p1171
asbasbasbag69
(g85
g71
NtRp1172
(dp1173
g74
(dp1174
sg83
g1116
sg76
(lp1175
g69
(g90
g71
NtRp1176
(dp1177
g74
(dp1178
sg83
g1172
sg76
(lp1179
g69
(g70
g71
NtRp1180
(dp1181
g74
(dp1182
g82
I3
ssg83
g1176
sg76
(lp1183
S'172.30.6.210'
p1184
asbasbasbasbasbasbasbag69
(g85
g71
NtRp1185
(dp1186
g74
(dp1187
sg83
g673
sg76
(lp1188
g69
(g90
g71
NtRp1189
(dp1190
g74
(dp1191
g94
g95
ssg83
g1185
sg76
(lp1192
S'path_info'
p1193
asbag69
(g90
g71
NtRp1194
(dp1195
g74
(dp1196
g101
g102
ssg83
g1185
sg76
(lp1197
S':'
asbag69
(g90
g71
NtRp1198
(dp1199
g74
(dp1200
sg83
g1185
sg76
(lp1201
g69
(g70
g71
NtRp1202
(dp1203
g74
(dp1204
g82
I4
ssg83
g1198
sg76
(lp1205
S'/irecycle/default/address'
p1206
asbasbasbag69
(g85
g71
NtRp1207
(dp1208
g74
(dp1209
sg83
g673
sg76
(lp1210
g69
(g90
g71
NtRp1211
(dp1212
g74
(dp1213
g94
g95
ssg83
g1207
sg76
(lp1214
S'query_string'
p1215
asbag69
(g90
g71
NtRp1216
(dp1217
g74
(dp1218
g101
g102
ssg83
g1207
sg76
(lp1219
S':'
asbag69
(g90
g71
NtRp1220
(dp1221
g74
(dp1222
sg83
g1207
sg76
(lp1223
g69
(g70
g71
NtRp1224
(dp1225
g74
(dp1226
g82
I4
ssg83
g1220
sg76
(lp1227
S''
asbasbasbag69
(g85
g71
NtRp1228
(dp1229
g74
(dp1230
sg83
g673
sg76
(lp1231
g69
(g90
g71
NtRp1232
(dp1233
g74
(dp1234
g94
g95
ssg83
g1228
sg76
(lp1235
S'remote_addr'
p1236
asbag69
(g90
g71
NtRp1237
(dp1238
g74
(dp1239
g101
g102
ssg83
g1228
sg76
(lp1240
S':'
asbag69
(g90
g71
NtRp1241
(dp1242
g74
(dp1243
sg83
g1228
sg76
(lp1244
g69
(g70
g71
NtRp1245
(dp1246
g74
(dp1247
g82
I4
ssg83
g1241
sg76
(lp1248
g224
asbasbasbag69
(g85
g71
NtRp1249
(dp1250
g74
(dp1251
sg83
g673
sg76
(lp1252
g69
(g90
g71
NtRp1253
(dp1254
g74
(dp1255
g94
g95
ssg83
g1249
sg76
(lp1256
S'remote_port'
p1257
asbag69
(g90
g71
NtRp1258
(dp1259
g74
(dp1260
g101
g102
ssg83
g1249
sg76
(lp1261
S':'
asbag69
(g90
g71
NtRp1262
(dp1263
g74
(dp1264
sg83
g1249
sg76
(lp1265
g69
(g70
g71
NtRp1266
(dp1267
g74
(dp1268
g82
I4
ssg83
g1262
sg76
(lp1269
S'56397'
p1270
asbasbasbag69
(g85
g71
NtRp1271
(dp1272
g74
(dp1273
sg83
g673
sg76
(lp1274
g69
(g90
g71
NtRp1275
(dp1276
g74
(dp1277
g94
g95
ssg83
g1271
sg76
(lp1278
S'request_method'
p1279
asbag69
(g90
g71
NtRp1280
(dp1281
g74
(dp1282
g101
g102
ssg83
g1271
sg76
(lp1283
S':'
asbag69
(g90
g71
NtRp1284
(dp1285
g74
(dp1286
sg83
g1271
sg76
(lp1287
g69
(g70
g71
NtRp1288
(dp1289
g74
(dp1290
g82
I4
ssg83
g1284
sg76
(lp1291
S'GET'
p1292
asbasbasbag69
(g85
g71
NtRp1293
(dp1294
g74
(dp1295
sg83
g673
sg76
(lp1296
g69
(g90
g71
NtRp1297
(dp1298
g74
(dp1299
g94
g95
ssg83
g1293
sg76
(lp1300
S'request_uri'
p1301
asbag69
(g90
g71
NtRp1302
(dp1303
g74
(dp1304
g101
g102
ssg83
g1293
sg76
(lp1305
S':'
asbag69
(g90
g71
NtRp1306
(dp1307
g74
(dp1308
sg83
g1293
sg76
(lp1309
g69
(g70
g71
NtRp1310
(dp1311
g74
(dp1312
g82
I4
ssg83
g1306
sg76
(lp1313
g1206
asbasbasbag69
(g85
g71
NtRp1314
(dp1315
g74
(dp1316
sg83
g673
sg76
(lp1317
g69
(g90
g71
NtRp1318
(dp1319
g74
(dp1320
g94
g95
ssg83
g1314
sg76
(lp1321
S'script_name'
p1322
asbag69
(g90
g71
NtRp1323
(dp1324
g74
(dp1325
g101
g102
ssg83
g1314
sg76
(lp1326
S':'
asbag69
(g90
g71
NtRp1327
(dp1328
g74
(dp1329
sg83
g1314
sg76
(lp1330
g69
(g70
g71
NtRp1331
(dp1332
g74
(dp1333
g82
I4
ssg83
g1327
sg76
(lp1334
S''
asbasbasbag69
(g85
g71
NtRp1335
(dp1336
g74
(dp1337
sg83
g673
sg76
(lp1338
g69
(g90
g71
NtRp1339
(dp1340
g74
(dp1341
g94
g95
ssg83
g1335
sg76
(lp1342
S'server_name'
p1343
asbag69
(g90
g71
NtRp1344
(dp1345
g74
(dp1346
g101
g102
ssg83
g1335
sg76
(lp1347
S':'
asbag69
(g90
g71
NtRp1348
(dp1349
g74
(dp1350
sg83
g1335
sg76
(lp1351
g69
(g70
g71
NtRp1352
(dp1353
g74
(dp1354
g82
I4
ssg83
g1348
sg76
(lp1355
S'madagascar'
p1356
asbasbasbag69
(g85
g71
NtRp1357
(dp1358
g74
(dp1359
sg83
g673
sg76
(lp1360
g69
(g90
g71
NtRp1361
(dp1362
g74
(dp1363
g94
g95
ssg83
g1357
sg76
(lp1364
S'server_port'
p1365
asbag69
(g90
g71
NtRp1366
(dp1367
g74
(dp1368
g101
g102
ssg83
g1357
sg76
(lp1369
S':'
asbag69
(g90
g71
NtRp1370
(dp1371
g74
(dp1372
sg83
g1357
sg76
(lp1373
g69
(g70
g71
NtRp1374
(dp1375
g74
(dp1376
g82
I4
ssg83
g1370
sg76
(lp1377
S'8000'
p1378
asbasbasbag69
(g85
g71
NtRp1379
(dp1380
g74
(dp1381
sg83
g673
sg76
(lp1382
g69
(g90
g71
NtRp1383
(dp1384
g74
(dp1385
g94
g95
ssg83
g1379
sg76
(lp1386
S'server_protocol'
p1387
asbag69
(g90
g71
NtRp1388
(dp1389
g74
(dp1390
g101
g102
ssg83
g1379
sg76
(lp1391
S':'
asbag69
(g90
g71
NtRp1392
(dp1393
g74
(dp1394
sg83
g1379
sg76
(lp1395
g69
(g70
g71
NtRp1396
(dp1397
g74
(dp1398
g82
I4
ssg83
g1392
sg76
(lp1399
S'HTTP/1.1'
p1400
asbasbasbag69
(g85
g71
NtRp1401
(dp1402
g74
(dp1403
sg83
g673
sg76
(lp1404
g69
(g90
g71
NtRp1405
(dp1406
g74
(dp1407
g94
g95
ssg83
g1401
sg76
(lp1408
S'server_software'
p1409
asbag69
(g90
g71
NtRp1410
(dp1411
g74
(dp1412
g101
g102
ssg83
g1401
sg76
(lp1413
S':'
asbag69
(g90
g71
NtRp1414
(dp1415
g74
(dp1416
sg83
g1401
sg76
(lp1417
g69
(g70
g71
NtRp1418
(dp1419
g74
(dp1420
g82
I4
ssg83
g1414
sg76
(lp1421
S'Rocket 1.2.6'
p1422
asbasbasbag69
(g85
g71
NtRp1423
(dp1424
g74
(dp1425
sg83
g673
sg76
(lp1426
g69
(g90
g71
NtRp1427
(dp1428
g74
(dp1429
g94
g95
ssg83
g1423
sg76
(lp1430
S'web2py_path'
p1431
asbag69
(g90
g71
NtRp1432
(dp1433
g74
(dp1434
g101
g102
ssg83
g1423
sg76
(lp1435
S':'
asbag69
(g90
g71
NtRp1436
(dp1437
g74
(dp1438
sg83
g1423
sg76
(lp1439
g69
(g70
g71
NtRp1440
(dp1441
g74
(dp1442
g82
I4
ssg83
g1436
sg76
(lp1443
g720
asbasbasbag69
(g85
g71
NtRp1444
(dp1445
g74
(dp1446
sg83
g673
sg76
(lp1447
g69
(g90
g71
NtRp1448
(dp1449
g74
(dp1450
g94
g95
ssg83
g1444
sg76
(lp1451
S'web2py_version'
p1452
asbag69
(g90
g71
NtRp1453
(dp1454
g74
(dp1455
g101
g102
ssg83
g1444
sg76
(lp1456
S':'
asbag69
(g90
g71
NtRp1457
(dp1458
g74
(dp1459
sg83
g1444
sg76
(lp1460
g69
(g70
g71
NtRp1461
(dp1462
g74
(dp1463
g82
I4
ssg83
g1457
sg76
(lp1464
g69
(g78
g71
NtRp1465
(dp1466
g74
(dp1467
g82
I3
ssg83
Nsg76
(lp1468
g69
(g85
g71
NtRp1469
(dp1470
g74
(dp1471
sg83
g1465
sg76
(lp1472
g69
(g90
g71
NtRp1473
(dp1474
g74
(dp1475
sg83
g1469
sg76
(lp1476
g69
(g70
g71
NtRp1477
(dp1478
g74
(dp1479
g82
I3
ssg83
g1473
sg76
(lp1480
S'2'
asbasbasbag69
(g85
g71
NtRp1481
(dp1482
g74
(dp1483
sg83
g1465
sg76
(lp1484
g69
(g90
g71
NtRp1485
(dp1486
g74
(dp1487
sg83
g1481
sg76
(lp1488
g69
(g70
g71
NtRp1489
(dp1490
g74
(dp1491
g82
I3
ssg83
g1485
sg76
(lp1492
S'3'
asbasbasbag69
(g85
g71
NtRp1493
(dp1494
g74
(dp1495
sg83
g1465
sg76
(lp1496
g69
(g90
g71
NtRp1497
(dp1498
g74
(dp1499
sg83
g1493
sg76
(lp1500
g69
(g70
g71
NtRp1501
(dp1502
g74
(dp1503
g82
I3
ssg83
g1497
sg76
(lp1504
S'2'
asbasbasbag69
(g85
g71
NtRp1505
(dp1506
g74
(dp1507
sg83
g1465
sg76
(lp1508
g69
(g90
g71
NtRp1509
(dp1510
g74
(dp1511
sg83
g1505
sg76
(lp1512
g69
(g70
g71
NtRp1513
(dp1514
g74
(dp1515
g82
I3
ssg83
g1509
sg76
(lp1516
S'datetime.datetime(2012, 12, 17, 15, 3, 30)'
p1517
asbasbasbag69
(g85
g71
NtRp1518
(dp1519
g74
(dp1520
sg83
g1465
sg76
(lp1521
g69
(g90
g71
NtRp1522
(dp1523
g74
(dp1524
sg83
g1518
sg76
(lp1525
g69
(g70
g71
NtRp1526
(dp1527
g74
(dp1528
g82
I3
ssg83
g1522
sg76
(lp1529
S'stable'
p1530
asbasbasbasbasbasbasbag69
(g85
g71
NtRp1531
(dp1532
g74
(dp1533
sg83
g673
sg76
(lp1534
g69
(g90
g71
NtRp1535
(dp1536
g74
(dp1537
g94
g95
ssg83
g1531
sg76
(lp1538
S'wsgi_errors'
p1539
asbag69
(g90
g71
NtRp1540
(dp1541
g74
(dp1542
g101
g102
ssg83
g1531
sg76
(lp1543
S':'
asbag69
(g90
g71
NtRp1544
(dp1545
g74
(dp1546
sg83
g1531
sg76
(lp1547
g69
(g70
g71
NtRp1548
(dp1549
g74
(dp1550
g82
I4
ssg83
g1544
sg76
(lp1551
S"<open file '<stderr>', mode 'w' at 0x7f2c54870270>"
p1552
asbasbasbag69
(g85
g71
NtRp1553
(dp1554
g74
(dp1555
sg83
g673
sg76
(lp1556
g69
(g90
g71
NtRp1557
(dp1558
g74
(dp1559
g94
g95
ssg83
g1553
sg76
(lp1560
S'wsgi_file_wrapper'
p1561
asbag69
(g90
g71
NtRp1562
(dp1563
g74
(dp1564
g101
g102
ssg83
g1553
sg76
(lp1565
S':'
asbag69
(g90
g71
NtRp1566
(dp1567
g74
(dp1568
sg83
g1553
sg76
(lp1569
g69
(g70
g71
NtRp1570
(dp1571
g74
(dp1572
g82
I4
ssg83
g1566
sg76
(lp1573
S'<class wsgiref.util.FileWrapper at 0x28f0738>'
p1574
asbasbasbag69
(g85
g71
NtRp1575
(dp1576
g74
(dp1577
sg83
g673
sg76
(lp1578
g69
(g90
g71
NtRp1579
(dp1580
g74
(dp1581
g94
g95
ssg83
g1575
sg76
(lp1582
S'wsgi_input'
p1583
asbag69
(g90
g71
NtRp1584
(dp1585
g74
(dp1586
g101
g102
ssg83
g1575
sg76
(lp1587
S':'
asbag69
(g90
g71
NtRp1588
(dp1589
g74
(dp1590
sg83
g1575
sg76
(lp1591
g69
(g70
g71
NtRp1592
(dp1593
g74
(dp1594
g82
I4
ssg83
g1588
sg76
(lp1595
S'<socket._fileobject object at 0x7f2c20247dd0>'
p1596
asbasbasbag69
(g85
g71
NtRp1597
(dp1598
g74
(dp1599
sg83
g673
sg76
(lp1600
g69
(g90
g71
NtRp1601
(dp1602
g74
(dp1603
g94
g95
ssg83
g1597
sg76
(lp1604
S'wsgi_multiprocess'
p1605
asbag69
(g90
g71
NtRp1606
(dp1607
g74
(dp1608
g101
g102
ssg83
g1597
sg76
(lp1609
S':'
asbag69
(g90
g71
NtRp1610
(dp1611
g74
(dp1612
sg83
g1597
sg76
(lp1613
g69
(g70
g71
NtRp1614
(dp1615
g74
(dp1616
g82
I4
ssg83
g1610
sg76
(lp1617
g112
asbasbasbag69
(g85
g71
NtRp1618
(dp1619
g74
(dp1620
sg83
g673
sg76
(lp1621
g69
(g90
g71
NtRp1622
(dp1623
g74
(dp1624
g94
g95
ssg83
g1618
sg76
(lp1625
S'wsgi_multithread'
p1626
asbag69
(g90
g71
NtRp1627
(dp1628
g74
(dp1629
g101
g102
ssg83
g1618
sg76
(lp1630
S':'
asbag69
(g90
g71
NtRp1631
(dp1632
g74
(dp1633
sg83
g1618
sg76
(lp1634
g69
(g70
g71
NtRp1635
(dp1636
g74
(dp1637
g82
I4
ssg83
g1631
sg76
(lp1638
S'True'
p1639
asbasbasbag69
(g85
g71
NtRp1640
(dp1641
g74
(dp1642
sg83
g673
sg76
(lp1643
g69
(g90
g71
NtRp1644
(dp1645
g74
(dp1646
g94
g95
ssg83
g1640
sg76
(lp1647
S'wsgi_run_once'
p1648
asbag69
(g90
g71
NtRp1649
(dp1650
g74
(dp1651
g101
g102
ssg83
g1640
sg76
(lp1652
S':'
asbag69
(g90
g71
NtRp1653
(dp1654
g74
(dp1655
sg83
g1640
sg76
(lp1656
g69
(g70
g71
NtRp1657
(dp1658
g74
(dp1659
g82
I4
ssg83
g1653
sg76
(lp1660
g112
asbasbasbag69
(g85
g71
NtRp1661
(dp1662
g74
(dp1663
sg83
g673
sg76
(lp1664
g69
(g90
g71
NtRp1665
(dp1666
g74
(dp1667
g94
g95
ssg83
g1661
sg76
(lp1668
S'wsgi_url_scheme'
p1669
asbag69
(g90
g71
NtRp1670
(dp1671
g74
(dp1672
g101
g102
ssg83
g1661
sg76
(lp1673
S':'
asbag69
(g90
g71
NtRp1674
(dp1675
g74
(dp1676
sg83
g1661
sg76
(lp1677
g69
(g70
g71
NtRp1678
(dp1679
g74
(dp1680
g82
I4
ssg83
g1674
sg76
(lp1681
S'http'
p1682
asbasbasbag69
(g85
g71
NtRp1683
(dp1684
g74
(dp1685
sg83
g673
sg76
(lp1686
g69
(g90
g71
NtRp1687
(dp1688
g74
(dp1689
g94
g95
ssg83
g1683
sg76
(lp1690
S'wsgi_version'
p1691
asbag69
(g90
g71
NtRp1692
(dp1693
g74
(dp1694
g101
g102
ssg83
g1683
sg76
(lp1695
S':'
asbag69
(g90
g71
NtRp1696
(dp1697
g74
(dp1698
sg83
g1683
sg76
(lp1699
g69
(g70
g71
NtRp1700
(dp1701
g74
(dp1702
g82
I4
ssg83
g1696
sg76
(lp1703
g69
(g78
g71
NtRp1704
(dp1705
g74
(dp1706
g82
I3
ssg83
Nsg76
(lp1707
g69
(g85
g71
NtRp1708
(dp1709
g74
(dp1710
sg83
g1704
sg76
(lp1711
g69
(g90
g71
NtRp1712
(dp1713
g74
(dp1714
sg83
g1708
sg76
(lp1715
g69
(g70
g71
NtRp1716
(dp1717
g74
(dp1718
g82
I3
ssg83
g1712
sg76
(lp1719
S'1'
asbasbasbag69
(g85
g71
NtRp1720
(dp1721
g74
(dp1722
sg83
g1704
sg76
(lp1723
g69
(g90
g71
NtRp1724
(dp1725
g74
(dp1726
sg83
g1720
sg76
(lp1727
g69
(g70
g71
NtRp1728
(dp1729
g74
(dp1730
g82
I3
ssg83
g1724
sg76
(lp1731
S'0'
asbasbasbasbasbasbasbasbasbasbasbag69
(g85
g71
NtRp1732
(dp1733
g74
(dp1734
sg83
g79
sg76
(lp1735
g69
(g90
g71
NtRp1736
(dp1737
g74
(dp1738
g94
g95
ssg83
g1732
sg76
(lp1739
S'extension'
p1740
asbag69
(g90
g71
NtRp1741
(dp1742
g74
(dp1743
g101
g102
ssg83
g1732
sg76
(lp1744
S':'
asbag69
(g90
g71
NtRp1745
(dp1746
g74
(dp1747
sg83
g1732
sg76
(lp1748
g69
(g70
g71
NtRp1749
(dp1750
g74
(dp1751
g82
I5
ssg83
g1745
sg76
(lp1752
S'html'
p1753
asbasbasbag69
(g85
g71
NtRp1754
(dp1755
g74
(dp1756
sg83
g79
sg76
(lp1757
g69
(g90
g71
NtRp1758
(dp1759
g74
(dp1760
g94
g95
ssg83
g1754
sg76
(lp1761
S'folder'
p1762
asbag69
(g90
g71
NtRp1763
(dp1764
g74
(dp1765
g101
g102
ssg83
g1754
sg76
(lp1766
S':'
asbag69
(g90
g71
NtRp1767
(dp1768
g74
(dp1769
sg83
g1754
sg76
(lp1770
g69
(g70
g71
NtRp1771
(dp1772
g74
(dp1773
g82
I5
ssg83
g1767
sg76
(lp1774
S'/home/diego/web2py/applications/irecycle/'
p1775
asbasbasbag69
(g85
g71
NtRp1776
(dp1777
g74
(dp1778
sg83
g79
sg76
(lp1779
g69
(g90
g71
NtRp1780
(dp1781
g74
(dp1782
g94
g95
ssg83
g1776
sg76
(lp1783
S'function'
p1784
asbag69
(g90
g71
NtRp1785
(dp1786
g74
(dp1787
g101
g102
ssg83
g1776
sg76
(lp1788
S':'
asbag69
(g90
g71
NtRp1789
(dp1790
g74
(dp1791
sg83
g1776
sg76
(lp1792
g69
(g70
g71
NtRp1793
(dp1794
g74
(dp1795
g82
I5
ssg83
g1789
sg76
(lp1796
S'address'
p1797
asbasbasbag69
(g85
g71
NtRp1798
(dp1799
g74
(dp1800
sg83
g79
sg76
(lp1801
g69
(g90
g71
NtRp1802
(dp1803
g74
(dp1804
g94
g95
ssg83
g1798
sg76
(lp1805
S'get_vars'
p1806
asbag69
(g90
g71
NtRp1807
(dp1808
g74
(dp1809
g101
g102
ssg83
g1798
sg76
(lp1810
S':'
asbag69
(g90
g71
NtRp1811
(dp1812
g74
(dp1813
sg83
g1798
sg76
(lp1814
g69
(g70
g71
NtRp1815
(dp1816
g74
(dp1817
g82
I5
ssg83
g1811
sg76
(lp1818
g69
(g78
g71
NtRp1819
(dp1820
g74
(dp1821
g82
I4
ssg83
Nsg76
(lp1822
sbasbasbasbag69
(g85
g71
NtRp1823
(dp1824
g74
(dp1825
sg83
g79
sg76
(lp1826
g69
(g90
g71
NtRp1827
(dp1828
g74
(dp1829
g94
g95
ssg83
g1823
sg76
(lp1830
S'global_settings'
p1831
asbag69
(g90
g71
NtRp1832
(dp1833
g74
(dp1834
g101
g102
ssg83
g1823
sg76
(lp1835
S':'
asbag69
(g90
g71
NtRp1836
(dp1837
g74
(dp1838
sg83
g1823
sg76
(lp1839
g69
(g70
g71
NtRp1840
(dp1841
g74
(dp1842
g82
I5
ssg83
g1836
sg76
(lp1843
g69
(g78
g71
NtRp1844
(dp1845
g74
(dp1846
g82
I4
ssg83
Nsg76
(lp1847
g69
(g85
g71
NtRp1848
(dp1849
g74
(dp1850
sg83
g1844
sg76
(lp1851
g69
(g90
g71
NtRp1852
(dp1853
g74
(dp1854
g94
g95
ssg83
g1848
sg76
(lp1855
g685
asbag69
(g90
g71
NtRp1856
(dp1857
g74
(dp1858
g101
g102
ssg83
g1848
sg76
(lp1859
S':'
asbag69
(g90
g71
NtRp1860
(dp1861
g74
(dp1862
sg83
g1848
sg76
(lp1863
g69
(g70
g71
NtRp1864
(dp1865
g74
(dp1866
g82
I4
ssg83
g1860
sg76
(lp1867
S"set(['/home/diego/web2py/applications/irecycle/', '/home/diego/web2py/applications/admin/'])"
p1868
asbasbasbag69
(g85
g71
NtRp1869
(dp1870
g74
(dp1871
sg83
g1844
sg76
(lp1872
g69
(g90
g71
NtRp1873
(dp1874
g74
(dp1875
g94
g95
ssg83
g1869
sg76
(lp1876
g707
asbag69
(g90
g71
NtRp1877
(dp1878
g74
(dp1879
g101
g102
ssg83
g1869
sg76
(lp1880
S':'
asbag69
(g90
g71
NtRp1881
(dp1882
g74
(dp1883
sg83
g1869
sg76
(lp1884
g69
(g70
g71
NtRp1885
(dp1886
g74
(dp1887
g82
I4
ssg83
g1881
sg76
(lp1888
g720
asbasbasbag69
(g85
g71
NtRp1889
(dp1890
g74
(dp1891
sg83
g1844
sg76
(lp1892
g69
(g90
g71
NtRp1893
(dp1894
g74
(dp1895
g94
g95
ssg83
g1889
sg76
(lp1896
g729
asbag69
(g90
g71
NtRp1897
(dp1898
g74
(dp1899
g101
g102
ssg83
g1889
sg76
(lp1900
S':'
asbag69
(g90
g71
NtRp1901
(dp1902
g74
(dp1903
sg83
g1889
sg76
(lp1904
g69
(g70
g71
NtRp1905
(dp1906
g74
(dp1907
g82
I4
ssg83
g1901
sg76
(lp1908
g69
(g78
g71
NtRp1909
(dp1910
g74
(dp1911
g82
I3
ssg83
Nsg76
(lp1912
sbasbasbasbag69
(g85
g71
NtRp1913
(dp1914
g74
(dp1915
sg83
g1844
sg76
(lp1916
g69
(g90
g71
NtRp1917
(dp1918
g74
(dp1919
g94
g95
ssg83
g1913
sg76
(lp1920
g754
asbag69
(g90
g71
NtRp1921
(dp1922
g74
(dp1923
g101
g102
ssg83
g1913
sg76
(lp1924
S':'
asbag69
(g90
g71
NtRp1925
(dp1926
g74
(dp1927
sg83
g1913
sg76
(lp1928
g69
(g70
g71
NtRp1929
(dp1930
g74
(dp1931
g82
I4
ssg83
g1925
sg76
(lp1932
S"<Values at 0x2991488: {'verbose': False, 'ip': '127.0.0.1', 'with_scheduler': False, 'ips': ['172.30.6.210'], 'shutdown_timeout': 5, 'taskbar': False, 'port': 8000, 'maxthreads': None, 'softcron': False, 'server_name': 'madagascar', 'bpython': False, 'nogui': False, 'pid_filename': 'httpserver.pid', 'extcron': False, 'runcron': False, 'run_system_tests': False, 'test': None, 'folder': '/home/diego/web2py', 'config': '', 'minthreads': None, 'winservice': '', 'shell': None, 'run': '', 'log_filename': 'httpserver.log', 'debuglevel': 30, 'args': [''], 'socket_timeout': 5, 'ssl_ca_certificate': None, 'scheduler': None, 'profiler_filename': None, 'ssl_private_key': '', 'scheduler_groups': None, 'password': '1234', 'request_queue_size': 5, 'ssl_certificate': '', 'cronjob': False, 'numthreads': None, 'quiet': False, 'interfaces': None, 'import_models': False, 'timeout': 10, 'plain': False, 'nobanner': False}>"
p1933
asbasbasbag69
(g85
g71
NtRp1934
(dp1935
g74
(dp1936
sg83
g1844
sg76
(lp1937
g69
(g90
g71
NtRp1938
(dp1939
g74
(dp1940
g94
g95
ssg83
g1934
sg76
(lp1941
g776
asbag69
(g90
g71
NtRp1942
(dp1943
g74
(dp1944
g101
g102
ssg83
g1934
sg76
(lp1945
S':'
asbag69
(g90
g71
NtRp1946
(dp1947
g74
(dp1948
sg83
g1934
sg76
(lp1949
g69
(g70
g71
NtRp1950
(dp1951
g74
(dp1952
g82
I4
ssg83
g1946
sg76
(lp1953
S'set([])'
p1954
asbasbasbag69
(g85
g71
NtRp1955
(dp1956
g74
(dp1957
sg83
g1844
sg76
(lp1958
g69
(g90
g71
NtRp1959
(dp1960
g74
(dp1961
g94
g95
ssg83
g1955
sg76
(lp1962
g798
asbag69
(g90
g71
NtRp1963
(dp1964
g74
(dp1965
g101
g102
ssg83
g1955
sg76
(lp1966
S':'
asbag69
(g90
g71
NtRp1967
(dp1968
g74
(dp1969
sg83
g1955
sg76
(lp1970
g69
(g70
g71
NtRp1971
(dp1972
g74
(dp1973
g82
I4
ssg83
g1967
sg76
(lp1974
g112
asbasbasbag69
(g85
g71
NtRp1975
(dp1976
g74
(dp1977
sg83
g1844
sg76
(lp1978
g69
(g90
g71
NtRp1979
(dp1980
g74
(dp1981
g94
g95
ssg83
g1975
sg76
(lp1982
g819
asbag69
(g90
g71
NtRp1983
(dp1984
g74
(dp1985
g101
g102
ssg83
g1975
sg76
(lp1986
S':'
asbag69
(g90
g71
NtRp1987
(dp1988
g74
(dp1989
sg83
g1975
sg76
(lp1990
g69
(g70
g71
NtRp1991
(dp1992
g74
(dp1993
g82
I4
ssg83
g1987
sg76
(lp1994
g832
asbasbasbag69
(g85
g71
NtRp1995
(dp1996
g74
(dp1997
sg83
g1844
sg76
(lp1998
g69
(g90
g71
NtRp1999
(dp2000
g74
(dp2001
g94
g95
ssg83
g1995
sg76
(lp2002
g1061
asbag69
(g90
g71
NtRp2003
(dp2004
g74
(dp2005
g101
g102
ssg83
g1995
sg76
(lp2006
S':'
asbag69
(g90
g71
NtRp2007
(dp2008
g74
(dp2009
sg83
g1995
sg76
(lp2010
g69
(g70
g71
NtRp2011
(dp2012
g74
(dp2013
g82
I4
ssg83
g2007
sg76
(lp2014
g112
asbasbasbag69
(g85
g71
NtRp2015
(dp2016
g74
(dp2017
sg83
g1844
sg76
(lp2018
g69
(g90
g71
NtRp2019
(dp2020
g74
(dp2021
g94
g95
ssg83
g2015
sg76
(lp2022
g1082
asbag69
(g90
g71
NtRp2023
(dp2024
g74
(dp2025
g101
g102
ssg83
g2015
sg76
(lp2026
S':'
asbag69
(g90
g71
NtRp2027
(dp2028
g74
(dp2029
sg83
g2015
sg76
(lp2030
g69
(g70
g71
NtRp2031
(dp2032
g74
(dp2033
g82
I4
ssg83
g2027
sg76
(lp2034
g112
asbasbasbag69
(g85
g71
NtRp2035
(dp2036
g74
(dp2037
sg83
g1844
sg76
(lp2038
g69
(g90
g71
NtRp2039
(dp2040
g74
(dp2041
g94
g95
ssg83
g2035
sg76
(lp2042
g1103
asbag69
(g90
g71
NtRp2043
(dp2044
g74
(dp2045
g101
g102
ssg83
g2035
sg76
(lp2046
S':'
asbag69
(g90
g71
NtRp2047
(dp2048
g74
(dp2049
sg83
g2035
sg76
(lp2050
g69
(g70
g71
NtRp2051
(dp2052
g74
(dp2053
g82
I4
ssg83
g2047
sg76
(lp2054
g69
(g78
g71
NtRp2055
(dp2056
g74
(dp2057
g82
I3
ssg83
Nsg76
(lp2058
g69
(g85
g71
NtRp2059
(dp2060
g74
(dp2061
sg83
g2055
sg76
(lp2062
g69
(g90
g71
NtRp2063
(dp2064
g74
(dp2065
sg83
g2059
sg76
(lp2066
g69
(g70
g71
NtRp2067
(dp2068
g74
(dp2069
g82
I3
ssg83
g2063
sg76
(lp2070
g1132
asbasbasbag69
(g85
g71
NtRp2071
(dp2072
g74
(dp2073
sg83
g2055
sg76
(lp2074
g69
(g90
g71
NtRp2075
(dp2076
g74
(dp2077
sg83
g2071
sg76
(lp2078
g69
(g70
g71
NtRp2079
(dp2080
g74
(dp2081
g82
I3
ssg83
g2075
sg76
(lp2082
g1145
asbasbasbag69
(g85
g71
NtRp2083
(dp2084
g74
(dp2085
sg83
g2055
sg76
(lp2086
g69
(g90
g71
NtRp2087
(dp2088
g74
(dp2089
sg83
g2083
sg76
(lp2090
g69
(g70
g71
NtRp2091
(dp2092
g74
(dp2093
g82
I3
ssg83
g2087
sg76
(lp2094
g1158
asbasbasbag69
(g85
g71
NtRp2095
(dp2096
g74
(dp2097
sg83
g2055
sg76
(lp2098
g69
(g90
g71
NtRp2099
(dp2100
g74
(dp2101
sg83
g2095
sg76
(lp2102
g69
(g70
g71
NtRp2103
(dp2104
g74
(dp2105
g82
I3
ssg83
g2099
sg76
(lp2106
g1171
asbasbasbag69
(g85
g71
NtRp2107
(dp2108
g74
(dp2109
sg83
g2055
sg76
(lp2110
g69
(g90
g71
NtRp2111
(dp2112
g74
(dp2113
sg83
g2107
sg76
(lp2114
g69
(g70
g71
NtRp2115
(dp2116
g74
(dp2117
g82
I3
ssg83
g2111
sg76
(lp2118
g1184
asbasbasbasbasbasbasbag69
(g85
g71
NtRp2119
(dp2120
g74
(dp2121
sg83
g1844
sg76
(lp2122
g69
(g90
g71
NtRp2123
(dp2124
g74
(dp2125
g94
g95
ssg83
g2119
sg76
(lp2126
g1452
asbag69
(g90
g71
NtRp2127
(dp2128
g74
(dp2129
g101
g102
ssg83
g2119
sg76
(lp2130
S':'
asbag69
(g90
g71
NtRp2131
(dp2132
g74
(dp2133
sg83
g2119
sg76
(lp2134
g69
(g70
g71
NtRp2135
(dp2136
g74
(dp2137
g82
I4
ssg83
g2131
sg76
(lp2138
g69
(g78
g71
NtRp2139
(dp2140
g74
(dp2141
g82
I3
ssg83
Nsg76
(lp2142
g69
(g85
g71
NtRp2143
(dp2144
g74
(dp2145
sg83
g2139
sg76
(lp2146
g69
(g90
g71
NtRp2147
(dp2148
g74
(dp2149
sg83
g2143
sg76
(lp2150
g69
(g70
g71
NtRp2151
(dp2152
g74
(dp2153
g82
I3
ssg83
g2147
sg76
(lp2154
S'2'
asbasbasbag69
(g85
g71
NtRp2155
(dp2156
g74
(dp2157
sg83
g2139
sg76
(lp2158
g69
(g90
g71
NtRp2159
(dp2160
g74
(dp2161
sg83
g2155
sg76
(lp2162
g69
(g70
g71
NtRp2163
(dp2164
g74
(dp2165
g82
I3
ssg83
g2159
sg76
(lp2166
S'3'
asbasbasbag69
(g85
g71
NtRp2167
(dp2168
g74
(dp2169
sg83
g2139
sg76
(lp2170
g69
(g90
g71
NtRp2171
(dp2172
g74
(dp2173
sg83
g2167
sg76
(lp2174
g69
(g70
g71
NtRp2175
(dp2176
g74
(dp2177
g82
I3
ssg83
g2171
sg76
(lp2178
S'2'
asbasbasbag69
(g85
g71
NtRp2179
(dp2180
g74
(dp2181
sg83
g2139
sg76
(lp2182
g69
(g90
g71
NtRp2183
(dp2184
g74
(dp2185
sg83
g2179
sg76
(lp2186
g69
(g70
g71
NtRp2187
(dp2188
g74
(dp2189
g82
I3
ssg83
g2183
sg76
(lp2190
S'datetime.datetime(2012, 12, 17, 15, 3, 30)'
p2191
asbasbasbag69
(g85
g71
NtRp2192
(dp2193
g74
(dp2194
sg83
g2139
sg76
(lp2195
g69
(g90
g71
NtRp2196
(dp2197
g74
(dp2198
sg83
g2192
sg76
(lp2199
g69
(g70
g71
NtRp2200
(dp2201
g74
(dp2202
g82
I3
ssg83
g2196
sg76
(lp2203
g1530
asbasbasbasbasbasbasbasbasbasbasbag69
(g85
g71
NtRp2204
(dp2205
g74
(dp2206
sg83
g79
sg76
(lp2207
g69
(g90
g71
NtRp2208
(dp2209
g74
(dp2210
g94
g95
ssg83
g2204
sg76
(lp2211
S'is_https'
p2212
asbag69
(g90
g71
NtRp2213
(dp2214
g74
(dp2215
g101
g102
ssg83
g2204
sg76
(lp2216
S':'
asbag69
(g90
g71
NtRp2217
(dp2218
g74
(dp2219
sg83
g2204
sg76
(lp2220
g69
(g70
g71
NtRp2221
(dp2222
g74
(dp2223
g82
I5
ssg83
g2217
sg76
(lp2224
g112
asbasbasbag69
(g85
g71
NtRp2225
(dp2226
g74
(dp2227
sg83
g79
sg76
(lp2228
g69
(g90
g71
NtRp2229
(dp2230
g74
(dp2231
g94
g95
ssg83
g2225
sg76
(lp2232
S'is_local'
p2233
asbag69
(g90
g71
NtRp2234
(dp2235
g74
(dp2236
g101
g102
ssg83
g2225
sg76
(lp2237
S':'
asbag69
(g90
g71
NtRp2238
(dp2239
g74
(dp2240
sg83
g2225
sg76
(lp2241
g69
(g70
g71
NtRp2242
(dp2243
g74
(dp2244
g82
I5
ssg83
g2238
sg76
(lp2245
g1639
asbasbasbag69
(g85
g71
NtRp2246
(dp2247
g74
(dp2248
sg83
g79
sg76
(lp2249
g69
(g90
g71
NtRp2250
(dp2251
g74
(dp2252
g94
g95
ssg83
g2246
sg76
(lp2253
S'is_restful'
p2254
asbag69
(g90
g71
NtRp2255
(dp2256
g74
(dp2257
g101
g102
ssg83
g2246
sg76
(lp2258
S':'
asbag69
(g90
g71
NtRp2259
(dp2260
g74
(dp2261
sg83
g2246
sg76
(lp2262
g69
(g70
g71
NtRp2263
(dp2264
g74
(dp2265
g82
I5
ssg83
g2259
sg76
(lp2266
g112
asbasbasbag69
(g85
g71
NtRp2267
(dp2268
g74
(dp2269
sg83
g79
sg76
(lp2270
g69
(g90
g71
NtRp2271
(dp2272
g74
(dp2273
g94
g95
ssg83
g2267
sg76
(lp2274
S'now'
p2275
asbag69
(g90
g71
NtRp2276
(dp2277
g74
(dp2278
g101
g102
ssg83
g2267
sg76
(lp2279
S':'
asbag69
(g90
g71
NtRp2280
(dp2281
g74
(dp2282
sg83
g2267
sg76
(lp2283
g69
(g70
g71
NtRp2284
(dp2285
g74
(dp2286
g82
I5
ssg83
g2280
sg76
(lp2287
S'datetime.datetime(2013, 1, 31, 16, 23, 37, 550359)'
p2288
asbasbasbag69
(g85
g71
NtRp2289
(dp2290
g74
(dp2291
sg83
g79
sg76
(lp2292
g69
(g90
g71
NtRp2293
(dp2294
g74
(dp2295
g94
g95
ssg83
g2289
sg76
(lp2296
S'post_vars'
p2297
asbag69
(g90
g71
NtRp2298
(dp2299
g74
(dp2300
g101
g102
ssg83
g2289
sg76
(lp2301
S':'
asbag69
(g90
g71
NtRp2302
(dp2303
g74
(dp2304
sg83
g2289
sg76
(lp2305
g69
(g70
g71
NtRp2306
(dp2307
g74
(dp2308
g82
I5
ssg83
g2302
sg76
(lp2309
g69
(g78
g71
NtRp2310
(dp2311
g74
(dp2312
g82
I4
ssg83
Nsg76
(lp2313
sbasbasbasbag69
(g85
g71
NtRp2314
(dp2315
g74
(dp2316
sg83
g79
sg76
(lp2317
g69
(g90
g71
NtRp2318
(dp2319
g74
(dp2320
g94
g95
ssg83
g2314
sg76
(lp2321
S'raw_args'
p2322
asbag69
(g90
g71
NtRp2323
(dp2324
g74
(dp2325
g101
g102
ssg83
g2314
sg76
(lp2326
S':'
asbag69
(g90
g71
NtRp2327
(dp2328
g74
(dp2329
sg83
g2314
sg76
(lp2330
g69
(g70
g71
NtRp2331
(dp2332
g74
(dp2333
g82
I5
ssg83
g2327
sg76
(lp2334
S''
asbasbasbag69
(g85
g71
NtRp2335
(dp2336
g74
(dp2337
sg83
g79
sg76
(lp2338
g69
(g90
g71
NtRp2339
(dp2340
g74
(dp2341
g94
g95
ssg83
g2335
sg76
(lp2342
S'raw_extension'
p2343
asbag69
(g90
g71
NtRp2344
(dp2345
g74
(dp2346
g101
g102
ssg83
g2335
sg76
(lp2347
S':'
asbag69
(g90
g71
NtRp2348
(dp2349
g74
(dp2350
sg83
g2335
sg76
(lp2351
g69
(g70
g71
NtRp2352
(dp2353
g74
(dp2354
g82
I5
ssg83
g2348
sg76
(lp2355
S'None'
p2356
asbasbasbag69
(g85
g71
NtRp2357
(dp2358
g74
(dp2359
sg83
g79
sg76
(lp2360
g69
(g90
g71
NtRp2361
(dp2362
g74
(dp2363
g94
g95
ssg83
g2357
sg76
(lp2364
S'url'
p2365
asbag69
(g90
g71
NtRp2366
(dp2367
g74
(dp2368
g101
g102
ssg83
g2357
sg76
(lp2369
S':'
asbag69
(g90
g71
NtRp2370
(dp2371
g74
(dp2372
sg83
g2357
sg76
(lp2373
g69
(g70
g71
NtRp2374
(dp2375
g74
(dp2376
g82
I5
ssg83
g2370
sg76
(lp2377
g1206
asbasbasbag69
(g85
g71
NtRp2378
(dp2379
g74
(dp2380
sg83
g79
sg76
(lp2381
g69
(g90
g71
NtRp2382
(dp2383
g74
(dp2384
g94
g95
ssg83
g2378
sg76
(lp2385
S'utcnow'
p2386
asbag69
(g90
g71
NtRp2387
(dp2388
g74
(dp2389
g101
g102
ssg83
g2378
sg76
(lp2390
S':'
asbag69
(g90
g71
NtRp2391
(dp2392
g74
(dp2393
sg83
g2378
sg76
(lp2394
g69
(g70
g71
NtRp2395
(dp2396
g74
(dp2397
g82
I5
ssg83
g2391
sg76
(lp2398
S'datetime.datetime(2013, 1, 31, 18, 23, 37, 550372)'
p2399
asbasbasbag69
(g85
g71
NtRp2400
(dp2401
g74
(dp2402
sg83
g79
sg76
(lp2403
g69
(g90
g71
NtRp2404
(dp2405
g74
(dp2406
g94
g95
ssg83
g2400
sg76
(lp2407
S'uuid'
p2408
asbag69
(g90
g71
NtRp2409
(dp2410
g74
(dp2411
g101
g102
ssg83
g2400
sg76
(lp2412
S':'
asbag69
(g90
g71
NtRp2413
(dp2414
g74
(dp2415
sg83
g2400
sg76
(lp2416
g69
(g70
g71
NtRp2417
(dp2418
g74
(dp2419
g82
I5
ssg83
g2413
sg76
(lp2420
S'irecycle/127.0.0.1.2013-01-31.16-23-37.0331e06b-cff3-4da5-9893-9833efa5cdab'
p2421
asbasbasbag69
(g85
g71
NtRp2422
(dp2423
g74
(dp2424
sg83
g79
sg76
(lp2425
g69
(g90
g71
NtRp2426
(dp2427
g74
(dp2428
g94
g95
ssg83
g2422
sg76
(lp2429
S'vars'
p2430
asbag69
(g90
g71
NtRp2431
(dp2432
g74
(dp2433
g101
g102
ssg83
g2422
sg76
(lp2434
S':'
asbag69
(g90
g71
NtRp2435
(dp2436
g74
(dp2437
sg83
g2422
sg76
(lp2438
g69
(g70
g71
NtRp2439
(dp2440
g74
(dp2441
g82
I5
ssg83
g2435
sg76
(lp2442
g69
(g78
g71
NtRp2443
(dp2444
g74
(dp2445
g82
I4
ssg83
Nsg76
(lp2446
sbasbasbasbag69
(g85
g71
NtRp2447
(dp2448
g74
(dp2449
sg83
g79
sg76
(lp2450
g69
(g90
g71
NtRp2451
(dp2452
g74
(dp2453
g94
g95
ssg83
g2447
sg76
(lp2454
S'wsgi'
p2455
asbag69
(g90
g71
NtRp2456
(dp2457
g74
(dp2458
g101
g102
ssg83
g2447
sg76
(lp2459
S':'
asbag69
(g90
g71
NtRp2460
(dp2461
g74
(dp2462
sg83
g2447
sg76
(lp2463
g69
(g70
g71
NtRp2464
(dp2465
g74
(dp2466
g82
I5
ssg83
g2460
sg76
(lp2467
g69
(g78
g71
NtRp2468
(dp2469
g74
(dp2470
g82
I4
ssg83
Nsg76
(lp2471
g69
(g85
g71
NtRp2472
(dp2473
g74
(dp2474
sg83
g2468
sg76
(lp2475
g69
(g90
g71
NtRp2476
(dp2477
g74
(dp2478
g94
g95
ssg83
g2472
sg76
(lp2479
S'environ'
p2480
asbag69
(g90
g71
NtRp2481
(dp2482
g74
(dp2483
g101
g102
ssg83
g2472
sg76
(lp2484
S':'
asbag69
(g90
g71
NtRp2485
(dp2486
g74
(dp2487
sg83
g2472
sg76
(lp2488
g69
(g70
g71
NtRp2489
(dp2490
g74
(dp2491
g82
I4
ssg83
g2485
sg76
(lp2492
g69
(g78
g71
NtRp2493
(dp2494
g74
(dp2495
g82
I3
ssg83
Nsg76
(lp2496
g69
(g85
g71
NtRp2497
(dp2498
g74
(dp2499
sg83
g2493
sg76
(lp2500
g69
(g90
g71
NtRp2501
(dp2502
g74
(dp2503
g94
g95
ssg83
g2497
sg76
(lp2504
S'HTTP_ACCEPT'
p2505
asbag69
(g90
g71
NtRp2506
(dp2507
g74
(dp2508
g101
g102
ssg83
g2497
sg76
(lp2509
S':'
asbag69
(g90
g71
NtRp2510
(dp2511
g74
(dp2512
sg83
g2497
sg76
(lp2513
g69
(g70
g71
NtRp2514
(dp2515
g74
(dp2516
g82
I3
ssg83
g2510
sg76
(lp2517
g854
asbasbasbag69
(g85
g71
NtRp2518
(dp2519
g74
(dp2520
sg83
g2493
sg76
(lp2521
g69
(g90
g71
NtRp2522
(dp2523
g74
(dp2524
g94
g95
ssg83
g2518
sg76
(lp2525
S'HTTP_ACCEPT_CHARSET'
p2526
asbag69
(g90
g71
NtRp2527
(dp2528
g74
(dp2529
g101
g102
ssg83
g2518
sg76
(lp2530
S':'
asbag69
(g90
g71
NtRp2531
(dp2532
g74
(dp2533
sg83
g2518
sg76
(lp2534
g69
(g70
g71
NtRp2535
(dp2536
g74
(dp2537
g82
I3
ssg83
g2531
sg76
(lp2538
g876
asbasbasbag69
(g85
g71
NtRp2539
(dp2540
g74
(dp2541
sg83
g2493
sg76
(lp2542
g69
(g90
g71
NtRp2543
(dp2544
g74
(dp2545
g94
g95
ssg83
g2539
sg76
(lp2546
S'HTTP_ACCEPT_ENCODING'
p2547
asbag69
(g90
g71
NtRp2548
(dp2549
g74
(dp2550
g101
g102
ssg83
g2539
sg76
(lp2551
S':'
asbag69
(g90
g71
NtRp2552
(dp2553
g74
(dp2554
sg83
g2539
sg76
(lp2555
g69
(g70
g71
NtRp2556
(dp2557
g74
(dp2558
g82
I3
ssg83
g2552
sg76
(lp2559
g898
asbasbasbag69
(g85
g71
NtRp2560
(dp2561
g74
(dp2562
sg83
g2493
sg76
(lp2563
g69
(g90
g71
NtRp2564
(dp2565
g74
(dp2566
g94
g95
ssg83
g2560
sg76
(lp2567
S'HTTP_ACCEPT_LANGUAGE'
p2568
asbag69
(g90
g71
NtRp2569
(dp2570
g74
(dp2571
g101
g102
ssg83
g2560
sg76
(lp2572
S':'
asbag69
(g90
g71
NtRp2573
(dp2574
g74
(dp2575
sg83
g2560
sg76
(lp2576
g69
(g70
g71
NtRp2577
(dp2578
g74
(dp2579
g82
I3
ssg83
g2573
sg76
(lp2580
g920
asbasbasbag69
(g85
g71
NtRp2581
(dp2582
g74
(dp2583
sg83
g2493
sg76
(lp2584
g69
(g90
g71
NtRp2585
(dp2586
g74
(dp2587
g94
g95
ssg83
g2581
sg76
(lp2588
S'HTTP_CACHE_CONTROL'
p2589
asbag69
(g90
g71
NtRp2590
(dp2591
g74
(dp2592
g101
g102
ssg83
g2581
sg76
(lp2593
S':'
asbag69
(g90
g71
NtRp2594
(dp2595
g74
(dp2596
sg83
g2581
sg76
(lp2597
g69
(g70
g71
NtRp2598
(dp2599
g74
(dp2600
g82
I3
ssg83
g2594
sg76
(lp2601
g942
asbasbasbag69
(g85
g71
NtRp2602
(dp2603
g74
(dp2604
sg83
g2493
sg76
(lp2605
g69
(g90
g71
NtRp2606
(dp2607
g74
(dp2608
g94
g95
ssg83
g2602
sg76
(lp2609
S'HTTP_CONNECTION'
p2610
asbag69
(g90
g71
NtRp2611
(dp2612
g74
(dp2613
g101
g102
ssg83
g2602
sg76
(lp2614
S':'
asbag69
(g90
g71
NtRp2615
(dp2616
g74
(dp2617
sg83
g2602
sg76
(lp2618
g69
(g70
g71
NtRp2619
(dp2620
g74
(dp2621
g82
I3
ssg83
g2615
sg76
(lp2622
g964
asbasbasbag69
(g85
g71
NtRp2623
(dp2624
g74
(dp2625
sg83
g2493
sg76
(lp2626
g69
(g90
g71
NtRp2627
(dp2628
g74
(dp2629
g94
g95
ssg83
g2623
sg76
(lp2630
S'HTTP_COOKIE'
p2631
asbag69
(g90
g71
NtRp2632
(dp2633
g74
(dp2634
g101
g102
ssg83
g2623
sg76
(lp2635
S':'
asbag69
(g90
g71
NtRp2636
(dp2637
g74
(dp2638
sg83
g2623
sg76
(lp2639
g69
(g70
g71
NtRp2640
(dp2641
g74
(dp2642
g82
I3
ssg83
g2636
sg76
(lp2643
g986
asbasbasbag69
(g85
g71
NtRp2644
(dp2645
g74
(dp2646
sg83
g2493
sg76
(lp2647
g69
(g90
g71
NtRp2648
(dp2649
g74
(dp2650
g94
g95
ssg83
g2644
sg76
(lp2651
S'HTTP_HOST'
p2652
asbag69
(g90
g71
NtRp2653
(dp2654
g74
(dp2655
g101
g102
ssg83
g2644
sg76
(lp2656
S':'
asbag69
(g90
g71
NtRp2657
(dp2658
g74
(dp2659
sg83
g2644
sg76
(lp2660
g69
(g70
g71
NtRp2661
(dp2662
g74
(dp2663
g82
I3
ssg83
g2657
sg76
(lp2664
g1008
asbasbasbag69
(g85
g71
NtRp2665
(dp2666
g74
(dp2667
sg83
g2493
sg76
(lp2668
g69
(g90
g71
NtRp2669
(dp2670
g74
(dp2671
g94
g95
ssg83
g2665
sg76
(lp2672
S'HTTP_REFERER'
p2673
asbag69
(g90
g71
NtRp2674
(dp2675
g74
(dp2676
g101
g102
ssg83
g2665
sg76
(lp2677
S':'
asbag69
(g90
g71
NtRp2678
(dp2679
g74
(dp2680
sg83
g2665
sg76
(lp2681
g69
(g70
g71
NtRp2682
(dp2683
g74
(dp2684
g82
I3
ssg83
g2678
sg76
(lp2685
g1030
asbasbasbag69
(g85
g71
NtRp2686
(dp2687
g74
(dp2688
sg83
g2493
sg76
(lp2689
g69
(g90
g71
NtRp2690
(dp2691
g74
(dp2692
g94
g95
ssg83
g2686
sg76
(lp2693
S'HTTP_USER_AGENT'
p2694
asbag69
(g90
g71
NtRp2695
(dp2696
g74
(dp2697
g101
g102
ssg83
g2686
sg76
(lp2698
S':'
asbag69
(g90
g71
NtRp2699
(dp2700
g74
(dp2701
sg83
g2686
sg76
(lp2702
g69
(g70
g71
NtRp2703
(dp2704
g74
(dp2705
g82
I3
ssg83
g2699
sg76
(lp2706
g1052
asbasbasbag69
(g85
g71
NtRp2707
(dp2708
g74
(dp2709
sg83
g2493
sg76
(lp2710
g69
(g90
g71
NtRp2711
(dp2712
g74
(dp2713
g94
g95
ssg83
g2707
sg76
(lp2714
S'PATH_INFO'
p2715
asbag69
(g90
g71
NtRp2716
(dp2717
g74
(dp2718
g101
g102
ssg83
g2707
sg76
(lp2719
S':'
asbag69
(g90
g71
NtRp2720
(dp2721
g74
(dp2722
sg83
g2707
sg76
(lp2723
g69
(g70
g71
NtRp2724
(dp2725
g74
(dp2726
g82
I3
ssg83
g2720
sg76
(lp2727
g1206
asbasbasbag69
(g85
g71
NtRp2728
(dp2729
g74
(dp2730
sg83
g2493
sg76
(lp2731
g69
(g90
g71
NtRp2732
(dp2733
g74
(dp2734
g94
g95
ssg83
g2728
sg76
(lp2735
S'QUERY_STRING'
p2736
asbag69
(g90
g71
NtRp2737
(dp2738
g74
(dp2739
g101
g102
ssg83
g2728
sg76
(lp2740
S':'
asbag69
(g90
g71
NtRp2741
(dp2742
g74
(dp2743
sg83
g2728
sg76
(lp2744
g69
(g70
g71
NtRp2745
(dp2746
g74
(dp2747
g82
I3
ssg83
g2741
sg76
(lp2748
S''
asbasbasbag69
(g85
g71
NtRp2749
(dp2750
g74
(dp2751
sg83
g2493
sg76
(lp2752
g69
(g90
g71
NtRp2753
(dp2754
g74
(dp2755
g94
g95
ssg83
g2749
sg76
(lp2756
S'REMOTE_ADDR'
p2757
asbag69
(g90
g71
NtRp2758
(dp2759
g74
(dp2760
g101
g102
ssg83
g2749
sg76
(lp2761
S':'
asbag69
(g90
g71
NtRp2762
(dp2763
g74
(dp2764
sg83
g2749
sg76
(lp2765
g69
(g70
g71
NtRp2766
(dp2767
g74
(dp2768
g82
I3
ssg83
g2762
sg76
(lp2769
g224
asbasbasbag69
(g85
g71
NtRp2770
(dp2771
g74
(dp2772
sg83
g2493
sg76
(lp2773
g69
(g90
g71
NtRp2774
(dp2775
g74
(dp2776
g94
g95
ssg83
g2770
sg76
(lp2777
S'REMOTE_PORT'
p2778
asbag69
(g90
g71
NtRp2779
(dp2780
g74
(dp2781
g101
g102
ssg83
g2770
sg76
(lp2782
S':'
asbag69
(g90
g71
NtRp2783
(dp2784
g74
(dp2785
sg83
g2770
sg76
(lp2786
g69
(g70
g71
NtRp2787
(dp2788
g74
(dp2789
g82
I3
ssg83
g2783
sg76
(lp2790
g1270
asbasbasbag69
(g85
g71
NtRp2791
(dp2792
g74
(dp2793
sg83
g2493
sg76
(lp2794
g69
(g90
g71
NtRp2795
(dp2796
g74
(dp2797
g94
g95
ssg83
g2791
sg76
(lp2798
S'REQUEST_METHOD'
p2799
asbag69
(g90
g71
NtRp2800
(dp2801
g74
(dp2802
g101
g102
ssg83
g2791
sg76
(lp2803
S':'
asbag69
(g90
g71
NtRp2804
(dp2805
g74
(dp2806
sg83
g2791
sg76
(lp2807
g69
(g70
g71
NtRp2808
(dp2809
g74
(dp2810
g82
I3
ssg83
g2804
sg76
(lp2811
g1292
asbasbasbag69
(g85
g71
NtRp2812
(dp2813
g74
(dp2814
sg83
g2493
sg76
(lp2815
g69
(g90
g71
NtRp2816
(dp2817
g74
(dp2818
g94
g95
ssg83
g2812
sg76
(lp2819
S'REQUEST_URI'
p2820
asbag69
(g90
g71
NtRp2821
(dp2822
g74
(dp2823
g101
g102
ssg83
g2812
sg76
(lp2824
S':'
asbag69
(g90
g71
NtRp2825
(dp2826
g74
(dp2827
sg83
g2812
sg76
(lp2828
g69
(g70
g71
NtRp2829
(dp2830
g74
(dp2831
g82
I3
ssg83
g2825
sg76
(lp2832
g1206
asbasbasbag69
(g85
g71
NtRp2833
(dp2834
g74
(dp2835
sg83
g2493
sg76
(lp2836
g69
(g90
g71
NtRp2837
(dp2838
g74
(dp2839
g94
g95
ssg83
g2833
sg76
(lp2840
S'SCRIPT_NAME'
p2841
asbag69
(g90
g71
NtRp2842
(dp2843
g74
(dp2844
g101
g102
ssg83
g2833
sg76
(lp2845
S':'
asbag69
(g90
g71
NtRp2846
(dp2847
g74
(dp2848
sg83
g2833
sg76
(lp2849
g69
(g70
g71
NtRp2850
(dp2851
g74
(dp2852
g82
I3
ssg83
g2846
sg76
(lp2853
S''
asbasbasbag69
(g85
g71
NtRp2854
(dp2855
g74
(dp2856
sg83
g2493
sg76
(lp2857
g69
(g90
g71
NtRp2858
(dp2859
g74
(dp2860
g94
g95
ssg83
g2854
sg76
(lp2861
S'SERVER_NAME'
p2862
asbag69
(g90
g71
NtRp2863
(dp2864
g74
(dp2865
g101
g102
ssg83
g2854
sg76
(lp2866
S':'
asbag69
(g90
g71
NtRp2867
(dp2868
g74
(dp2869
sg83
g2854
sg76
(lp2870
g69
(g70
g71
NtRp2871
(dp2872
g74
(dp2873
g82
I3
ssg83
g2867
sg76
(lp2874
g1356
asbasbasbag69
(g85
g71
NtRp2875
(dp2876
g74
(dp2877
sg83
g2493
sg76
(lp2878
g69
(g90
g71
NtRp2879
(dp2880
g74
(dp2881
g94
g95
ssg83
g2875
sg76
(lp2882
S'SERVER_PORT'
p2883
asbag69
(g90
g71
NtRp2884
(dp2885
g74
(dp2886
g101
g102
ssg83
g2875
sg76
(lp2887
S':'
asbag69
(g90
g71
NtRp2888
(dp2889
g74
(dp2890
sg83
g2875
sg76
(lp2891
g69
(g70
g71
NtRp2892
(dp2893
g74
(dp2894
g82
I3
ssg83
g2888
sg76
(lp2895
g1378
asbasbasbag69
(g85
g71
NtRp2896
(dp2897
g74
(dp2898
sg83
g2493
sg76
(lp2899
g69
(g90
g71
NtRp2900
(dp2901
g74
(dp2902
g94
g95
ssg83
g2896
sg76
(lp2903
S'SERVER_PROTOCOL'
p2904
asbag69
(g90
g71
NtRp2905
(dp2906
g74
(dp2907
g101
g102
ssg83
g2896
sg76
(lp2908
S':'
asbag69
(g90
g71
NtRp2909
(dp2910
g74
(dp2911
sg83
g2896
sg76
(lp2912
g69
(g70
g71
NtRp2913
(dp2914
g74
(dp2915
g82
I3
ssg83
g2909
sg76
(lp2916
g1400
asbasbasbag69
(g85
g71
NtRp2917
(dp2918
g74
(dp2919
sg83
g2493
sg76
(lp2920
g69
(g90
g71
NtRp2921
(dp2922
g74
(dp2923
g94
g95
ssg83
g2917
sg76
(lp2924
S'SERVER_SOFTWARE'
p2925
asbag69
(g90
g71
NtRp2926
(dp2927
g74
(dp2928
g101
g102
ssg83
g2917
sg76
(lp2929
S':'
asbag69
(g90
g71
NtRp2930
(dp2931
g74
(dp2932
sg83
g2917
sg76
(lp2933
g69
(g70
g71
NtRp2934
(dp2935
g74
(dp2936
g82
I3
ssg83
g2930
sg76
(lp2937
g1422
asbasbasbag69
(g85
g71
NtRp2938
(dp2939
g74
(dp2940
sg83
g2493
sg76
(lp2941
g69
(g90
g71
NtRp2942
(dp2943
g74
(dp2944
g94
g95
ssg83
g2938
sg76
(lp2945
S'wsgi.errors'
p2946
asbag69
(g90
g71
NtRp2947
(dp2948
g74
(dp2949
g101
g102
ssg83
g2938
sg76
(lp2950
S':'
asbag69
(g90
g71
NtRp2951
(dp2952
g74
(dp2953
sg83
g2938
sg76
(lp2954
g69
(g70
g71
NtRp2955
(dp2956
g74
(dp2957
g82
I3
ssg83
g2951
sg76
(lp2958
S"<open file '<stderr>', mode 'w' at 0x7f2c54870270>"
p2959
asbasbasbag69
(g85
g71
NtRp2960
(dp2961
g74
(dp2962
sg83
g2493
sg76
(lp2963
g69
(g90
g71
NtRp2964
(dp2965
g74
(dp2966
g94
g95
ssg83
g2960
sg76
(lp2967
S'wsgi.file_wrapper'
p2968
asbag69
(g90
g71
NtRp2969
(dp2970
g74
(dp2971
g101
g102
ssg83
g2960
sg76
(lp2972
S':'
asbag69
(g90
g71
NtRp2973
(dp2974
g74
(dp2975
sg83
g2960
sg76
(lp2976
g69
(g70
g71
NtRp2977
(dp2978
g74
(dp2979
g82
I3
ssg83
g2973
sg76
(lp2980
S'<class wsgiref.util.FileWrapper at 0x28f0738>'
p2981
asbasbasbag69
(g85
g71
NtRp2982
(dp2983
g74
(dp2984
sg83
g2493
sg76
(lp2985
g69
(g90
g71
NtRp2986
(dp2987
g74
(dp2988
g94
g95
ssg83
g2982
sg76
(lp2989
S'wsgi.input'
p2990
asbag69
(g90
g71
NtRp2991
(dp2992
g74
(dp2993
g101
g102
ssg83
g2982
sg76
(lp2994
S':'
asbag69
(g90
g71
NtRp2995
(dp2996
g74
(dp2997
sg83
g2982
sg76
(lp2998
g69
(g70
g71
NtRp2999
(dp3000
g74
(dp3001
g82
I3
ssg83
g2995
sg76
(lp3002
S'<cStringIO.StringO object at 0x7f2c242914c8>'
p3003
asbasbasbag69
(g85
g71
NtRp3004
(dp3005
g74
(dp3006
sg83
g2493
sg76
(lp3007
g69
(g90
g71
NtRp3008
(dp3009
g74
(dp3010
g94
g95
ssg83
g3004
sg76
(lp3011
S'wsgi.multiprocess'
p3012
asbag69
(g90
g71
NtRp3013
(dp3014
g74
(dp3015
g101
g102
ssg83
g3004
sg76
(lp3016
S':'
asbag69
(g90
g71
NtRp3017
(dp3018
g74
(dp3019
sg83
g3004
sg76
(lp3020
g69
(g70
g71
NtRp3021
(dp3022
g74
(dp3023
g82
I3
ssg83
g3017
sg76
(lp3024
g112
asbasbasbag69
(g85
g71
NtRp3025
(dp3026
g74
(dp3027
sg83
g2493
sg76
(lp3028
g69
(g90
g71
NtRp3029
(dp3030
g74
(dp3031
g94
g95
ssg83
g3025
sg76
(lp3032
S'wsgi.multithread'
p3033
asbag69
(g90
g71
NtRp3034
(dp3035
g74
(dp3036
g101
g102
ssg83
g3025
sg76
(lp3037
S':'
asbag69
(g90
g71
NtRp3038
(dp3039
g74
(dp3040
sg83
g3025
sg76
(lp3041
g69
(g70
g71
NtRp3042
(dp3043
g74
(dp3044
g82
I3
ssg83
g3038
sg76
(lp3045
g1639
asbasbasbag69
(g85
g71
NtRp3046
(dp3047
g74
(dp3048
sg83
g2493
sg76
(lp3049
g69
(g90
g71
NtRp3050
(dp3051
g74
(dp3052
g94
g95
ssg83
g3046
sg76
(lp3053
S'wsgi.run_once'
p3054
asbag69
(g90
g71
NtRp3055
(dp3056
g74
(dp3057
g101
g102
ssg83
g3046
sg76
(lp3058
S':'
asbag69
(g90
g71
NtRp3059
(dp3060
g74
(dp3061
sg83
g3046
sg76
(lp3062
g69
(g70
g71
NtRp3063
(dp3064
g74
(dp3065
g82
I3
ssg83
g3059
sg76
(lp3066
g112
asbasbasbag69
(g85
g71
NtRp3067
(dp3068
g74
(dp3069
sg83
g2493
sg76
(lp3070
g69
(g90
g71
NtRp3071
(dp3072
g74
(dp3073
g94
g95
ssg83
g3067
sg76
(lp3074
S'wsgi.url_scheme'
p3075
asbag69
(g90
g71
NtRp3076
(dp3077
g74
(dp3078
g101
g102
ssg83
g3067
sg76
(lp3079
S':'
asbag69
(g90
g71
NtRp3080
(dp3081
g74
(dp3082
sg83
g3067
sg76
(lp3083
g69
(g70
g71
NtRp3084
(dp3085
g74
(dp3086
g82
I3
ssg83
g3080
sg76
(lp3087
g1682
asbasbasbag69
(g85
g71
NtRp3088
(dp3089
g74
(dp3090
sg83
g2493
sg76
(lp3091
g69
(g90
g71
NtRp3092
(dp3093
g74
(dp3094
g94
g95
ssg83
g3088
sg76
(lp3095
S'wsgi.version'
p3096
asbag69
(g90
g71
NtRp3097
(dp3098
g74
(dp3099
g101
g102
ssg83
g3088
sg76
(lp3100
S':'
asbag69
(g90
g71
NtRp3101
(dp3102
g74
(dp3103
sg83
g3088
sg76
(lp3104
g69
(g70
g71
NtRp3105
(dp3106
g74
(dp3107
g82
I3
ssg83
g3101
sg76
(lp3108
S'1'
asbasbasbasbasbasbasbasbasbasbasbasbasbsS'frames'
p3109
(lp3110
(dp3111
S'file'
p3112
S'/home/diego/web2py/gluon/restricted.py'
p3113
sS'dump'
p3114
(dp3115
S'environment'
p3116
S"{'A': <class 'gluon.html.A'>, 'Auth': <class 'gluon.tools.Auth'>, 'B': <class 'gluon.html.B'>, 'BEAUTIFY': <class 'gluon.html.BEAUTIFY'>, 'BODY': <class 'gluon.html.BODY'>, 'BR': <class 'gluon.html.BR'>, 'BUTTON': <class 'gluon.html.BUTTON'>, 'CAT': <class 'gluon.html.CAT'>, 'CENTER': <class 'gluon.html.CENTER'>, 'CLEANUP': <class 'gluon.validators.CLEANUP'>, ...}"
p3117
sS'ccode'
p3118
S'<code object <module> at 0x7f2c20331030, file "/...py/applications/irecycle/models/3_db.py", line 2>'
p3119
ssS'lnum'
p3120
I212
sS'lines'
p3121
(dp3122
I207
S'    try:'
p3123
sI208
S'        if isinstance(code, types.CodeType):'
p3124
sI209
S'            ccode = code'
p3125
sI210
S'        else:'
p3126
sI211
S'            ccode = compile2(code, layer)'
p3127
sI212
S'        exec ccode in environment'
p3128
sI213
S'    except HTTP:'
p3129
sI214
S'        raise'
p3130
sI215
S'    except RestrictedError:'
p3131
sI216
S'        # do not encapsulate (obfuscate) the original RestrictedError'
p3132
ssS'call'
p3133
S'(code=\'\\nEntrar = db.define_table("logn",\\n\\tField("name",...set, "user_address.id", "%(country)s - %(city)s")\', environment={\'A\': <class \'gluon.html.A\'>, \'Auth\': <class \'gluon.tools.Auth\'>, \'B\': <class \'gluon.html.B\'>, \'BEAUTIFY\': <class \'gluon.html.BEAUTIFY\'>, \'BODY\': <class \'gluon.html.BODY\'>, \'BR\': <class \'gluon.html.BR\'>, \'BUTTON\': <class \'gluon.html.BUTTON\'>, \'CAT\': <class \'gluon.html.CAT\'>, \'CENTER\': <class \'gluon.html.CENTER\'>, \'CLEANUP\': <class \'gluon.validators.CLEANUP\'>, ...}, layer=\'/home/diego/web2py/applications/irecycle/models/3_db.py\')'
p3134
sS'func'
p3135
S'restricted'
p3136
sa(dp3137
g3112
S'/home/diego/web2py/applications/irecycle/models/3_db.py'
p3138
sg3114
(dp3139
S'Field'
p3140
S"<class 'gluon.dal.Field'>"
p3141
ssg3120
I20
sg3121
(dp3142
I15
S'\tformat="%(name)s")'
p3143
sI16
S''
sI17
S'UserAddress = db.define_table("user_address",'
p3144
sI18
S'\tField("user_id", "reference user_id"),'
p3145
sI19
S'\tField("CEP"),'
p3146
sI20
S'\tField("Pa\xc3\xads"),'
p3147
sI21
S'\tField("region"),'
p3148
sI22
S'\tField("Estado"),'
p3149
sI23
S'\tField("Cidade"),'
p3150
sI24
S'\tField("address_type"),'
p3151
ssg3133
S'()'
p3152
sg3135
S'<module>'
p3153
sa(dp3154
g3112
S'/home/diego/web2py/gluon/dal.py'
p3155
sg3114
(dp3156
S'fieldname'
p3157
S"'Pa\\xc3\\xads'"
p3158
sS'self'
p3159
S'<gluon.dal.Field object>'
p3160
sS'self.name'
p3161
S'undefined'
p3162
sS'global cleanup'
p3163
S'<function cleanup>'
p3164
ssg3120
I8546
sg3121
(dp3165
I8544
S'        self.first = None'
p3166
sI8545
S'        self.second = None'
p3167
sI8546
S'        self.name = fieldname = cleanup(fieldname)'
p3168
sI8547
S'        if not isinstance(fieldname,str) or hasattr(Table,fieldname) or \\'
p3169
sI8548
S"                fieldname[0] == '_' or REGEX_PYTHON_KEYWORDS.match(fieldname):"
p3170
sI8549
S"            raise SyntaxError('Field: invalid field name: %s' % fieldname)"
p3171
sI8550
S"        self.type = type if not isinstance(type, (Table,Field)) else 'reference %s' % type"
p3172
sI8541
S'        ):'
p3173
sI8542
S'        self._db = self.db = None # both for backward compatibility'
p3174
sI8543
S'        self.op = None'
p3175
ssg3133
S"(self=<gluon.dal.Field object>, fieldname='Pa\\xc3\\xads', type='string', length=None, default=<function <lambda>>, required=False, requires=<function <lambda>>, ondelete='CASCADE', notnull=False, unique=False, uploadfield=True, widget=None, label=None, comment=None, writable=True, readable=True, update=None, authorize=None, autodelete=False, represent=None, uploadfolder=None, uploadseparate=False, uploadfs=None, compute=None, custom_store=None, custom_retrieve=None, custom_retrieve_file_properties=None, custom_delete=None, filter_in=None, filter_out=None, custom_qualifier=None, map_none=None)"
p3176
sg3135
g24
sa(dp3177
g3112
S'/home/diego/web2py/gluon/dal.py'
p3178
sg3114
(dp3179
S'text'
p3180
S"'Pa\\xc3\\xads'"
p3181
sS'builtinSyntaxError'
p3182
S"<type 'exceptions.SyntaxError'>"
p3183
ssg3120
I4886
sg3121
(dp3184
I4881
S'def cleanup(text):'
p3185
sI4882
S'    """'
p3186
sI4883
S'    validates that the given text is clean: only contains [0-9a-zA-Z_]'
p3187
sI4884
S'    """'
p3188
sI4885
S'    if not REGEX_ALPHANUMERIC.match(text):'
p3189
sI4886
S"        raise SyntaxError('invalid table or field name: %s' % text)"
p3190
sI4887
S'    return text'
p3191
sI4888
S''
sI4889
S'class MongoDBAdapter(NoSQLAdapter):'
p3192
sI4890
S"    drivers = ('pymongo',)"
p3193
ssg3133
S"(text='Pa\\xc3\\xads')"
p3194
sg3135
S'cleanup'
p3195
sasS'pyver'
p3196
S'Python 2.7.3: /usr/bin/python'
p3197
sS'session'
p3198
g69
(g70
g71
NtRp3199
(dp3200
g74
(dp3201
sg76
(lp3202
g69
(g78
g71
NtRp3203
(dp3204
g74
(dp3205
g82
I5
ssg83
Nsg76
(lp3206
g69
(g85
g71
NtRp3207
(dp3208
g74
(dp3209
sg83
g3203
sg76
(lp3210
g69
(g90
g71
NtRp3211
(dp3212
g74
(dp3213
g94
g95
ssg83
g3207
sg76
(lp3214
S'auth'
p3215
asbag69
(g90
g71
NtRp3216
(dp3217
g74
(dp3218
g101
g102
ssg83
g3207
sg76
(lp3219
S':'
asbag69
(g90
g71
NtRp3220
(dp3221
g74
(dp3222
sg83
g3207
sg76
(lp3223
g69
(g70
g71
NtRp3224
(dp3225
g74
(dp3226
g82
I5
ssg83
g3220
sg76
(lp3227
g69
(g78
g71
NtRp3228
(dp3229
g74
(dp3230
g82
I4
ssg83
Nsg76
(lp3231
g69
(g85
g71
NtRp3232
(dp3233
g74
(dp3234
sg83
g3228
sg76
(lp3235
g69
(g90
g71
NtRp3236
(dp3237
g74
(dp3238
g94
g95
ssg83
g3232
sg76
(lp3239
S'expiration'
p3240
asbag69
(g90
g71
NtRp3241
(dp3242
g74
(dp3243
g101
g102
ssg83
g3232
sg76
(lp3244
S':'
asbag69
(g90
g71
NtRp3245
(dp3246
g74
(dp3247
sg83
g3232
sg76
(lp3248
g69
(g70
g71
NtRp3249
(dp3250
g74
(dp3251
g82
I4
ssg83
g3245
sg76
(lp3252
S'3600'
p3253
asbasbasbag69
(g85
g71
NtRp3254
(dp3255
g74
(dp3256
sg83
g3228
sg76
(lp3257
g69
(g90
g71
NtRp3258
(dp3259
g74
(dp3260
g94
g95
ssg83
g3254
sg76
(lp3261
S'hmac_key'
p3262
asbag69
(g90
g71
NtRp3263
(dp3264
g74
(dp3265
g101
g102
ssg83
g3254
sg76
(lp3266
S':'
asbag69
(g90
g71
NtRp3267
(dp3268
g74
(dp3269
sg83
g3254
sg76
(lp3270
g69
(g70
g71
NtRp3271
(dp3272
g74
(dp3273
g82
I4
ssg83
g3267
sg76
(lp3274
S'389e1275-8821-492b-a9cc-9448f16c3e3d'
p3275
asbasbasbag69
(g85
g71
NtRp3276
(dp3277
g74
(dp3278
sg83
g3228
sg76
(lp3279
g69
(g90
g71
NtRp3280
(dp3281
g74
(dp3282
g94
g95
ssg83
g3276
sg76
(lp3283
S'last_visit'
p3284
asbag69
(g90
g71
NtRp3285
(dp3286
g74
(dp3287
g101
g102
ssg83
g3276
sg76
(lp3288
S':'
asbag69
(g90
g71
NtRp3289
(dp3290
g74
(dp3291
sg83
g3276
sg76
(lp3292
g69
(g70
g71
NtRp3293
(dp3294
g74
(dp3295
g82
I4
ssg83
g3289
sg76
(lp3296
S'datetime.datetime(2013, 1, 31, 16, 23, 37, 550359)'
p3297
asbasbasbag69
(g85
g71
NtRp3298
(dp3299
g74
(dp3300
sg83
g3228
sg76
(lp3301
g69
(g90
g71
NtRp3302
(dp3303
g74
(dp3304
g94
g95
ssg83
g3298
sg76
(lp3305
S'user'
p3306
asbag69
(g90
g71
NtRp3307
(dp3308
g74
(dp3309
g101
g102
ssg83
g3298
sg76
(lp3310
S':'
asbag69
(g90
g71
NtRp3311
(dp3312
g74
(dp3313
sg83
g3298
sg76
(lp3314
g69
(g70
g71
NtRp3315
(dp3316
g74
(dp3317
g82
I4
ssg83
g3311
sg76
(lp3318
g69
(g78
g71
NtRp3319
(dp3320
g74
(dp3321
g82
I3
ssg83
Nsg76
(lp3322
g69
(g85
g71
NtRp3323
(dp3324
g74
(dp3325
sg83
g3319
sg76
(lp3326
g69
(g90
g71
NtRp3327
(dp3328
g74
(dp3329
g94
g95
ssg83
g3323
sg76
(lp3330
S'avatar'
p3331
asbag69
(g90
g71
NtRp3332
(dp3333
g74
(dp3334
g101
g102
ssg83
g3323
sg76
(lp3335
S':'
asbag69
(g90
g71
NtRp3336
(dp3337
g74
(dp3338
sg83
g3323
sg76
(lp3339
g69
(g70
g71
NtRp3340
(dp3341
g74
(dp3342
g82
I3
ssg83
g3336
sg76
(lp3343
S''
asbasbasbag69
(g85
g71
NtRp3344
(dp3345
g74
(dp3346
sg83
g3319
sg76
(lp3347
g69
(g90
g71
NtRp3348
(dp3349
g74
(dp3350
g94
g95
ssg83
g3344
sg76
(lp3351
S'email'
p3352
asbag69
(g90
g71
NtRp3353
(dp3354
g74
(dp3355
g101
g102
ssg83
g3344
sg76
(lp3356
S':'
asbag69
(g90
g71
NtRp3357
(dp3358
g74
(dp3359
sg83
g3344
sg76
(lp3360
g69
(g70
g71
NtRp3361
(dp3362
g74
(dp3363
g82
I3
ssg83
g3357
sg76
(lp3364
S'diego.s.miranda@me.com'
p3365
asbasbasbag69
(g85
g71
NtRp3366
(dp3367
g74
(dp3368
sg83
g3319
sg76
(lp3369
g69
(g90
g71
NtRp3370
(dp3371
g74
(dp3372
g94
g95
ssg83
g3366
sg76
(lp3373
S'first_name'
p3374
asbag69
(g90
g71
NtRp3375
(dp3376
g74
(dp3377
g101
g102
ssg83
g3366
sg76
(lp3378
S':'
asbag69
(g90
g71
NtRp3379
(dp3380
g74
(dp3381
sg83
g3366
sg76
(lp3382
g69
(g70
g71
NtRp3383
(dp3384
g74
(dp3385
g82
I3
ssg83
g3379
sg76
(lp3386
S'Diego'
p3387
asbasbasbag69
(g85
g71
NtRp3388
(dp3389
g74
(dp3390
sg83
g3319
sg76
(lp3391
g69
(g90
g71
NtRp3392
(dp3393
g74
(dp3394
g94
g95
ssg83
g3388
sg76
(lp3395
S'id'
p3396
asbag69
(g90
g71
NtRp3397
(dp3398
g74
(dp3399
g101
g102
ssg83
g3388
sg76
(lp3400
S':'
asbag69
(g90
g71
NtRp3401
(dp3402
g74
(dp3403
sg83
g3388
sg76
(lp3404
g69
(g70
g71
NtRp3405
(dp3406
g74
(dp3407
g82
I3
ssg83
g3401
sg76
(lp3408
S'18'
p3409
asbasbasbag69
(g85
g71
NtRp3410
(dp3411
g74
(dp3412
sg83
g3319
sg76
(lp3413
g69
(g90
g71
NtRp3414
(dp3415
g74
(dp3416
g94
g95
ssg83
g3410
sg76
(lp3417
S'last_name'
p3418
asbag69
(g90
g71
NtRp3419
(dp3420
g74
(dp3421
g101
g102
ssg83
g3410
sg76
(lp3422
S':'
asbag69
(g90
g71
NtRp3423
(dp3424
g74
(dp3425
sg83
g3410
sg76
(lp3426
g69
(g70
g71
NtRp3427
(dp3428
g74
(dp3429
g82
I3
ssg83
g3423
sg76
(lp3430
S'de Sousa Miranda'
p3431
asbasbasbag69
(g85
g71
NtRp3432
(dp3433
g74
(dp3434
sg83
g3319
sg76
(lp3435
g69
(g90
g71
NtRp3436
(dp3437
g74
(dp3438
g94
g95
ssg83
g3432
sg76
(lp3439
S'registration_id'
p3440
asbag69
(g90
g71
NtRp3441
(dp3442
g74
(dp3443
g101
g102
ssg83
g3432
sg76
(lp3444
S':'
asbag69
(g90
g71
NtRp3445
(dp3446
g74
(dp3447
sg83
g3432
sg76
(lp3448
g69
(g70
g71
NtRp3449
(dp3450
g74
(dp3451
g82
I3
ssg83
g3445
sg76
(lp3452
S''
asbasbasbag69
(g85
g71
NtRp3453
(dp3454
g74
(dp3455
sg83
g3319
sg76
(lp3456
g69
(g90
g71
NtRp3457
(dp3458
g74
(dp3459
g94
g95
ssg83
g3453
sg76
(lp3460
S'registration_key'
p3461
asbag69
(g90
g71
NtRp3462
(dp3463
g74
(dp3464
g101
g102
ssg83
g3453
sg76
(lp3465
S':'
asbag69
(g90
g71
NtRp3466
(dp3467
g74
(dp3468
sg83
g3453
sg76
(lp3469
g69
(g70
g71
NtRp3470
(dp3471
g74
(dp3472
g82
I3
ssg83
g3466
sg76
(lp3473
S''
asbasbasbag69
(g85
g71
NtRp3474
(dp3475
g74
(dp3476
sg83
g3319
sg76
(lp3477
g69
(g90
g71
NtRp3478
(dp3479
g74
(dp3480
g94
g95
ssg83
g3474
sg76
(lp3481
S'reset_password_key'
p3482
asbag69
(g90
g71
NtRp3483
(dp3484
g74
(dp3485
g101
g102
ssg83
g3474
sg76
(lp3486
S':'
asbag69
(g90
g71
NtRp3487
(dp3488
g74
(dp3489
sg83
g3474
sg76
(lp3490
g69
(g70
g71
NtRp3491
(dp3492
g74
(dp3493
g82
I3
ssg83
g3487
sg76
(lp3494
S''
asbasbasbag69
(g85
g71
NtRp3495
(dp3496
g74
(dp3497
sg83
g3319
sg76
(lp3498
g69
(g90
g71
NtRp3499
(dp3500
g74
(dp3501
g94
g95
ssg83
g3495
sg76
(lp3502
S'thumbnail'
p3503
asbag69
(g90
g71
NtRp3504
(dp3505
g74
(dp3506
g101
g102
ssg83
g3495
sg76
(lp3507
S':'
asbag69
(g90
g71
NtRp3508
(dp3509
g74
(dp3510
sg83
g3495
sg76
(lp3511
g69
(g70
g71
NtRp3512
(dp3513
g74
(dp3514
g82
I3
ssg83
g3508
sg76
(lp3515
S''
asbasbasbasbasbasbasbag69
(g85
g71
NtRp3516
(dp3517
g74
(dp3518
sg83
g3228
sg76
(lp3519
g69
(g90
g71
NtRp3520
(dp3521
g74
(dp3522
g94
g95
ssg83
g3516
sg76
(lp3523
S'user_groups'
p3524
asbag69
(g90
g71
NtRp3525
(dp3526
g74
(dp3527
g101
g102
ssg83
g3516
sg76
(lp3528
S':'
asbag69
(g90
g71
NtRp3529
(dp3530
g74
(dp3531
sg83
g3516
sg76
(lp3532
g69
(g70
g71
NtRp3533
(dp3534
g74
(dp3535
g82
I4
ssg83
g3529
sg76
(lp3536
g69
(g78
g71
NtRp3537
(dp3538
g74
(dp3539
g82
I3
ssg83
Nsg76
(lp3540
g69
(g85
g71
NtRp3541
(dp3542
g74
(dp3543
sg83
g3537
sg76
(lp3544
g69
(g90
g71
NtRp3545
(dp3546
g74
(dp3547
g94
g95
ssg83
g3541
sg76
(lp3548
S'17'
p3549
asbag69
(g90
g71
NtRp3550
(dp3551
g74
(dp3552
g101
g102
ssg83
g3541
sg76
(lp3553
S':'
asbag69
(g90
g71
NtRp3554
(dp3555
g74
(dp3556
sg83
g3541
sg76
(lp3557
g69
(g70
g71
NtRp3558
(dp3559
g74
(dp3560
g82
I3
ssg83
g3554
sg76
(lp3561
S'user_18'
p3562
asbasbasbasbasbasbasbasbasbasbasbag69
(g85
g71
NtRp3563
(dp3564
g74
(dp3565
sg83
g3203
sg76
(lp3566
g69
(g90
g71
NtRp3567
(dp3568
g74
(dp3569
g94
g95
ssg83
g3563
sg76
(lp3570
S'flash'
p3571
asbag69
(g90
g71
NtRp3572
(dp3573
g74
(dp3574
g101
g102
ssg83
g3563
sg76
(lp3575
S':'
asbag69
(g90
g71
NtRp3576
(dp3577
g74
(dp3578
sg83
g3563
sg76
(lp3579
g69
(g70
g71
NtRp3580
(dp3581
g74
(dp3582
g82
I5
ssg83
g3576
sg76
(lp3583
S'None'
p3584
asbasbasbag69
(g85
g71
NtRp3585
(dp3586
g74
(dp3587
sg83
g3203
sg76
(lp3588
g69
(g90
g71
NtRp3589
(dp3590
g74
(dp3591
g94
g95
ssg83
g3585
sg76
(lp3592
S'last_orderby'
p3593
asbag69
(g90
g71
NtRp3594
(dp3595
g74
(dp3596
g101
g102
ssg83
g3585
sg76
(lp3597
S':'
asbag69
(g90
g71
NtRp3598
(dp3599
g74
(dp3600
sg83
g3585
sg76
(lp3601
g69
(g70
g71
NtRp3602
(dp3603
g74
(dp3604
g82
I5
ssg83
g3598
sg76
(lp3605
S'None'
p3606
asbasbasbag69
(g85
g71
NtRp3607
(dp3608
g74
(dp3609
sg83
g3203
sg76
(lp3610
g69
(g90
g71
NtRp3611
(dp3612
g74
(dp3613
g94
g95
ssg83
g3607
sg76
(lp3614
S'last_query'
p3615
asbag69
(g90
g71
NtRp3616
(dp3617
g74
(dp3618
g101
g102
ssg83
g3607
sg76
(lp3619
S':'
asbag69
(g90
g71
NtRp3620
(dp3621
g74
(dp3622
sg83
g3607
sg76
(lp3623
g69
(g70
g71
NtRp3624
(dp3625
g74
(dp3626
g82
I5
ssg83
g3620
sg76
(lp3627
S'db.auth_user.id>0'
p3628
asbasbasbasbasbsS'etype'
p3629
S"<type 'exceptions.SyntaxError'>"
p3630
sS'date'
p3631
S'Thu Jan 31 16:23:37 2013'
p3632
sS'response'
p3633
g69
(g70
g71
NtRp3634
(dp3635
g74
(dp3636
sg76
(lp3637
g69
(g78
g71
NtRp3638
(dp3639
g74
(dp3640
g82
I5
ssg83
Nsg76
(lp3641
g69
(g85
g71
NtRp3642
(dp3643
g74
(dp3644
sg83
g3638
sg76
(lp3645
g69
(g90
g71
NtRp3646
(dp3647
g74
(dp3648
g94
g95
ssg83
g3642
sg76
(lp3649
g167
asbag69
(g90
g71
NtRp3650
(dp3651
g74
(dp3652
g101
g102
ssg83
g3642
sg76
(lp3653
S':'
asbag69
(g90
g71
NtRp3654
(dp3655
g74
(dp3656
sg83
g3642
sg76
(lp3657
g69
(g70
g71
NtRp3658
(dp3659
g74
(dp3660
g82
I5
ssg83
g3654
sg76
(lp3661
S'<cStringIO.StringO object at 0x7f2c243fd0a0>'
p3662
asbasbasbag69
(g85
g71
NtRp3663
(dp3664
g74
(dp3665
sg83
g3638
sg76
(lp3666
g69
(g90
g71
NtRp3667
(dp3668
g74
(dp3669
g94
g95
ssg83
g3663
sg76
(lp3670
g255
asbag69
(g90
g71
NtRp3671
(dp3672
g74
(dp3673
g101
g102
ssg83
g3663
sg76
(lp3674
S':'
asbag69
(g90
g71
NtRp3675
(dp3676
g74
(dp3677
sg83
g3663
sg76
(lp3678
g69
(g70
g71
NtRp3679
(dp3680
g74
(dp3681
g82
I5
ssg83
g3675
sg76
(lp3682
g69
(g78
g71
NtRp3683
(dp3684
g74
(dp3685
g82
I4
ssg83
Nsg76
(lp3686
g69
(g85
g71
NtRp3687
(dp3688
g74
(dp3689
sg83
g3683
sg76
(lp3690
g69
(g90
g71
NtRp3691
(dp3692
g74
(dp3693
g94
g95
ssg83
g3687
sg76
(lp3694
S'session_id_irecycle'
p3695
asbag69
(g90
g71
NtRp3696
(dp3697
g74
(dp3698
g101
g102
ssg83
g3687
sg76
(lp3699
S':'
asbag69
(g90
g71
NtRp3700
(dp3701
g74
(dp3702
sg83
g3687
sg76
(lp3703
g69
(g70
g71
NtRp3704
(dp3705
g74
(dp3706
g82
I4
ssg83
g3700
sg76
(lp3707
g487
ag69
(g78
g71
NtRp3708
(dp3709
g74
(dp3710
g82
I3
ssg83
Nsg76
(lp3711
g69
(g85
g71
NtRp3712
(dp3713
g74
(dp3714
sg83
g3708
sg76
(lp3715
g69
(g90
g71
NtRp3716
(dp3717
g74
(dp3718
g94
g95
ssg83
g3712
sg76
(lp3719
g306
asbag69
(g90
g71
NtRp3720
(dp3721
g74
(dp3722
g101
g102
ssg83
g3712
sg76
(lp3723
S':'
asbag69
(g90
g71
NtRp3724
(dp3725
g74
(dp3726
sg83
g3712
sg76
(lp3727
g69
(g70
g71
NtRp3728
(dp3729
g74
(dp3730
g82
I3
ssg83
g3724
sg76
(lp3731
S''
asbasbasbag69
(g85
g71
NtRp3732
(dp3733
g74
(dp3734
sg83
g3708
sg76
(lp3735
g69
(g90
g71
NtRp3736
(dp3737
g74
(dp3738
g94
g95
ssg83
g3732
sg76
(lp3739
g327
asbag69
(g90
g71
NtRp3740
(dp3741
g74
(dp3742
g101
g102
ssg83
g3732
sg76
(lp3743
S':'
asbag69
(g90
g71
NtRp3744
(dp3745
g74
(dp3746
sg83
g3732
sg76
(lp3747
g69
(g70
g71
NtRp3748
(dp3749
g74
(dp3750
g82
I3
ssg83
g3744
sg76
(lp3751
S''
asbasbasbag69
(g85
g71
NtRp3752
(dp3753
g74
(dp3754
sg83
g3708
sg76
(lp3755
g69
(g90
g71
NtRp3756
(dp3757
g74
(dp3758
g94
g95
ssg83
g3752
sg76
(lp3759
g348
asbag69
(g90
g71
NtRp3760
(dp3761
g74
(dp3762
g101
g102
ssg83
g3752
sg76
(lp3763
S':'
asbag69
(g90
g71
NtRp3764
(dp3765
g74
(dp3766
sg83
g3752
sg76
(lp3767
g69
(g70
g71
NtRp3768
(dp3769
g74
(dp3770
g82
I3
ssg83
g3764
sg76
(lp3771
S''
asbasbasbag69
(g85
g71
NtRp3772
(dp3773
g74
(dp3774
sg83
g3708
sg76
(lp3775
g69
(g90
g71
NtRp3776
(dp3777
g74
(dp3778
g94
g95
ssg83
g3772
sg76
(lp3779
g369
asbag69
(g90
g71
NtRp3780
(dp3781
g74
(dp3782
g101
g102
ssg83
g3772
sg76
(lp3783
S':'
asbag69
(g90
g71
NtRp3784
(dp3785
g74
(dp3786
sg83
g3772
sg76
(lp3787
g69
(g70
g71
NtRp3788
(dp3789
g74
(dp3790
g82
I3
ssg83
g3784
sg76
(lp3791
S''
asbasbasbag69
(g85
g71
NtRp3792
(dp3793
g74
(dp3794
sg83
g3708
sg76
(lp3795
g69
(g90
g71
NtRp3796
(dp3797
g74
(dp3798
g94
g95
ssg83
g3792
sg76
(lp3799
g390
asbag69
(g90
g71
NtRp3800
(dp3801
g74
(dp3802
g101
g102
ssg83
g3792
sg76
(lp3803
S':'
asbag69
(g90
g71
NtRp3804
(dp3805
g74
(dp3806
sg83
g3792
sg76
(lp3807
g69
(g70
g71
NtRp3808
(dp3809
g74
(dp3810
g82
I3
ssg83
g3804
sg76
(lp3811
S''
asbasbasbag69
(g85
g71
NtRp3812
(dp3813
g74
(dp3814
sg83
g3708
sg76
(lp3815
g69
(g90
g71
NtRp3816
(dp3817
g74
(dp3818
g94
g95
ssg83
g3812
sg76
(lp3819
g411
asbag69
(g90
g71
NtRp3820
(dp3821
g74
(dp3822
g101
g102
ssg83
g3812
sg76
(lp3823
S':'
asbag69
(g90
g71
NtRp3824
(dp3825
g74
(dp3826
sg83
g3812
sg76
(lp3827
g69
(g70
g71
NtRp3828
(dp3829
g74
(dp3830
g82
I3
ssg83
g3824
sg76
(lp3831
S'/'
asbasbasbag69
(g85
g71
NtRp3832
(dp3833
g74
(dp3834
sg83
g3708
sg76
(lp3835
g69
(g90
g71
NtRp3836
(dp3837
g74
(dp3838
g94
g95
ssg83
g3832
sg76
(lp3839
g432
asbag69
(g90
g71
NtRp3840
(dp3841
g74
(dp3842
g101
g102
ssg83
g3832
sg76
(lp3843
S':'
asbag69
(g90
g71
NtRp3844
(dp3845
g74
(dp3846
sg83
g3832
sg76
(lp3847
g69
(g70
g71
NtRp3848
(dp3849
g74
(dp3850
g82
I3
ssg83
g3844
sg76
(lp3851
S''
asbasbasbag69
(g85
g71
NtRp3852
(dp3853
g74
(dp3854
sg83
g3708
sg76
(lp3855
g69
(g90
g71
NtRp3856
(dp3857
g74
(dp3858
g94
g95
ssg83
g3852
sg76
(lp3859
g453
asbag69
(g90
g71
NtRp3860
(dp3861
g74
(dp3862
g101
g102
ssg83
g3852
sg76
(lp3863
S':'
asbag69
(g90
g71
NtRp3864
(dp3865
g74
(dp3866
sg83
g3852
sg76
(lp3867
g69
(g70
g71
NtRp3868
(dp3869
g74
(dp3870
g82
I3
ssg83
g3864
sg76
(lp3871
S''
asbasbasbasbasbasbasbasbasbasbasbag69
(g85
g71
NtRp3872
(dp3873
g74
(dp3874
sg83
g3638
sg76
(lp3875
g69
(g90
g71
NtRp3876
(dp3877
g74
(dp3878
g94
g95
ssg83
g3872
sg76
(lp3879
S'delimiters'
p3880
asbag69
(g90
g71
NtRp3881
(dp3882
g74
(dp3883
g101
g102
ssg83
g3872
sg76
(lp3884
S':'
asbag69
(g90
g71
NtRp3885
(dp3886
g74
(dp3887
sg83
g3872
sg76
(lp3888
g69
(g70
g71
NtRp3889
(dp3890
g74
(dp3891
g82
I5
ssg83
g3885
sg76
(lp3892
g69
(g78
g71
NtRp3893
(dp3894
g74
(dp3895
g82
I4
ssg83
Nsg76
(lp3896
g69
(g85
g71
NtRp3897
(dp3898
g74
(dp3899
sg83
g3893
sg76
(lp3900
g69
(g90
g71
NtRp3901
(dp3902
g74
(dp3903
sg83
g3897
sg76
(lp3904
g69
(g70
g71
NtRp3905
(dp3906
g74
(dp3907
g82
I4
ssg83
g3901
sg76
(lp3908
S'{{'
p3909
asbasbasbag69
(g85
g71
NtRp3910
(dp3911
g74
(dp3912
sg83
g3893
sg76
(lp3913
g69
(g90
g71
NtRp3914
(dp3915
g74
(dp3916
sg83
g3910
sg76
(lp3917
g69
(g70
g71
NtRp3918
(dp3919
g74
(dp3920
g82
I4
ssg83
g3914
sg76
(lp3921
S'}}'
p3922
asbasbasbasbasbasbasbag69
(g85
g71
NtRp3923
(dp3924
g74
(dp3925
sg83
g3638
sg76
(lp3926
g69
(g90
g71
NtRp3927
(dp3928
g74
(dp3929
g94
g95
ssg83
g3923
sg76
(lp3930
S'files'
p3931
asbag69
(g90
g71
NtRp3932
(dp3933
g74
(dp3934
g101
g102
ssg83
g3923
sg76
(lp3935
S':'
asbag69
(g90
g71
NtRp3936
(dp3937
g74
(dp3938
sg83
g3923
sg76
(lp3939
g69
(g70
g71
NtRp3940
(dp3941
g74
(dp3942
g82
I5
ssg83
g3936
sg76
(lp3943
g69
(g78
g71
NtRp3944
(dp3945
g74
(dp3946
g82
I4
ssg83
Nsg76
(lp3947
sbasbasbasbag69
(g85
g71
NtRp3948
(dp3949
g74
(dp3950
sg83
g3638
sg76
(lp3951
g69
(g90
g71
NtRp3952
(dp3953
g74
(dp3954
g94
g95
ssg83
g3948
sg76
(lp3955
S'flash'
p3956
asbag69
(g90
g71
NtRp3957
(dp3958
g74
(dp3959
g101
g102
ssg83
g3948
sg76
(lp3960
S':'
asbag69
(g90
g71
NtRp3961
(dp3962
g74
(dp3963
sg83
g3948
sg76
(lp3964
g69
(g70
g71
NtRp3965
(dp3966
g74
(dp3967
g82
I5
ssg83
g3961
sg76
(lp3968
S''
asbasbasbag69
(g85
g71
NtRp3969
(dp3970
g74
(dp3971
sg83
g3638
sg76
(lp3972
g69
(g90
g71
NtRp3973
(dp3974
g74
(dp3975
g94
g95
ssg83
g3969
sg76
(lp3976
S'generic_patterns'
p3977
asbag69
(g90
g71
NtRp3978
(dp3979
g74
(dp3980
g101
g102
ssg83
g3969
sg76
(lp3981
S':'
asbag69
(g90
g71
NtRp3982
(dp3983
g74
(dp3984
sg83
g3969
sg76
(lp3985
g69
(g70
g71
NtRp3986
(dp3987
g74
(dp3988
g82
I5
ssg83
g3982
sg76
(lp3989
g69
(g78
g71
NtRp3990
(dp3991
g74
(dp3992
g82
I4
ssg83
Nsg76
(lp3993
g69
(g85
g71
NtRp3994
(dp3995
g74
(dp3996
sg83
g3990
sg76
(lp3997
g69
(g90
g71
NtRp3998
(dp3999
g74
(dp4000
sg83
g3994
sg76
(lp4001
g69
(g70
g71
NtRp4002
(dp4003
g74
(dp4004
g82
I4
ssg83
g3998
sg76
(lp4005
S'*'
asbasbasbasbasbasbasbag69
(g85
g71
NtRp4006
(dp4007
g74
(dp4008
sg83
g3638
sg76
(lp4009
g69
(g90
g71
NtRp4010
(dp4011
g74
(dp4012
g94
g95
ssg83
g4006
sg76
(lp4013
S'headers'
p4014
asbag69
(g90
g71
NtRp4015
(dp4016
g74
(dp4017
g101
g102
ssg83
g4006
sg76
(lp4018
S':'
asbag69
(g90
g71
NtRp4019
(dp4020
g74
(dp4021
sg83
g4006
sg76
(lp4022
g69
(g70
g71
NtRp4023
(dp4024
g74
(dp4025
g82
I5
ssg83
g4019
sg76
(lp4026
g69
(g78
g71
NtRp4027
(dp4028
g74
(dp4029
g82
I4
ssg83
Nsg76
(lp4030
g69
(g85
g71
NtRp4031
(dp4032
g74
(dp4033
sg83
g4027
sg76
(lp4034
g69
(g90
g71
NtRp4035
(dp4036
g74
(dp4037
g94
g95
ssg83
g4031
sg76
(lp4038
S'X-Powered-By'
p4039
asbag69
(g90
g71
NtRp4040
(dp4041
g74
(dp4042
g101
g102
ssg83
g4031
sg76
(lp4043
S':'
asbag69
(g90
g71
NtRp4044
(dp4045
g74
(dp4046
sg83
g4031
sg76
(lp4047
g69
(g70
g71
NtRp4048
(dp4049
g74
(dp4050
g82
I4
ssg83
g4044
sg76
(lp4051
S'web2py'
p4052
asbasbasbasbasbasbasbag69
(g85
g71
NtRp4053
(dp4054
g74
(dp4055
sg83
g3638
sg76
(lp4056
g69
(g90
g71
NtRp4057
(dp4058
g74
(dp4059
g94
g95
ssg83
g4053
sg76
(lp4060
S'menu'
p4061
asbag69
(g90
g71
NtRp4062
(dp4063
g74
(dp4064
g101
g102
ssg83
g4053
sg76
(lp4065
S':'
asbag69
(g90
g71
NtRp4066
(dp4067
g74
(dp4068
sg83
g4053
sg76
(lp4069
g69
(g70
g71
NtRp4070
(dp4071
g74
(dp4072
g82
I5
ssg83
g4066
sg76
(lp4073
g69
(g78
g71
NtRp4074
(dp4075
g74
(dp4076
g82
I4
ssg83
Nsg76
(lp4077
sbasbasbasbag69
(g85
g71
NtRp4078
(dp4079
g74
(dp4080
sg83
g3638
sg76
(lp4081
g69
(g90
g71
NtRp4082
(dp4083
g74
(dp4084
g94
g95
ssg83
g4078
sg76
(lp4085
S'meta'
p4086
asbag69
(g90
g71
NtRp4087
(dp4088
g74
(dp4089
g101
g102
ssg83
g4078
sg76
(lp4090
S':'
asbag69
(g90
g71
NtRp4091
(dp4092
g74
(dp4093
sg83
g4078
sg76
(lp4094
g69
(g70
g71
NtRp4095
(dp4096
g74
(dp4097
g82
I5
ssg83
g4091
sg76
(lp4098
g69
(g78
g71
NtRp4099
(dp4100
g74
(dp4101
g82
I4
ssg83
Nsg76
(lp4102
g69
(g85
g71
NtRp4103
(dp4104
g74
(dp4105
sg83
g4099
sg76
(lp4106
g69
(g90
g71
NtRp4107
(dp4108
g74
(dp4109
g94
g95
ssg83
g4103
sg76
(lp4110
S'author'
p4111
asbag69
(g90
g71
NtRp4112
(dp4113
g74
(dp4114
g101
g102
ssg83
g4103
sg76
(lp4115
S':'
asbag69
(g90
g71
NtRp4116
(dp4117
g74
(dp4118
sg83
g4103
sg76
(lp4119
g69
(g70
g71
NtRp4120
(dp4121
g74
(dp4122
g82
I4
ssg83
g4116
sg76
(lp4123
S'Diego Miranda'
p4124
asbasbasbag69
(g85
g71
NtRp4125
(dp4126
g74
(dp4127
sg83
g4099
sg76
(lp4128
g69
(g90
g71
NtRp4129
(dp4130
g74
(dp4131
g94
g95
ssg83
g4125
sg76
(lp4132
S'copyright'
p4133
asbag69
(g90
g71
NtRp4134
(dp4135
g74
(dp4136
g101
g102
ssg83
g4125
sg76
(lp4137
S':'
asbag69
(g90
g71
NtRp4138
(dp4139
g74
(dp4140
sg83
g4125
sg76
(lp4141
g69
(g70
g71
NtRp4142
(dp4143
g74
(dp4144
g82
I4
ssg83
g4138
sg76
(lp4145
S'DSMTech Copyright 2012'
p4146
asbasbasbag69
(g85
g71
NtRp4147
(dp4148
g74
(dp4149
sg83
g4099
sg76
(lp4150
g69
(g90
g71
NtRp4151
(dp4152
g74
(dp4153
g94
g95
ssg83
g4147
sg76
(lp4154
S'description'
p4155
asbag69
(g90
g71
NtRp4156
(dp4157
g74
(dp4158
g101
g102
ssg83
g4147
sg76
(lp4159
S':'
asbag69
(g90
g71
NtRp4160
(dp4161
g74
(dp4162
sg83
g4147
sg76
(lp4163
g69
(g70
g71
NtRp4164
(dp4165
g74
(dp4166
g82
I4
ssg83
g4160
sg76
(lp4167
S'App for recycling trash'
p4168
asbasbasbag69
(g85
g71
NtRp4169
(dp4170
g74
(dp4171
sg83
g4099
sg76
(lp4172
g69
(g90
g71
NtRp4173
(dp4174
g74
(dp4175
g94
g95
ssg83
g4169
sg76
(lp4176
S'generator'
p4177
asbag69
(g90
g71
NtRp4178
(dp4179
g74
(dp4180
g101
g102
ssg83
g4169
sg76
(lp4181
S':'
asbag69
(g90
g71
NtRp4182
(dp4183
g74
(dp4184
sg83
g4169
sg76
(lp4185
g69
(g70
g71
NtRp4186
(dp4187
g74
(dp4188
g82
I4
ssg83
g4182
sg76
(lp4189
S'web2py web framework'
p4190
asbasbasbag69
(g85
g71
NtRp4191
(dp4192
g74
(dp4193
sg83
g4099
sg76
(lp4194
g69
(g90
g71
NtRp4195
(dp4196
g74
(dp4197
g94
g95
ssg83
g4191
sg76
(lp4198
S'keywords'
p4199
asbag69
(g90
g71
NtRp4200
(dp4201
g74
(dp4202
g101
g102
ssg83
g4191
sg76
(lp4203
S':'
asbag69
(g90
g71
NtRp4204
(dp4205
g74
(dp4206
sg83
g4191
sg76
(lp4207
g69
(g70
g71
NtRp4208
(dp4209
g74
(dp4210
g82
I4
ssg83
g4204
sg76
(lp4211
S'web2py, python framework'
p4212
asbasbasbasbasbasbasbag69
(g85
g71
NtRp4213
(dp4214
g74
(dp4215
sg83
g3638
sg76
(lp4216
g69
(g90
g71
NtRp4217
(dp4218
g74
(dp4219
g94
g95
ssg83
g4213
sg76
(lp4220
S'models_to_run'
p4221
asbag69
(g90
g71
NtRp4222
(dp4223
g74
(dp4224
g101
g102
ssg83
g4213
sg76
(lp4225
S':'
asbag69
(g90
g71
NtRp4226
(dp4227
g74
(dp4228
sg83
g4213
sg76
(lp4229
g69
(g70
g71
NtRp4230
(dp4231
g74
(dp4232
g82
I5
ssg83
g4226
sg76
(lp4233
g69
(g78
g71
NtRp4234
(dp4235
g74
(dp4236
g82
I4
ssg83
Nsg76
(lp4237
g69
(g85
g71
NtRp4238
(dp4239
g74
(dp4240
sg83
g4234
sg76
(lp4241
g69
(g90
g71
NtRp4242
(dp4243
g74
(dp4244
sg83
g4238
sg76
(lp4245
g69
(g70
g71
NtRp4246
(dp4247
g74
(dp4248
g82
I4
ssg83
g4242
sg76
(lp4249
S'^\\w+\\.py$'
p4250
asbasbasbag69
(g85
g71
NtRp4251
(dp4252
g74
(dp4253
sg83
g4234
sg76
(lp4254
g69
(g90
g71
NtRp4255
(dp4256
g74
(dp4257
sg83
g4251
sg76
(lp4258
g69
(g70
g71
NtRp4259
(dp4260
g74
(dp4261
g82
I4
ssg83
g4255
sg76
(lp4262
S'^default/\\w+\\.py$'
p4263
asbasbasbag69
(g85
g71
NtRp4264
(dp4265
g74
(dp4266
sg83
g4234
sg76
(lp4267
g69
(g90
g71
NtRp4268
(dp4269
g74
(dp4270
sg83
g4264
sg76
(lp4271
g69
(g70
g71
NtRp4272
(dp4273
g74
(dp4274
g82
I4
ssg83
g4268
sg76
(lp4275
S'^default/address/\\w+\\.py$'
p4276
asbasbasbasbasbasbasbag69
(g85
g71
NtRp4277
(dp4278
g74
(dp4279
sg83
g3638
sg76
(lp4280
g69
(g90
g71
NtRp4281
(dp4282
g74
(dp4283
g94
g95
ssg83
g4277
sg76
(lp4284
S'postprocessing'
p4285
asbag69
(g90
g71
NtRp4286
(dp4287
g74
(dp4288
g101
g102
ssg83
g4277
sg76
(lp4289
S':'
asbag69
(g90
g71
NtRp4290
(dp4291
g74
(dp4292
sg83
g4277
sg76
(lp4293
g69
(g70
g71
NtRp4294
(dp4295
g74
(dp4296
g82
I5
ssg83
g4290
sg76
(lp4297
g69
(g78
g71
NtRp4298
(dp4299
g74
(dp4300
g82
I4
ssg83
Nsg76
(lp4301
sbasbasbasbag69
(g85
g71
NtRp4302
(dp4303
g74
(dp4304
sg83
g3638
sg76
(lp4305
g69
(g90
g71
NtRp4306
(dp4307
g74
(dp4308
g94
g95
ssg83
g4302
sg76
(lp4309
S'session_cookie_expires'
p4310
asbag69
(g90
g71
NtRp4311
(dp4312
g74
(dp4313
g101
g102
ssg83
g4302
sg76
(lp4314
S':'
asbag69
(g90
g71
NtRp4315
(dp4316
g74
(dp4317
sg83
g4302
sg76
(lp4318
g69
(g70
g71
NtRp4319
(dp4320
g74
(dp4321
g82
I5
ssg83
g4315
sg76
(lp4322
S'None'
p4323
asbasbasbag69
(g85
g71
NtRp4324
(dp4325
g74
(dp4326
sg83
g3638
sg76
(lp4327
g69
(g90
g71
NtRp4328
(dp4329
g74
(dp4330
g94
g95
ssg83
g4324
sg76
(lp4331
S'session_data_name'
p4332
asbag69
(g90
g71
NtRp4333
(dp4334
g74
(dp4335
g101
g102
ssg83
g4324
sg76
(lp4336
S':'
asbag69
(g90
g71
NtRp4337
(dp4338
g74
(dp4339
sg83
g4324
sg76
(lp4340
g69
(g70
g71
NtRp4341
(dp4342
g74
(dp4343
g82
I5
ssg83
g4337
sg76
(lp4344
S'session_data_irecycle'
p4345
asbasbasbag69
(g85
g71
NtRp4346
(dp4347
g74
(dp4348
sg83
g3638
sg76
(lp4349
g69
(g90
g71
NtRp4350
(dp4351
g74
(dp4352
g94
g95
ssg83
g4346
sg76
(lp4353
S'session_file'
p4354
asbag69
(g90
g71
NtRp4355
(dp4356
g74
(dp4357
g101
g102
ssg83
g4346
sg76
(lp4358
S':'
asbag69
(g90
g71
NtRp4359
(dp4360
g74
(dp4361
sg83
g4346
sg76
(lp4362
g69
(g70
g71
NtRp4363
(dp4364
g74
(dp4365
g82
I5
ssg83
g4359
sg76
(lp4366
S"<open file '/home/diego/web2py/applications/irecycle/sessions/127.0.0.1-10f67e0b-8b95-4045-9f3c-2e1e4dff1c83', mode 'rb+' at 0x7f2c401fd0c0>"
p4367
asbasbasbag69
(g85
g71
NtRp4368
(dp4369
g74
(dp4370
sg83
g3638
sg76
(lp4371
g69
(g90
g71
NtRp4372
(dp4373
g74
(dp4374
g94
g95
ssg83
g4368
sg76
(lp4375
S'session_filename'
p4376
asbag69
(g90
g71
NtRp4377
(dp4378
g74
(dp4379
g101
g102
ssg83
g4368
sg76
(lp4380
S':'
asbag69
(g90
g71
NtRp4381
(dp4382
g74
(dp4383
sg83
g4368
sg76
(lp4384
g69
(g70
g71
NtRp4385
(dp4386
g74
(dp4387
g82
I5
ssg83
g4381
sg76
(lp4388
S'/home/diego/web2py/applications/irecycle/sessions/127.0.0.1-10f67e0b-8b95-4045-9f3c-2e1e4dff1c83'
p4389
asbasbasbag69
(g85
g71
NtRp4390
(dp4391
g74
(dp4392
sg83
g3638
sg76
(lp4393
g69
(g90
g71
NtRp4394
(dp4395
g74
(dp4396
g94
g95
ssg83
g4390
sg76
(lp4397
S'session_id'
p4398
asbag69
(g90
g71
NtRp4399
(dp4400
g74
(dp4401
g101
g102
ssg83
g4390
sg76
(lp4402
S':'
asbag69
(g90
g71
NtRp4403
(dp4404
g74
(dp4405
sg83
g4390
sg76
(lp4406
g69
(g70
g71
NtRp4407
(dp4408
g74
(dp4409
g82
I5
ssg83
g4403
sg76
(lp4410
g487
asbasbasbag69
(g85
g71
NtRp4411
(dp4412
g74
(dp4413
sg83
g3638
sg76
(lp4414
g69
(g90
g71
NtRp4415
(dp4416
g74
(dp4417
g94
g95
ssg83
g4411
sg76
(lp4418
S'session_id_name'
p4419
asbag69
(g90
g71
NtRp4420
(dp4421
g74
(dp4422
g101
g102
ssg83
g4411
sg76
(lp4423
S':'
asbag69
(g90
g71
NtRp4424
(dp4425
g74
(dp4426
sg83
g4411
sg76
(lp4427
g69
(g70
g71
NtRp4428
(dp4429
g74
(dp4430
g82
I5
ssg83
g4424
sg76
(lp4431
g3695
asbasbasbag69
(g85
g71
NtRp4432
(dp4433
g74
(dp4434
sg83
g3638
sg76
(lp4435
g69
(g90
g71
NtRp4436
(dp4437
g74
(dp4438
g94
g95
ssg83
g4432
sg76
(lp4439
S'session_locked'
p4440
asbag69
(g90
g71
NtRp4441
(dp4442
g74
(dp4443
g101
g102
ssg83
g4432
sg76
(lp4444
S':'
asbag69
(g90
g71
NtRp4445
(dp4446
g74
(dp4447
sg83
g4432
sg76
(lp4448
g69
(g70
g71
NtRp4449
(dp4450
g74
(dp4451
g82
I5
ssg83
g4445
sg76
(lp4452
g1639
asbasbasbag69
(g85
g71
NtRp4453
(dp4454
g74
(dp4455
sg83
g3638
sg76
(lp4456
g69
(g90
g71
NtRp4457
(dp4458
g74
(dp4459
g94
g95
ssg83
g4453
sg76
(lp4460
S'session_new'
p4461
asbag69
(g90
g71
NtRp4462
(dp4463
g74
(dp4464
g101
g102
ssg83
g4453
sg76
(lp4465
S':'
asbag69
(g90
g71
NtRp4466
(dp4467
g74
(dp4468
sg83
g4453
sg76
(lp4469
g69
(g70
g71
NtRp4470
(dp4471
g74
(dp4472
g82
I5
ssg83
g4466
sg76
(lp4473
g112
asbasbasbag69
(g85
g71
NtRp4474
(dp4475
g74
(dp4476
sg83
g3638
sg76
(lp4477
g69
(g90
g71
NtRp4478
(dp4479
g74
(dp4480
g94
g95
ssg83
g4474
sg76
(lp4481
S'session_storage_type'
p4482
asbag69
(g90
g71
NtRp4483
(dp4484
g74
(dp4485
g101
g102
ssg83
g4474
sg76
(lp4486
S':'
asbag69
(g90
g71
NtRp4487
(dp4488
g74
(dp4489
sg83
g4474
sg76
(lp4490
g69
(g70
g71
NtRp4491
(dp4492
g74
(dp4493
g82
I5
ssg83
g4487
sg76
(lp4494
g3112
asbasbasbag69
(g85
g71
NtRp4495
(dp4496
g74
(dp4497
sg83
g3638
sg76
(lp4498
g69
(g90
g71
NtRp4499
(dp4500
g74
(dp4501
g94
g95
ssg83
g4495
sg76
(lp4502
S'status'
p4503
asbag69
(g90
g71
NtRp4504
(dp4505
g74
(dp4506
g101
g102
ssg83
g4495
sg76
(lp4507
S':'
asbag69
(g90
g71
NtRp4508
(dp4509
g74
(dp4510
sg83
g4495
sg76
(lp4511
g69
(g70
g71
NtRp4512
(dp4513
g74
(dp4514
g82
I5
ssg83
g4508
sg76
(lp4515
S'200'
p4516
asbasbasbag69
(g85
g71
NtRp4517
(dp4518
g74
(dp4519
sg83
g3638
sg76
(lp4520
g69
(g90
g71
NtRp4521
(dp4522
g74
(dp4523
g94
g95
ssg83
g4517
sg76
(lp4524
S'subtitle'
p4525
asbag69
(g90
g71
NtRp4526
(dp4527
g74
(dp4528
g101
g102
ssg83
g4517
sg76
(lp4529
S':'
asbag69
(g90
g71
NtRp4530
(dp4531
g74
(dp4532
sg83
g4517
sg76
(lp4533
g69
(g70
g71
NtRp4534
(dp4535
g74
(dp4536
g82
I5
ssg83
g4530
sg76
(lp4537
cgluon.languages
lazyT_unpickle
p4538
(S't\t\x00\x00\x00EuReciclo'
tRp4539
asbasbasbag69
(g85
g71
NtRp4540
(dp4541
g74
(dp4542
sg83
g3638
sg76
(lp4543
g69
(g90
g71
NtRp4544
(dp4545
g74
(dp4546
g94
g95
ssg83
g4540
sg76
(lp4547
S'title'
p4548
asbag69
(g90
g71
NtRp4549
(dp4550
g74
(dp4551
g101
g102
ssg83
g4540
sg76
(lp4552
S':'
asbag69
(g90
g71
NtRp4553
(dp4554
g74
(dp4555
sg83
g4540
sg76
(lp4556
g69
(g70
g71
NtRp4557
(dp4558
g74
(dp4559
g82
I5
ssg83
g4553
sg76
(lp4560
S'EuReciclo'
p4561
asbasbasbag69
(g85
g71
NtRp4562
(dp4563
g74
(dp4564
sg83
g3638
sg76
(lp4565
g69
(g90
g71
NtRp4566
(dp4567
g74
(dp4568
g94
g95
ssg83
g4562
sg76
(lp4569
S'view'
p4570
asbag69
(g90
g71
NtRp4571
(dp4572
g74
(dp4573
g101
g102
ssg83
g4562
sg76
(lp4574
S':'
asbag69
(g90
g71
NtRp4575
(dp4576
g74
(dp4577
sg83
g4562
sg76
(lp4578
g69
(g70
g71
NtRp4579
(dp4580
g74
(dp4581
g82
I5
ssg83
g4575
sg76
(lp4582
S'default/address.html'
p4583
asbasbasbasbasbsS'locals'
p4584
(dp4585
g14
S"'Pa\\xc3\\xads'"
p4586
sssS'traceback'
p4587
S'Traceback (most recent call last):\n  File "/home/diego/web2py/gluon/restricted.py", line 212, in restricted\n    exec ccode in environment\n  File "/home/diego/web2py/applications/irecycle/models/3_db.py", line 20, in <module>\n    Field("Pa\xc3\xads"),\n  File "/home/diego/web2py/gluon/dal.py", line 8546, in __init__\n    self.name = fieldname = cleanup(fieldname)\n  File "/home/diego/web2py/gluon/dal.py", line 4886, in cleanup\n    raise SyntaxError(\'invalid table or field name: %s\' % text)\nSyntaxError: invalid table or field name: Pa\xc3\xads\n'
p4588
s.