(dp1
S'output'
p2
S"<type 'exceptions.TypeError'> cannot concatenate 'str' and 'int' objects"
p3
sS'layer'
p4
S'/home/diego/web2py/applications/irecycle/views/default/home.html'
p5
sS'code'
p6
S'response.write(\'\\n<!DOCTYPE html>\\n<html lang="en">\\n  <head>\\n    <meta charset="utf-8">\\n    <title>\', escape=False)\nresponse.write(response.title)\nresponse.write(\'</title>\\n    <meta name="viewport" content="width=device-width, initial-scale=1.0">\\n    <meta name="description" content="">\\n    <meta name="author" content="">\\n\\n    <!-- Le styles -->\\n\\n    <link href="\', escape=False)\nresponse.write(URL(\'static\',\'bootstrap/css/bootstrap.css\'))\nresponse.write(\'" rel="stylesheet">\\n    <link href="\', escape=False)\nresponse.write(URL(\'static\',\'bootstrap/css/responsive-bootstrap.css\'))\nresponse.write(\'" rel="stylesheet">\\n    \\n\\n    \', escape=False)\nresponse.write(\'<script type="text/javascript"><!--\\n    // These variables are used by the web2py_ajax_init function in web2py_ajax.js (which is loaded below).\\n    var w2p_ajax_confirm_message = "\', escape=False)\nresponse.write(T(\'Are you sure you want to delete this object?\'))\nresponse.write(\'";\\n    var w2p_ajax_date_format = "\', escape=False)\nresponse.write(T(\'%Y-%m-%d\'))\nresponse.write(\'";\\n    var w2p_ajax_datetime_format = "\', escape=False)\nresponse.write(T(\'%Y-%m-%d %H:%M:%S\'))\nresponse.write(\'";\\n    //--></script>\\n\', escape=False)\nresponse.files.insert(0,URL(\'static\',\'js/jquery.js\'))\nresponse.files.insert(1,URL(\'static\',\'css/calendar.css\'))\nresponse.files.insert(2,URL(\'static\',\'js/calendar.js\'))\nresponse.files.insert(3,URL(\'static\',\'js/web2py.js\'))\nresponse.include_meta()\nresponse.include_files()\nresponse.write(\'\\n\', escape=False)\nresponse.write(\'\\n\\n\\n    <style type="text/css">\\n    /* NAVBAR\\n    -------------------------------------------------- */\\n\\n    /* Special class on .container surrounding .navbar, used for positioning it into place. */\\n    .navbar-wrapper {\\n      position: absolute;\\n      top: 0;\\n      left: 0;\\n      right: 0;\\n      z-index: 10;\\n      margin-top: 20px;\\n      margin-bottom: -90px; /* Negative margin to pull up carousel. 90px is roughly margins and height of navbar. */\\n    }\\n    .navbar-wrapper .navbar {\\n\\n    }\\n\\n    /* Remove border and change up box shadow for more contrast */\\n    .navbar .navbar-inner {\\n      border: 0;\\n      -webkit-box-shadow: 0 2px 10px rgba(0,0,0,.25);\\n         -moz-box-shadow: 0 2px 10px rgba(0,0,0,.25);\\n              box-shadow: 0 2px 10px rgba(0,0,0,.25);\\n    }\\n\\n    /* Downsize the brand/project name a bit */\\n    .navbar .brand {\\n      padding: 14px 20px 16px; /* Increase vertical padding to match navbar links */\\n      font-size: 16px;\\n      font-weight: bold;\\n      text-shadow: 0 -1px 0 rgba(0,0,0,.5);\\n    }\\n\\n    /* Navbar links: increase padding for taller navbar */\\n    .navbar .nav > li > a {\\n      padding: 15px 20px;\\n    }\\n\\n    /* Offset the responsive button for proper vertical alignment */\\n    .navbar .btn-navbar {\\n      margin-top: 10px;\\n    }\\n\\n\\n\\n    /* NAVBAR\\n    -------------------------------------------------- */\\n\\n      body {\\n        padding-top: 20px;\\n        padding-bottom: 40px;\\n      }\\n\\n      /* Custom container */\\n      .container-narrow {\\n        margin: 0 auto;\\n        max-width: 700px;\\n      }\\n      .container-narrow > hr {\\n        margin: 30px 0;\\n      }\\n\\n      /* Main marketing message and sign up button */\\n      .jumbotron {\\n        margin: 60px 0;\\n        text-align: center;\\n      }\\n      .jumbotron h1 {\\n        font-size: 72px;\\n        line-height: 1;\\n      }\\n      .jumbotron .btn {\\n        font-size: 21px;\\n        padding: 14px 24px;\\n      }\\n\\n      /* Supporting marketing content */\\n      .marketing {\\n        margin: 60px 0;\\n      }\\n      .marketing p + h4 {\\n        margin-top: 28px;\\n      }\\n    </style>\\n    <link href="../assets/css/bootstrap-responsive.css" rel="stylesheet">\\n\\n    <!-- HTML5 shim, for IE6-8 support of HTML5 elements -->\\n    <!--[if lt IE 9]>\\n      <script src="http://html5shim.googlecode.com/svn/trunk/html5.js"></script>\\n    <![endif]-->\\n\\n\\n  </head>\\n\\n  <body>\\n\\n    <div class="container-narrow">\\n\\n\\n    <div class="navbar navbar-inverse navbar-fixed-top">\\n      <div class="navbar-inner">\\n        <div class="container-fluid">\\n          <a class="btn btn-navbar" data-toggle="collapse" data-target=".nav-collapse">\\n            <span class="icon-bar"></span>\\n          </a>\\n          <a class="brand" href="#">\', escape=False)\nresponse.write(response.title)\nresponse.write(\'</a>\\n          <div class="nav-collapse collapse">\\n            <p class="navbar-text pull-right">\\n              \', escape=False)\nresponse.write(\'auth\' in globals() and auth.navbar(separators=(\' \',\' | \',\' \')))\nresponse.write(\'\\n              <!-- Logged in as <a href="#" class="navbar-link">Username</a> -->\\n            </p>\\n            <ul class="nav">\\n              \', escape=False)\nif auth.user:\n    response.write(\'\\n              <li class="active"><a href="\', escape=False)\n    response.write(URL(\'index\'))\n    response.write(\'">Home</a></li>\\n              <li><a href="\', escape=False)\n    response.write(URL(\'wall\'))\n    response.write(\'">Wall</a></li>\\n              <li><a href="\', escape=False)\n    response.write(URL(\'friends\'))\n    response.write(\'">Friends</a></li>\\n              <li><a href="\', escape=False)\n    response.write(URL(\'search\'))\n    response.write(\'">Search</a></li>\\n              \', escape=False)\nelse:\n    response.write(\'\\n              <li class="active"><a href="\', escape=False)\n    response.write(URL(\'index\'))\n    response.write(\'">Home</a></li>\\n              <li><a href="#about">About</a></li>\\n              <li><a href="\', escape=False)\n    response.write(URL(\'contact\'))\n    response.write(\'">Contact</a></li>\\n              \', escape=False)\n    pass\nresponse.write(\'\\n            </ul>\\n          </div><!--/.nav-collapse -->\\n        </div>\\n      </div>\\n    </div>\\n\\n      <hr>\\n\\n      \', escape=False)\nresponse.write(\'\\n\\n\\n\\n\\n<!DOCTYPE html>\\n<html lang="en">\\n  <head>\\n\\t<meta charset="utf-8">\\n\\t<title>\', escape=False)\nresponse.write(response.title)\nresponse.write(\'</title>\\n\\t<meta name="viewport" content="width=device-width, initial-scale=1.0">\\n\\t<meta name="description" content="">\\n\\t<meta name="author" content="">\\n\\n\\t<!-- Le styles -->\\n\\n\\t<link href="\', escape=False)\nresponse.write(URL(\'static\',\'bootstrap/css/bootstrap.css\'))\nresponse.write(\'" rel="stylesheet">\\n\\t<link href="\', escape=False)\nresponse.write(URL(\'static\',\'bootstrap/css/responsive-bootstrap.css\'))\nresponse.write(\'" rel="stylesheet">\\n\\t\\n\\n\\t\', escape=False)\nresponse.write(\'\\n\\n\\n\\t<style type="text/css">\\n\\t/* NAVBAR\\n\\t-------------------------------------------------- */\\n\\n\\t/* Special class on .container surrounding .navbar, used for positioning it into place. */\\n\\t.navbar-wrapper {\\n\\t  position: absolute;\\n\\t  top: 0;\\n\\t  left: 0;\\n\\t  right: 0;\\n\\t  z-index: 10;\\n\\t  margin-top: 20px;\\n\\t  margin-bottom: -90px; /* Negative margin to pull up carousel. 90px is roughly margins and height of navbar. */\\n\\t}\\n\\t.navbar-wrapper .navbar {\\n\\n\\t}\\n\\n\\t/* Remove border and change up box shadow for more contrast */\\n\\t.navbar .navbar-inner {\\n\\t  border: 0;\\n\\t  -webkit-box-shadow: 0 2px 10px rgba(0,0,0,.25);\\n\\t\\t -moz-box-shadow: 0 2px 10px rgba(0,0,0,.25);\\n\\t\\t\\t  box-shadow: 0 2px 10px rgba(0,0,0,.25);\\n\\t}\\n\\n\\t/* Downsize the brand/project name a bit */\\n\\t.navbar .brand {\\n\\t  padding: 14px 20px 16px; /* Increase vertical padding to match navbar links */\\n\\t  font-size: 16px;\\n\\t  font-weight: bold;\\n\\t  text-shadow: 0 -1px 0 rgba(0,0,0,.5);\\n\\t}\\n\\n\\t/* Navbar links: increase padding for taller navbar */\\n\\t.navbar .nav > li > a {\\n\\t  padding: 15px 20px;\\n\\t}\\n\\n\\t/* Offset the responsive button for proper vertical alignment */\\n\\t.navbar .btn-navbar {\\n\\t  margin-top: 10px;\\n\\t}\\n\\n\\n\\n\\t/* NAVBAR\\n\\t-------------------------------------------------- */\\n\\n\\t  body {\\n\\t\\tpadding-top: 20px;\\n\\t\\tpadding-bottom: 40px;\\n\\t  }\\n\\n\\t  /* Custom container */\\n\\t  .container-narrow {\\n\\t\\tmargin: 0 auto;\\n\\t\\tmax-width: 700px;\\n\\t  }\\n\\t  .container-narrow > hr {\\n\\t\\tmargin: 30px 0;\\n\\t  }\\n\\n\\t  /* Main marketing message and sign up button */\\n\\t  .jumbotron {\\n\\t\\tmargin: 60px 0;\\n\\t\\ttext-align: center;\\n\\t  }\\n\\t  .jumbotron h1 {\\n\\t\\tfont-size: 72px;\\n\\t\\tline-height: 1;\\n\\t  }\\n\\t  .jumbotron .btn {\\n\\t\\tfont-size: 21px;\\n\\t\\tpadding: 14px 24px;\\n\\t  }\\n\\n\\t  /* Supporting marketing content */\\n\\t  .marketing {\\n\\t\\tmargin: 60px 0;\\n\\t  }\\n\\t  .marketing p + h4 {\\n\\t\\tmargin-top: 28px;\\n\\t  }\\n\\t</style>\\n\\t<link href="../assets/css/bootstrap-responsive.css" rel="stylesheet">\\n\\n\\t<!-- HTML5 shim, for IE6-8 support of HTML5 elements -->\\n\\t<!--[if lt IE 9]>\\n\\t  <script src="http://html5shim.googlecode.com/svn/trunk/html5.js"></script>\\n\\t<![endif]-->\\n\\n\\n  </head>\\n\\n  <body>\\n\\n\\t<div class="container-narrow">\\n\\n\\n\\t<div class="navbar navbar-inverse navbar-fixed-top">\\n\\t  <div class="navbar-inner">\\n\\t\\t<div class="container-fluid">\\n\\t\\t  <a class="btn btn-navbar" data-toggle="collapse" data-target=".nav-collapse">\\n\\t\\t\\t<span class="icon-bar"></span>\\n\\t\\t  </a>\\n\\t\\t  <a class="brand" href="#">\', escape=False)\nresponse.write(response.title)\nresponse.write(\'</a>\\n\\t\\t  <div class="nav-collapse collapse">\\n\\t\\t\\t<p class="navbar-text pull-right">\\n\\t\\t\\t  \', escape=False)\nresponse.write(\'auth\' in globals() and auth.navbar(separators=(\' \',\' | \',\'\')))\nresponse.write(\'\\n\\t\\t\\t  <!-- Logged in as <a href="#" class="navbar-link">Username</a> -->\\n\\t\\t\\t</p>\\n\\t\\t\\t<ul class="nav">\\n\\t\\t\\t  <li class="active"><a href="\', escape=False)\nresponse.write(URL(\'index\'))\nresponse.write(\'">Home</a></li>\\n\\t\\t\\t  <li><a href="\', escape=False)\nresponse.write(URL(\'wall\'))\nresponse.write(\'">Wall</a></li>\\n\\t\\t\\t  <li><a href="\', escape=False)\nresponse.write(URL(\'friends\'))\nresponse.write(\'">Friends</a></li>\\n\\t\\t\\t  <li><a href="\', escape=False)\nresponse.write(URL(\'search\'))\nresponse.write(\'">Search</a></li>\\n\\t\\t\\t</ul>\\n\\t\\t  </div><!--/.nav-collapse -->\\n\\t\\t</div>\\n\\t  </div>\\n\\t</div>\\n\\n\\t<hr>\\n\\t\\n\\t<h2>Ol\\xc3\\xa1 \', escape=False)\nresponse.write(name_of(Post.posted_by))\nresponse.write(\' </h2>\\n\\t\\n\\t\', escape=False)\nresponse.write(form)\nresponse.write("\\n\\t<script>jQuery(\'textarea\').css(\'width\',\'600px\').css(\'height\',\'50px\');</script>\\n\\t", escape=False)\nfor post in posts:\n    response.write(\'\\n\\t<div style="background: #f0f0f0; margin-bottom: 5px; padding: 8px;">\\n\\t\\t<h3>\', escape=False)\n    response.write(name_of(post.posted_by))\n    response.write(\' on \', escape=False)\n    response.write(post.posted_on)\n    response.write(\':</h3>\\n\\t\\t\', escape=False)\n    response.write(MARKMIN(post.body))\n    response.write(\'\\n\\t</div>\\n\\t\', escape=False)\n    pass\nresponse.write(\'\\n\\t</div><!--/span-->\\n\\n\\t  \\n\\t  <hr>\\n\\n  <div class="footer">\\n\\t<div class="container">    \\n\\t  <div class="sixteen columns">\\n\\t\\t\', escape=False)\nresponse.write(\' \\n\\t  </div>\\n\\t</div><!-- container -->\\n  </div><!-- footer -->\\n\\n\\t</div> <!-- /container -->\\n\\n\\t<!-- Le javascript\\n\\t================================================== -->\\n\\t<!-- Placed at the end of the document so the pages load faster -->\\n\\t<script src="../static/bootstrap/js/bootstrap.js"></script>\\n\\t<script src="../static/bootstrap/js/bootstrap.min.js"></script>\\n\\n\\n  </body>\\n</html>\\n\\n\\n\\n\\n\\n\', escape=False)\nresponse.write(\'\\n      \\n      <hr>\\n\\n  <div class="footer">\\n    <div class="container">    \\n      <div class="sixteen columns">\\n        \', escape=False)\nresponse.write(\' <!-- this is default footer -->\\n\\t\\t<div class="footer-content clearfix">\\n\\t\\t  <div class="copyright">\', escape=False)\nresponse.write(response.meta.copyright)\nresponse.write(\'</div>\\n\\t\\t</div>\\n\\t\\t\', escape=False)\nresponse.write(\' \\n      </div>\\n    </div><!-- container -->\\n  </div><!-- footer -->\\n\\n    </div> <!-- /container -->\\n\\n    <!-- Le javascript\\n    ================================================== -->\\n    <!-- Placed at the end of the document so the pages load faster -->\\n    <script src="../static/bootstrap/js/bootstrap.js"></script>\\n    <script src="../static/bootstrap/js/bootstrap.min.js"></script>\\n\\n\\n  </body>\\n</html>\\n\', escape=False)'
p7
sS'snapshot'
p8
(dp9
S'exception'
p10
(dp11
S'__hash__'
p12
S"<method-wrapper '__hash__' of exceptions.TypeError object>"
p13
sS'__setattr__'
p14
S"<method-wrapper '__setattr__' of exceptions.TypeError object>"
p15
sS'__reduce_ex__'
p16
S'<built-in method __reduce_ex__ of exceptions.TypeError object>'
p17
sS'__getslice__'
p18
S"<method-wrapper '__getslice__' of exceptions.TypeError object>"
p19
sS'__getitem__'
p20
S"<method-wrapper '__getitem__' of exceptions.TypeError object>"
p21
sS'__setstate__'
p22
S'<built-in method __setstate__ of exceptions.TypeError object>'
p23
sS'args'
p24
S'("cannot concatenate \'str\' and \'int\' objects",)'
p25
sS'__reduce__'
p26
S'<built-in method __reduce__ of exceptions.TypeError object>'
p27
sS'__str__'
p28
S"<method-wrapper '__str__' of exceptions.TypeError object>"
p29
sS'__format__'
p30
S'<built-in method __format__ of exceptions.TypeError object>'
p31
sS'__getattribute__'
p32
S"<method-wrapper '__getattribute__' of exceptions.TypeError object>"
p33
sS'__class__'
p34
S"<type 'exceptions.TypeError'>"
p35
sS'__unicode__'
p36
S'<built-in method __unicode__ of exceptions.TypeError object>'
p37
sS'__delattr__'
p38
S"<method-wrapper '__delattr__' of exceptions.TypeError object>"
p39
sS'__subclasshook__'
p40
S'<built-in method __subclasshook__ of type object>'
p41
sS'__repr__'
p42
S"<method-wrapper '__repr__' of exceptions.TypeError object>"
p43
sS'__dict__'
p44
S'{}'
p45
sS'__sizeof__'
p46
S'<built-in method __sizeof__ of exceptions.TypeError object>'
p47
sS'__doc__'
p48
S"'Inappropriate argument type.'"
p49
sS'__init__'
p50
S"<method-wrapper '__init__' of exceptions.TypeError object>"
p51
sS'__new__'
p52
S'<built-in method __new__ of type object>'
p53
ssS'evalue'
p54
S"cannot concatenate 'str' and 'int' objects"
p55
sS'request'
p56
ccopy_reg
_reconstructor
p57
(cgluon.html
BEAUTIFY
p58
c__builtin__
object
p59
NtRp60
(dp61
S'attributes'
p62
(dp63
sS'components'
p64
(lp65
g57
(cgluon.html
TABLE
p66
g59
NtRp67
(dp68
g62
(dp69
S'level'
p70
I5
ssS'parent'
p71
Nsg64
(lp72
g57
(cgluon.html
TR
p73
g59
NtRp74
(dp75
g62
(dp76
sg71
g67
sg64
(lp77
g57
(cgluon.html
TD
p78
g59
NtRp79
(dp80
g62
(dp81
S'_style'
p82
S'font-weight:bold;vertical-align:top'
p83
ssg71
g74
sg64
(lp84
S'ajax'
p85
asbag57
(g78
g59
NtRp86
(dp87
g62
(dp88
S'_valign'
p89
S'top'
p90
ssg71
g74
sg64
(lp91
S':'
asbag57
(g78
g59
NtRp92
(dp93
g62
(dp94
sg71
g74
sg64
(lp95
g57
(g58
g59
NtRp96
(dp97
g62
(dp98
g70
I5
ssg71
g92
sg64
(lp99
S'False'
p100
asbasbasbag57
(g73
g59
NtRp101
(dp102
g62
(dp103
sg71
g67
sg64
(lp104
g57
(g78
g59
NtRp105
(dp106
g62
(dp107
g82
g83
ssg71
g101
sg64
(lp108
S'application'
p109
asbag57
(g78
g59
NtRp110
(dp111
g62
(dp112
g89
g90
ssg71
g101
sg64
(lp113
S':'
asbag57
(g78
g59
NtRp114
(dp115
g62
(dp116
sg71
g101
sg64
(lp117
g57
(g58
g59
NtRp118
(dp119
g62
(dp120
g70
I5
ssg71
g114
sg64
(lp121
S'irecycle'
p122
asbasbasbag57
(g73
g59
NtRp123
(dp124
g62
(dp125
sg71
g67
sg64
(lp126
g57
(g78
g59
NtRp127
(dp128
g62
(dp129
g82
g83
ssg71
g123
sg64
(lp130
g24
asbag57
(g78
g59
NtRp131
(dp132
g62
(dp133
g89
g90
ssg71
g123
sg64
(lp134
S':'
asbag57
(g78
g59
NtRp135
(dp136
g62
(dp137
sg71
g123
sg64
(lp138
g57
(g58
g59
NtRp139
(dp140
g62
(dp141
g70
I5
ssg71
g135
sg64
(lp142
g57
(g66
g59
NtRp143
(dp144
g62
(dp145
g70
I4
ssg71
Nsg64
(lp146
sbasbasbasbag57
(g73
g59
NtRp147
(dp148
g62
(dp149
sg71
g67
sg64
(lp150
g57
(g78
g59
NtRp151
(dp152
g62
(dp153
g82
g83
ssg71
g147
sg64
(lp154
S'body'
p155
asbag57
(g78
g59
NtRp156
(dp157
g62
(dp158
g89
g90
ssg71
g147
sg64
(lp159
S':'
asbag57
(g78
g59
NtRp160
(dp161
g62
(dp162
sg71
g147
sg64
(lp163
g57
(g58
g59
NtRp164
(dp165
g62
(dp166
g70
I5
ssg71
g160
sg64
(lp167
S'<cStringIO.StringO object at 0x7f02ec45d5e0>'
p168
asbasbasbag57
(g73
g59
NtRp169
(dp170
g62
(dp171
sg71
g67
sg64
(lp172
g57
(g78
g59
NtRp173
(dp174
g62
(dp175
g82
g83
ssg71
g169
sg64
(lp176
S'cid'
p177
asbag57
(g78
g59
NtRp178
(dp179
g62
(dp180
g89
g90
ssg71
g169
sg64
(lp181
S':'
asbag57
(g78
g59
NtRp182
(dp183
g62
(dp184
sg71
g169
sg64
(lp185
g57
(g58
g59
NtRp186
(dp187
g62
(dp188
g70
I5
ssg71
g182
sg64
(lp189
S'None'
p190
asbasbasbag57
(g73
g59
NtRp191
(dp192
g62
(dp193
sg71
g67
sg64
(lp194
g57
(g78
g59
NtRp195
(dp196
g62
(dp197
g82
g83
ssg71
g191
sg64
(lp198
S'client'
p199
asbag57
(g78
g59
NtRp200
(dp201
g62
(dp202
g89
g90
ssg71
g191
sg64
(lp203
S':'
asbag57
(g78
g59
NtRp204
(dp205
g62
(dp206
sg71
g191
sg64
(lp207
g57
(g58
g59
NtRp208
(dp209
g62
(dp210
g70
I5
ssg71
g204
sg64
(lp211
S'127.0.0.1'
p212
asbasbasbag57
(g73
g59
NtRp213
(dp214
g62
(dp215
sg71
g67
sg64
(lp216
g57
(g78
g59
NtRp217
(dp218
g62
(dp219
g82
g83
ssg71
g213
sg64
(lp220
S'controller'
p221
asbag57
(g78
g59
NtRp222
(dp223
g62
(dp224
g89
g90
ssg71
g213
sg64
(lp225
S':'
asbag57
(g78
g59
NtRp226
(dp227
g62
(dp228
sg71
g213
sg64
(lp229
g57
(g58
g59
NtRp230
(dp231
g62
(dp232
g70
I5
ssg71
g226
sg64
(lp233
S'default'
p234
asbasbasbag57
(g73
g59
NtRp235
(dp236
g62
(dp237
sg71
g67
sg64
(lp238
g57
(g78
g59
NtRp239
(dp240
g62
(dp241
g82
g83
ssg71
g235
sg64
(lp242
S'cookies'
p243
asbag57
(g78
g59
NtRp244
(dp245
g62
(dp246
g89
g90
ssg71
g235
sg64
(lp247
S':'
asbag57
(g78
g59
NtRp248
(dp249
g62
(dp250
sg71
g235
sg64
(lp251
g57
(g58
g59
NtRp252
(dp253
g62
(dp254
g70
I5
ssg71
g248
sg64
(lp255
g57
(g66
g59
NtRp256
(dp257
g62
(dp258
g70
I4
ssg71
Nsg64
(lp259
g57
(g73
g59
NtRp260
(dp261
g62
(dp262
sg71
g256
sg64
(lp263
g57
(g78
g59
NtRp264
(dp265
g62
(dp266
g82
g83
ssg71
g260
sg64
(lp267
S'session_id_admin'
p268
asbag57
(g78
g59
NtRp269
(dp270
g62
(dp271
g89
g90
ssg71
g260
sg64
(lp272
S':'
asbag57
(g78
g59
NtRp273
(dp274
g62
(dp275
sg71
g260
sg64
(lp276
g57
(g58
g59
NtRp277
(dp278
g62
(dp279
g70
I4
ssg71
g273
sg64
(lp280
S'127.0.0.1-1178fb15-8635-4562-92ac-0bdfeed62f9a'
p281
ag57
(g66
g59
NtRp282
(dp283
g62
(dp284
g70
I3
ssg71
Nsg64
(lp285
g57
(g73
g59
NtRp286
(dp287
g62
(dp288
sg71
g282
sg64
(lp289
g57
(g78
g59
NtRp290
(dp291
g62
(dp292
g82
g83
ssg71
g286
sg64
(lp293
S'comment'
p294
asbag57
(g78
g59
NtRp295
(dp296
g62
(dp297
g89
g90
ssg71
g286
sg64
(lp298
S':'
asbag57
(g78
g59
NtRp299
(dp300
g62
(dp301
sg71
g286
sg64
(lp302
g57
(g58
g59
NtRp303
(dp304
g62
(dp305
g70
I3
ssg71
g299
sg64
(lp306
S''
asbasbasbag57
(g73
g59
NtRp307
(dp308
g62
(dp309
sg71
g282
sg64
(lp310
g57
(g78
g59
NtRp311
(dp312
g62
(dp313
g82
g83
ssg71
g307
sg64
(lp314
S'domain'
p315
asbag57
(g78
g59
NtRp316
(dp317
g62
(dp318
g89
g90
ssg71
g307
sg64
(lp319
S':'
asbag57
(g78
g59
NtRp320
(dp321
g62
(dp322
sg71
g307
sg64
(lp323
g57
(g58
g59
NtRp324
(dp325
g62
(dp326
g70
I3
ssg71
g320
sg64
(lp327
S''
asbasbasbag57
(g73
g59
NtRp328
(dp329
g62
(dp330
sg71
g282
sg64
(lp331
g57
(g78
g59
NtRp332
(dp333
g62
(dp334
g82
g83
ssg71
g328
sg64
(lp335
S'expires'
p336
asbag57
(g78
g59
NtRp337
(dp338
g62
(dp339
g89
g90
ssg71
g328
sg64
(lp340
S':'
asbag57
(g78
g59
NtRp341
(dp342
g62
(dp343
sg71
g328
sg64
(lp344
g57
(g58
g59
NtRp345
(dp346
g62
(dp347
g70
I3
ssg71
g341
sg64
(lp348
S''
asbasbasbag57
(g73
g59
NtRp349
(dp350
g62
(dp351
sg71
g282
sg64
(lp352
g57
(g78
g59
NtRp353
(dp354
g62
(dp355
g82
g83
ssg71
g349
sg64
(lp356
S'httponly'
p357
asbag57
(g78
g59
NtRp358
(dp359
g62
(dp360
g89
g90
ssg71
g349
sg64
(lp361
S':'
asbag57
(g78
g59
NtRp362
(dp363
g62
(dp364
sg71
g349
sg64
(lp365
g57
(g58
g59
NtRp366
(dp367
g62
(dp368
g70
I3
ssg71
g362
sg64
(lp369
S''
asbasbasbag57
(g73
g59
NtRp370
(dp371
g62
(dp372
sg71
g282
sg64
(lp373
g57
(g78
g59
NtRp374
(dp375
g62
(dp376
g82
g83
ssg71
g370
sg64
(lp377
S'max-age'
p378
asbag57
(g78
g59
NtRp379
(dp380
g62
(dp381
g89
g90
ssg71
g370
sg64
(lp382
S':'
asbag57
(g78
g59
NtRp383
(dp384
g62
(dp385
sg71
g370
sg64
(lp386
g57
(g58
g59
NtRp387
(dp388
g62
(dp389
g70
I3
ssg71
g383
sg64
(lp390
S''
asbasbasbag57
(g73
g59
NtRp391
(dp392
g62
(dp393
sg71
g282
sg64
(lp394
g57
(g78
g59
NtRp395
(dp396
g62
(dp397
g82
g83
ssg71
g391
sg64
(lp398
S'path'
p399
asbag57
(g78
g59
NtRp400
(dp401
g62
(dp402
g89
g90
ssg71
g391
sg64
(lp403
S':'
asbag57
(g78
g59
NtRp404
(dp405
g62
(dp406
sg71
g391
sg64
(lp407
g57
(g58
g59
NtRp408
(dp409
g62
(dp410
g70
I3
ssg71
g404
sg64
(lp411
S''
asbasbasbag57
(g73
g59
NtRp412
(dp413
g62
(dp414
sg71
g282
sg64
(lp415
g57
(g78
g59
NtRp416
(dp417
g62
(dp418
g82
g83
ssg71
g412
sg64
(lp419
S'secure'
p420
asbag57
(g78
g59
NtRp421
(dp422
g62
(dp423
g89
g90
ssg71
g412
sg64
(lp424
S':'
asbag57
(g78
g59
NtRp425
(dp426
g62
(dp427
sg71
g412
sg64
(lp428
g57
(g58
g59
NtRp429
(dp430
g62
(dp431
g70
I3
ssg71
g425
sg64
(lp432
S''
asbasbasbag57
(g73
g59
NtRp433
(dp434
g62
(dp435
sg71
g282
sg64
(lp436
g57
(g78
g59
NtRp437
(dp438
g62
(dp439
g82
g83
ssg71
g433
sg64
(lp440
S'version'
p441
asbag57
(g78
g59
NtRp442
(dp443
g62
(dp444
g89
g90
ssg71
g433
sg64
(lp445
S':'
asbag57
(g78
g59
NtRp446
(dp447
g62
(dp448
sg71
g433
sg64
(lp449
g57
(g58
g59
NtRp450
(dp451
g62
(dp452
g70
I3
ssg71
g446
sg64
(lp453
S''
asbasbasbasbasbasbasbag57
(g73
g59
NtRp454
(dp455
g62
(dp456
sg71
g256
sg64
(lp457
g57
(g78
g59
NtRp458
(dp459
g62
(dp460
g82
g83
ssg71
g454
sg64
(lp461
S'session_id_irecycle'
p462
asbag57
(g78
g59
NtRp463
(dp464
g62
(dp465
g89
g90
ssg71
g454
sg64
(lp466
S':'
asbag57
(g78
g59
NtRp467
(dp468
g62
(dp469
sg71
g454
sg64
(lp470
g57
(g58
g59
NtRp471
(dp472
g62
(dp473
g70
I4
ssg71
g467
sg64
(lp474
S'127.0.0.1-52497e39-155c-423e-8fad-ac44f096ff04'
p475
ag57
(g66
g59
NtRp476
(dp477
g62
(dp478
g70
I3
ssg71
Nsg64
(lp479
g57
(g73
g59
NtRp480
(dp481
g62
(dp482
sg71
g476
sg64
(lp483
g57
(g78
g59
NtRp484
(dp485
g62
(dp486
g82
g83
ssg71
g480
sg64
(lp487
g294
asbag57
(g78
g59
NtRp488
(dp489
g62
(dp490
g89
g90
ssg71
g480
sg64
(lp491
S':'
asbag57
(g78
g59
NtRp492
(dp493
g62
(dp494
sg71
g480
sg64
(lp495
g57
(g58
g59
NtRp496
(dp497
g62
(dp498
g70
I3
ssg71
g492
sg64
(lp499
S''
asbasbasbag57
(g73
g59
NtRp500
(dp501
g62
(dp502
sg71
g476
sg64
(lp503
g57
(g78
g59
NtRp504
(dp505
g62
(dp506
g82
g83
ssg71
g500
sg64
(lp507
g315
asbag57
(g78
g59
NtRp508
(dp509
g62
(dp510
g89
g90
ssg71
g500
sg64
(lp511
S':'
asbag57
(g78
g59
NtRp512
(dp513
g62
(dp514
sg71
g500
sg64
(lp515
g57
(g58
g59
NtRp516
(dp517
g62
(dp518
g70
I3
ssg71
g512
sg64
(lp519
S''
asbasbasbag57
(g73
g59
NtRp520
(dp521
g62
(dp522
sg71
g476
sg64
(lp523
g57
(g78
g59
NtRp524
(dp525
g62
(dp526
g82
g83
ssg71
g520
sg64
(lp527
g336
asbag57
(g78
g59
NtRp528
(dp529
g62
(dp530
g89
g90
ssg71
g520
sg64
(lp531
S':'
asbag57
(g78
g59
NtRp532
(dp533
g62
(dp534
sg71
g520
sg64
(lp535
g57
(g58
g59
NtRp536
(dp537
g62
(dp538
g70
I3
ssg71
g532
sg64
(lp539
S''
asbasbasbag57
(g73
g59
NtRp540
(dp541
g62
(dp542
sg71
g476
sg64
(lp543
g57
(g78
g59
NtRp544
(dp545
g62
(dp546
g82
g83
ssg71
g540
sg64
(lp547
g357
asbag57
(g78
g59
NtRp548
(dp549
g62
(dp550
g89
g90
ssg71
g540
sg64
(lp551
S':'
asbag57
(g78
g59
NtRp552
(dp553
g62
(dp554
sg71
g540
sg64
(lp555
g57
(g58
g59
NtRp556
(dp557
g62
(dp558
g70
I3
ssg71
g552
sg64
(lp559
S''
asbasbasbag57
(g73
g59
NtRp560
(dp561
g62
(dp562
sg71
g476
sg64
(lp563
g57
(g78
g59
NtRp564
(dp565
g62
(dp566
g82
g83
ssg71
g560
sg64
(lp567
g378
asbag57
(g78
g59
NtRp568
(dp569
g62
(dp570
g89
g90
ssg71
g560
sg64
(lp571
S':'
asbag57
(g78
g59
NtRp572
(dp573
g62
(dp574
sg71
g560
sg64
(lp575
g57
(g58
g59
NtRp576
(dp577
g62
(dp578
g70
I3
ssg71
g572
sg64
(lp579
S''
asbasbasbag57
(g73
g59
NtRp580
(dp581
g62
(dp582
sg71
g476
sg64
(lp583
g57
(g78
g59
NtRp584
(dp585
g62
(dp586
g82
g83
ssg71
g580
sg64
(lp587
g399
asbag57
(g78
g59
NtRp588
(dp589
g62
(dp590
g89
g90
ssg71
g580
sg64
(lp591
S':'
asbag57
(g78
g59
NtRp592
(dp593
g62
(dp594
sg71
g580
sg64
(lp595
g57
(g58
g59
NtRp596
(dp597
g62
(dp598
g70
I3
ssg71
g592
sg64
(lp599
S''
asbasbasbag57
(g73
g59
NtRp600
(dp601
g62
(dp602
sg71
g476
sg64
(lp603
g57
(g78
g59
NtRp604
(dp605
g62
(dp606
g82
g83
ssg71
g600
sg64
(lp607
g420
asbag57
(g78
g59
NtRp608
(dp609
g62
(dp610
g89
g90
ssg71
g600
sg64
(lp611
S':'
asbag57
(g78
g59
NtRp612
(dp613
g62
(dp614
sg71
g600
sg64
(lp615
g57
(g58
g59
NtRp616
(dp617
g62
(dp618
g70
I3
ssg71
g612
sg64
(lp619
S''
asbasbasbag57
(g73
g59
NtRp620
(dp621
g62
(dp622
sg71
g476
sg64
(lp623
g57
(g78
g59
NtRp624
(dp625
g62
(dp626
g82
g83
ssg71
g620
sg64
(lp627
g441
asbag57
(g78
g59
NtRp628
(dp629
g62
(dp630
g89
g90
ssg71
g620
sg64
(lp631
S':'
asbag57
(g78
g59
NtRp632
(dp633
g62
(dp634
sg71
g620
sg64
(lp635
g57
(g58
g59
NtRp636
(dp637
g62
(dp638
g70
I3
ssg71
g632
sg64
(lp639
S''
asbasbasbasbasbasbasbasbasbasbasbag57
(g73
g59
NtRp640
(dp641
g62
(dp642
sg71
g67
sg64
(lp643
g57
(g78
g59
NtRp644
(dp645
g62
(dp646
g82
g83
ssg71
g640
sg64
(lp647
S'env'
p648
asbag57
(g78
g59
NtRp649
(dp650
g62
(dp651
g89
g90
ssg71
g640
sg64
(lp652
S':'
asbag57
(g78
g59
NtRp653
(dp654
g62
(dp655
sg71
g640
sg64
(lp656
g57
(g58
g59
NtRp657
(dp658
g62
(dp659
g70
I5
ssg71
g653
sg64
(lp660
g57
(g66
g59
NtRp661
(dp662
g62
(dp663
g70
I4
ssg71
Nsg64
(lp664
g57
(g73
g59
NtRp665
(dp666
g62
(dp667
sg71
g661
sg64
(lp668
g57
(g78
g59
NtRp669
(dp670
g62
(dp671
g82
g83
ssg71
g665
sg64
(lp672
S'app_folders'
p673
asbag57
(g78
g59
NtRp674
(dp675
g62
(dp676
g89
g90
ssg71
g665
sg64
(lp677
S':'
asbag57
(g78
g59
NtRp678
(dp679
g62
(dp680
sg71
g665
sg64
(lp681
g57
(g58
g59
NtRp682
(dp683
g62
(dp684
g70
I4
ssg71
g678
sg64
(lp685
S"set(['/home/diego/web2py/applications/irecycle/', '/home/diego/web2py/applications/admin/'])"
p686
asbasbasbag57
(g73
g59
NtRp687
(dp688
g62
(dp689
sg71
g661
sg64
(lp690
g57
(g78
g59
NtRp691
(dp692
g62
(dp693
g82
g83
ssg71
g687
sg64
(lp694
S'applications_parent'
p695
asbag57
(g78
g59
NtRp696
(dp697
g62
(dp698
g89
g90
ssg71
g687
sg64
(lp699
S':'
asbag57
(g78
g59
NtRp700
(dp701
g62
(dp702
sg71
g687
sg64
(lp703
g57
(g58
g59
NtRp704
(dp705
g62
(dp706
g70
I4
ssg71
g700
sg64
(lp707
S'/home/diego/web2py'
p708
asbasbasbag57
(g73
g59
NtRp709
(dp710
g62
(dp711
sg71
g661
sg64
(lp712
g57
(g78
g59
NtRp713
(dp714
g62
(dp715
g82
g83
ssg71
g709
sg64
(lp716
S'cmd_args'
p717
asbag57
(g78
g59
NtRp718
(dp719
g62
(dp720
g89
g90
ssg71
g709
sg64
(lp721
S':'
asbag57
(g78
g59
NtRp722
(dp723
g62
(dp724
sg71
g709
sg64
(lp725
g57
(g58
g59
NtRp726
(dp727
g62
(dp728
g70
I4
ssg71
g722
sg64
(lp729
g57
(g66
g59
NtRp730
(dp731
g62
(dp732
g70
I3
ssg71
Nsg64
(lp733
sbasbasbasbag57
(g73
g59
NtRp734
(dp735
g62
(dp736
sg71
g661
sg64
(lp737
g57
(g78
g59
NtRp738
(dp739
g62
(dp740
g82
g83
ssg71
g734
sg64
(lp741
S'cmd_options'
p742
asbag57
(g78
g59
NtRp743
(dp744
g62
(dp745
g89
g90
ssg71
g734
sg64
(lp746
S':'
asbag57
(g78
g59
NtRp747
(dp748
g62
(dp749
sg71
g734
sg64
(lp750
g57
(g58
g59
NtRp751
(dp752
g62
(dp753
g70
I4
ssg71
g747
sg64
(lp754
S"<Values at 0x20d5488: {'verbose': False, 'ip': '127.0.0.1', 'with_scheduler': False, 'ips': ['172.30.6.210'], 'shutdown_timeout': 5, 'taskbar': False, 'port': 8000, 'maxthreads': None, 'softcron': False, 'server_name': 'madagascar', 'bpython': False, 'nogui': False, 'pid_filename': 'httpserver.pid', 'extcron': False, 'runcron': False, 'run_system_tests': False, 'test': None, 'folder': '/home/diego/web2py', 'config': '', 'minthreads': None, 'winservice': '', 'shell': None, 'run': '', 'log_filename': 'httpserver.log', 'debuglevel': 30, 'args': [''], 'socket_timeout': 5, 'ssl_ca_certificate': None, 'scheduler': None, 'profiler_filename': None, 'ssl_private_key': '', 'scheduler_groups': None, 'password': '1234', 'request_queue_size': 5, 'ssl_certificate': '', 'cronjob': False, 'numthreads': None, 'quiet': False, 'interfaces': None, 'import_models': False, 'timeout': 10, 'plain': False, 'nobanner': False}>"
p755
asbasbasbag57
(g73
g59
NtRp756
(dp757
g62
(dp758
sg71
g661
sg64
(lp759
g57
(g78
g59
NtRp760
(dp761
g62
(dp762
g82
g83
ssg71
g756
sg64
(lp763
S'db_sessions'
p764
asbag57
(g78
g59
NtRp765
(dp766
g62
(dp767
g89
g90
ssg71
g756
sg64
(lp768
S':'
asbag57
(g78
g59
NtRp769
(dp770
g62
(dp771
sg71
g756
sg64
(lp772
g57
(g58
g59
NtRp773
(dp774
g62
(dp775
g70
I4
ssg71
g769
sg64
(lp776
S'set([])'
p777
asbasbasbag57
(g73
g59
NtRp778
(dp779
g62
(dp780
sg71
g661
sg64
(lp781
g57
(g78
g59
NtRp782
(dp783
g62
(dp784
g82
g83
ssg71
g778
sg64
(lp785
S'debugging'
p786
asbag57
(g78
g59
NtRp787
(dp788
g62
(dp789
g89
g90
ssg71
g778
sg64
(lp790
S':'
asbag57
(g78
g59
NtRp791
(dp792
g62
(dp793
sg71
g778
sg64
(lp794
g57
(g58
g59
NtRp795
(dp796
g62
(dp797
g70
I4
ssg71
g791
sg64
(lp798
g100
asbasbasbag57
(g73
g59
NtRp799
(dp800
g62
(dp801
sg71
g661
sg64
(lp802
g57
(g78
g59
NtRp803
(dp804
g62
(dp805
g82
g83
ssg71
g799
sg64
(lp806
S'gluon_parent'
p807
asbag57
(g78
g59
NtRp808
(dp809
g62
(dp810
g89
g90
ssg71
g799
sg64
(lp811
S':'
asbag57
(g78
g59
NtRp812
(dp813
g62
(dp814
sg71
g799
sg64
(lp815
g57
(g58
g59
NtRp816
(dp817
g62
(dp818
g70
I4
ssg71
g812
sg64
(lp819
S'/home/diego/web2py'
p820
asbasbasbag57
(g73
g59
NtRp821
(dp822
g62
(dp823
sg71
g661
sg64
(lp824
g57
(g78
g59
NtRp825
(dp826
g62
(dp827
g82
g83
ssg71
g821
sg64
(lp828
S'http_accept'
p829
asbag57
(g78
g59
NtRp830
(dp831
g62
(dp832
g89
g90
ssg71
g821
sg64
(lp833
S':'
asbag57
(g78
g59
NtRp834
(dp835
g62
(dp836
sg71
g821
sg64
(lp837
g57
(g58
g59
NtRp838
(dp839
g62
(dp840
g70
I4
ssg71
g834
sg64
(lp841
S'text/html,application/xhtml+xml,application/xml;q=0.9,*/*;q=0.8'
p842
asbasbasbag57
(g73
g59
NtRp843
(dp844
g62
(dp845
sg71
g661
sg64
(lp846
g57
(g78
g59
NtRp847
(dp848
g62
(dp849
g82
g83
ssg71
g843
sg64
(lp850
S'http_accept_charset'
p851
asbag57
(g78
g59
NtRp852
(dp853
g62
(dp854
g89
g90
ssg71
g843
sg64
(lp855
S':'
asbag57
(g78
g59
NtRp856
(dp857
g62
(dp858
sg71
g843
sg64
(lp859
g57
(g58
g59
NtRp860
(dp861
g62
(dp862
g70
I4
ssg71
g856
sg64
(lp863
S'ISO-8859-1,utf-8;q=0.7,*;q=0.3'
p864
asbasbasbag57
(g73
g59
NtRp865
(dp866
g62
(dp867
sg71
g661
sg64
(lp868
g57
(g78
g59
NtRp869
(dp870
g62
(dp871
g82
g83
ssg71
g865
sg64
(lp872
S'http_accept_encoding'
p873
asbag57
(g78
g59
NtRp874
(dp875
g62
(dp876
g89
g90
ssg71
g865
sg64
(lp877
S':'
asbag57
(g78
g59
NtRp878
(dp879
g62
(dp880
sg71
g865
sg64
(lp881
g57
(g58
g59
NtRp882
(dp883
g62
(dp884
g70
I4
ssg71
g878
sg64
(lp885
S'gzip,deflate,sdch'
p886
asbasbasbag57
(g73
g59
NtRp887
(dp888
g62
(dp889
sg71
g661
sg64
(lp890
g57
(g78
g59
NtRp891
(dp892
g62
(dp893
g82
g83
ssg71
g887
sg64
(lp894
S'http_accept_language'
p895
asbag57
(g78
g59
NtRp896
(dp897
g62
(dp898
g89
g90
ssg71
g887
sg64
(lp899
S':'
asbag57
(g78
g59
NtRp900
(dp901
g62
(dp902
sg71
g887
sg64
(lp903
g57
(g58
g59
NtRp904
(dp905
g62
(dp906
g70
I4
ssg71
g900
sg64
(lp907
S'pt-BR,pt;q=0.8,en-US;q=0.6,en;q=0.4'
p908
asbasbasbag57
(g73
g59
NtRp909
(dp910
g62
(dp911
sg71
g661
sg64
(lp912
g57
(g78
g59
NtRp913
(dp914
g62
(dp915
g82
g83
ssg71
g909
sg64
(lp916
S'http_cache_control'
p917
asbag57
(g78
g59
NtRp918
(dp919
g62
(dp920
g89
g90
ssg71
g909
sg64
(lp921
S':'
asbag57
(g78
g59
NtRp922
(dp923
g62
(dp924
sg71
g909
sg64
(lp925
g57
(g58
g59
NtRp926
(dp927
g62
(dp928
g70
I4
ssg71
g922
sg64
(lp929
S'max-age=0'
p930
asbasbasbag57
(g73
g59
NtRp931
(dp932
g62
(dp933
sg71
g661
sg64
(lp934
g57
(g78
g59
NtRp935
(dp936
g62
(dp937
g82
g83
ssg71
g931
sg64
(lp938
S'http_connection'
p939
asbag57
(g78
g59
NtRp940
(dp941
g62
(dp942
g89
g90
ssg71
g931
sg64
(lp943
S':'
asbag57
(g78
g59
NtRp944
(dp945
g62
(dp946
sg71
g931
sg64
(lp947
g57
(g58
g59
NtRp948
(dp949
g62
(dp950
g70
I4
ssg71
g944
sg64
(lp951
S'keep-alive'
p952
asbasbasbag57
(g73
g59
NtRp953
(dp954
g62
(dp955
sg71
g661
sg64
(lp956
g57
(g78
g59
NtRp957
(dp958
g62
(dp959
g82
g83
ssg71
g953
sg64
(lp960
S'http_cookie'
p961
asbag57
(g78
g59
NtRp962
(dp963
g62
(dp964
g89
g90
ssg71
g953
sg64
(lp965
S':'
asbag57
(g78
g59
NtRp966
(dp967
g62
(dp968
sg71
g953
sg64
(lp969
g57
(g58
g59
NtRp970
(dp971
g62
(dp972
g70
I4
ssg71
g966
sg64
(lp973
S'session_id_irecycle=127.0.0.1-52497e39-155c-423e-8fad-ac44f096ff04; session_id_admin=127.0.0.1-1178fb15-8635-4562-92ac-0bdfeed62f9a'
p974
asbasbasbag57
(g73
g59
NtRp975
(dp976
g62
(dp977
sg71
g661
sg64
(lp978
g57
(g78
g59
NtRp979
(dp980
g62
(dp981
g82
g83
ssg71
g975
sg64
(lp982
S'http_host'
p983
asbag57
(g78
g59
NtRp984
(dp985
g62
(dp986
g89
g90
ssg71
g975
sg64
(lp987
S':'
asbag57
(g78
g59
NtRp988
(dp989
g62
(dp990
sg71
g975
sg64
(lp991
g57
(g58
g59
NtRp992
(dp993
g62
(dp994
g70
I4
ssg71
g988
sg64
(lp995
S'localhost:8000'
p996
asbasbasbag57
(g73
g59
NtRp997
(dp998
g62
(dp999
sg71
g661
sg64
(lp1000
g57
(g78
g59
NtRp1001
(dp1002
g62
(dp1003
g82
g83
ssg71
g997
sg64
(lp1004
S'http_referer'
p1005
asbag57
(g78
g59
NtRp1006
(dp1007
g62
(dp1008
g89
g90
ssg71
g997
sg64
(lp1009
S':'
asbag57
(g78
g59
NtRp1010
(dp1011
g62
(dp1012
sg71
g997
sg64
(lp1013
g57
(g58
g59
NtRp1014
(dp1015
g62
(dp1016
g70
I4
ssg71
g1010
sg64
(lp1017
S'http://localhost:8000/irecycle/default/user/login?_next=/irecycle/default/index'
p1018
asbasbasbag57
(g73
g59
NtRp1019
(dp1020
g62
(dp1021
sg71
g661
sg64
(lp1022
g57
(g78
g59
NtRp1023
(dp1024
g62
(dp1025
g82
g83
ssg71
g1019
sg64
(lp1026
S'http_user_agent'
p1027
asbag57
(g78
g59
NtRp1028
(dp1029
g62
(dp1030
g89
g90
ssg71
g1019
sg64
(lp1031
S':'
asbag57
(g78
g59
NtRp1032
(dp1033
g62
(dp1034
sg71
g1019
sg64
(lp1035
g57
(g58
g59
NtRp1036
(dp1037
g62
(dp1038
g70
I4
ssg71
g1032
sg64
(lp1039
S'Mozilla/5.0 (X11; Linux x86_64) AppleWebKit/537.17 (KHTML, like Gecko) Chrome/24.0.1312.52 Safari/537.17'
p1040
asbasbasbag57
(g73
g59
NtRp1041
(dp1042
g62
(dp1043
sg71
g661
sg64
(lp1044
g57
(g78
g59
NtRp1045
(dp1046
g62
(dp1047
g82
g83
ssg71
g1041
sg64
(lp1048
S'is_jython'
p1049
asbag57
(g78
g59
NtRp1050
(dp1051
g62
(dp1052
g89
g90
ssg71
g1041
sg64
(lp1053
S':'
asbag57
(g78
g59
NtRp1054
(dp1055
g62
(dp1056
sg71
g1041
sg64
(lp1057
g57
(g58
g59
NtRp1058
(dp1059
g62
(dp1060
g70
I4
ssg71
g1054
sg64
(lp1061
g100
asbasbasbag57
(g73
g59
NtRp1062
(dp1063
g62
(dp1064
sg71
g661
sg64
(lp1065
g57
(g78
g59
NtRp1066
(dp1067
g62
(dp1068
g82
g83
ssg71
g1062
sg64
(lp1069
S'is_pypy'
p1070
asbag57
(g78
g59
NtRp1071
(dp1072
g62
(dp1073
g89
g90
ssg71
g1062
sg64
(lp1074
S':'
asbag57
(g78
g59
NtRp1075
(dp1076
g62
(dp1077
sg71
g1062
sg64
(lp1078
g57
(g58
g59
NtRp1079
(dp1080
g62
(dp1081
g70
I4
ssg71
g1075
sg64
(lp1082
g100
asbasbasbag57
(g73
g59
NtRp1083
(dp1084
g62
(dp1085
sg71
g661
sg64
(lp1086
g57
(g78
g59
NtRp1087
(dp1088
g62
(dp1089
g82
g83
ssg71
g1083
sg64
(lp1090
S'local_hosts'
p1091
asbag57
(g78
g59
NtRp1092
(dp1093
g62
(dp1094
g89
g90
ssg71
g1083
sg64
(lp1095
S':'
asbag57
(g78
g59
NtRp1096
(dp1097
g62
(dp1098
sg71
g1083
sg64
(lp1099
g57
(g58
g59
NtRp1100
(dp1101
g62
(dp1102
g70
I4
ssg71
g1096
sg64
(lp1103
g57
(g66
g59
NtRp1104
(dp1105
g62
(dp1106
g70
I3
ssg71
Nsg64
(lp1107
g57
(g73
g59
NtRp1108
(dp1109
g62
(dp1110
sg71
g1104
sg64
(lp1111
g57
(g78
g59
NtRp1112
(dp1113
g62
(dp1114
sg71
g1108
sg64
(lp1115
g57
(g58
g59
NtRp1116
(dp1117
g62
(dp1118
g70
I3
ssg71
g1112
sg64
(lp1119
S'::1'
p1120
asbasbasbag57
(g73
g59
NtRp1121
(dp1122
g62
(dp1123
sg71
g1104
sg64
(lp1124
g57
(g78
g59
NtRp1125
(dp1126
g62
(dp1127
sg71
g1121
sg64
(lp1128
g57
(g58
g59
NtRp1129
(dp1130
g62
(dp1131
g70
I3
ssg71
g1125
sg64
(lp1132
S'madagascar'
p1133
asbasbasbag57
(g73
g59
NtRp1134
(dp1135
g62
(dp1136
sg71
g1104
sg64
(lp1137
g57
(g78
g59
NtRp1138
(dp1139
g62
(dp1140
sg71
g1134
sg64
(lp1141
g57
(g58
g59
NtRp1142
(dp1143
g62
(dp1144
g70
I3
ssg71
g1138
sg64
(lp1145
S'::ffff:127.0.0.1'
p1146
asbasbasbag57
(g73
g59
NtRp1147
(dp1148
g62
(dp1149
sg71
g1104
sg64
(lp1150
g57
(g78
g59
NtRp1151
(dp1152
g62
(dp1153
sg71
g1147
sg64
(lp1154
g57
(g58
g59
NtRp1155
(dp1156
g62
(dp1157
g70
I3
ssg71
g1151
sg64
(lp1158
S'127.0.0.1'
p1159
asbasbasbag57
(g73
g59
NtRp1160
(dp1161
g62
(dp1162
sg71
g1104
sg64
(lp1163
g57
(g78
g59
NtRp1164
(dp1165
g62
(dp1166
sg71
g1160
sg64
(lp1167
g57
(g58
g59
NtRp1168
(dp1169
g62
(dp1170
g70
I3
ssg71
g1164
sg64
(lp1171
S'172.30.6.210'
p1172
asbasbasbasbasbasbasbag57
(g73
g59
NtRp1173
(dp1174
g62
(dp1175
sg71
g661
sg64
(lp1176
g57
(g78
g59
NtRp1177
(dp1178
g62
(dp1179
g82
g83
ssg71
g1173
sg64
(lp1180
S'path_info'
p1181
asbag57
(g78
g59
NtRp1182
(dp1183
g62
(dp1184
g89
g90
ssg71
g1173
sg64
(lp1185
S':'
asbag57
(g78
g59
NtRp1186
(dp1187
g62
(dp1188
sg71
g1173
sg64
(lp1189
g57
(g58
g59
NtRp1190
(dp1191
g62
(dp1192
g70
I4
ssg71
g1186
sg64
(lp1193
S'/irecycle/default/home'
p1194
asbasbasbag57
(g73
g59
NtRp1195
(dp1196
g62
(dp1197
sg71
g661
sg64
(lp1198
g57
(g78
g59
NtRp1199
(dp1200
g62
(dp1201
g82
g83
ssg71
g1195
sg64
(lp1202
S'query_string'
p1203
asbag57
(g78
g59
NtRp1204
(dp1205
g62
(dp1206
g89
g90
ssg71
g1195
sg64
(lp1207
S':'
asbag57
(g78
g59
NtRp1208
(dp1209
g62
(dp1210
sg71
g1195
sg64
(lp1211
g57
(g58
g59
NtRp1212
(dp1213
g62
(dp1214
g70
I4
ssg71
g1208
sg64
(lp1215
S''
asbasbasbag57
(g73
g59
NtRp1216
(dp1217
g62
(dp1218
sg71
g661
sg64
(lp1219
g57
(g78
g59
NtRp1220
(dp1221
g62
(dp1222
g82
g83
ssg71
g1216
sg64
(lp1223
S'remote_addr'
p1224
asbag57
(g78
g59
NtRp1225
(dp1226
g62
(dp1227
g89
g90
ssg71
g1216
sg64
(lp1228
S':'
asbag57
(g78
g59
NtRp1229
(dp1230
g62
(dp1231
sg71
g1216
sg64
(lp1232
g57
(g58
g59
NtRp1233
(dp1234
g62
(dp1235
g70
I4
ssg71
g1229
sg64
(lp1236
g212
asbasbasbag57
(g73
g59
NtRp1237
(dp1238
g62
(dp1239
sg71
g661
sg64
(lp1240
g57
(g78
g59
NtRp1241
(dp1242
g62
(dp1243
g82
g83
ssg71
g1237
sg64
(lp1244
S'remote_port'
p1245
asbag57
(g78
g59
NtRp1246
(dp1247
g62
(dp1248
g89
g90
ssg71
g1237
sg64
(lp1249
S':'
asbag57
(g78
g59
NtRp1250
(dp1251
g62
(dp1252
sg71
g1237
sg64
(lp1253
g57
(g58
g59
NtRp1254
(dp1255
g62
(dp1256
g70
I4
ssg71
g1250
sg64
(lp1257
S'49423'
p1258
asbasbasbag57
(g73
g59
NtRp1259
(dp1260
g62
(dp1261
sg71
g661
sg64
(lp1262
g57
(g78
g59
NtRp1263
(dp1264
g62
(dp1265
g82
g83
ssg71
g1259
sg64
(lp1266
S'request_method'
p1267
asbag57
(g78
g59
NtRp1268
(dp1269
g62
(dp1270
g89
g90
ssg71
g1259
sg64
(lp1271
S':'
asbag57
(g78
g59
NtRp1272
(dp1273
g62
(dp1274
sg71
g1259
sg64
(lp1275
g57
(g58
g59
NtRp1276
(dp1277
g62
(dp1278
g70
I4
ssg71
g1272
sg64
(lp1279
S'GET'
p1280
asbasbasbag57
(g73
g59
NtRp1281
(dp1282
g62
(dp1283
sg71
g661
sg64
(lp1284
g57
(g78
g59
NtRp1285
(dp1286
g62
(dp1287
g82
g83
ssg71
g1281
sg64
(lp1288
S'request_uri'
p1289
asbag57
(g78
g59
NtRp1290
(dp1291
g62
(dp1292
g89
g90
ssg71
g1281
sg64
(lp1293
S':'
asbag57
(g78
g59
NtRp1294
(dp1295
g62
(dp1296
sg71
g1281
sg64
(lp1297
g57
(g58
g59
NtRp1298
(dp1299
g62
(dp1300
g70
I4
ssg71
g1294
sg64
(lp1301
g1194
asbasbasbag57
(g73
g59
NtRp1302
(dp1303
g62
(dp1304
sg71
g661
sg64
(lp1305
g57
(g78
g59
NtRp1306
(dp1307
g62
(dp1308
g82
g83
ssg71
g1302
sg64
(lp1309
S'script_name'
p1310
asbag57
(g78
g59
NtRp1311
(dp1312
g62
(dp1313
g89
g90
ssg71
g1302
sg64
(lp1314
S':'
asbag57
(g78
g59
NtRp1315
(dp1316
g62
(dp1317
sg71
g1302
sg64
(lp1318
g57
(g58
g59
NtRp1319
(dp1320
g62
(dp1321
g70
I4
ssg71
g1315
sg64
(lp1322
S''
asbasbasbag57
(g73
g59
NtRp1323
(dp1324
g62
(dp1325
sg71
g661
sg64
(lp1326
g57
(g78
g59
NtRp1327
(dp1328
g62
(dp1329
g82
g83
ssg71
g1323
sg64
(lp1330
S'server_name'
p1331
asbag57
(g78
g59
NtRp1332
(dp1333
g62
(dp1334
g89
g90
ssg71
g1323
sg64
(lp1335
S':'
asbag57
(g78
g59
NtRp1336
(dp1337
g62
(dp1338
sg71
g1323
sg64
(lp1339
g57
(g58
g59
NtRp1340
(dp1341
g62
(dp1342
g70
I4
ssg71
g1336
sg64
(lp1343
S'madagascar'
p1344
asbasbasbag57
(g73
g59
NtRp1345
(dp1346
g62
(dp1347
sg71
g661
sg64
(lp1348
g57
(g78
g59
NtRp1349
(dp1350
g62
(dp1351
g82
g83
ssg71
g1345
sg64
(lp1352
S'server_port'
p1353
asbag57
(g78
g59
NtRp1354
(dp1355
g62
(dp1356
g89
g90
ssg71
g1345
sg64
(lp1357
S':'
asbag57
(g78
g59
NtRp1358
(dp1359
g62
(dp1360
sg71
g1345
sg64
(lp1361
g57
(g58
g59
NtRp1362
(dp1363
g62
(dp1364
g70
I4
ssg71
g1358
sg64
(lp1365
S'8000'
p1366
asbasbasbag57
(g73
g59
NtRp1367
(dp1368
g62
(dp1369
sg71
g661
sg64
(lp1370
g57
(g78
g59
NtRp1371
(dp1372
g62
(dp1373
g82
g83
ssg71
g1367
sg64
(lp1374
S'server_protocol'
p1375
asbag57
(g78
g59
NtRp1376
(dp1377
g62
(dp1378
g89
g90
ssg71
g1367
sg64
(lp1379
S':'
asbag57
(g78
g59
NtRp1380
(dp1381
g62
(dp1382
sg71
g1367
sg64
(lp1383
g57
(g58
g59
NtRp1384
(dp1385
g62
(dp1386
g70
I4
ssg71
g1380
sg64
(lp1387
S'HTTP/1.1'
p1388
asbasbasbag57
(g73
g59
NtRp1389
(dp1390
g62
(dp1391
sg71
g661
sg64
(lp1392
g57
(g78
g59
NtRp1393
(dp1394
g62
(dp1395
g82
g83
ssg71
g1389
sg64
(lp1396
S'server_software'
p1397
asbag57
(g78
g59
NtRp1398
(dp1399
g62
(dp1400
g89
g90
ssg71
g1389
sg64
(lp1401
S':'
asbag57
(g78
g59
NtRp1402
(dp1403
g62
(dp1404
sg71
g1389
sg64
(lp1405
g57
(g58
g59
NtRp1406
(dp1407
g62
(dp1408
g70
I4
ssg71
g1402
sg64
(lp1409
S'Rocket 1.2.6'
p1410
asbasbasbag57
(g73
g59
NtRp1411
(dp1412
g62
(dp1413
sg71
g661
sg64
(lp1414
g57
(g78
g59
NtRp1415
(dp1416
g62
(dp1417
g82
g83
ssg71
g1411
sg64
(lp1418
S'web2py_path'
p1419
asbag57
(g78
g59
NtRp1420
(dp1421
g62
(dp1422
g89
g90
ssg71
g1411
sg64
(lp1423
S':'
asbag57
(g78
g59
NtRp1424
(dp1425
g62
(dp1426
sg71
g1411
sg64
(lp1427
g57
(g58
g59
NtRp1428
(dp1429
g62
(dp1430
g70
I4
ssg71
g1424
sg64
(lp1431
g708
asbasbasbag57
(g73
g59
NtRp1432
(dp1433
g62
(dp1434
sg71
g661
sg64
(lp1435
g57
(g78
g59
NtRp1436
(dp1437
g62
(dp1438
g82
g83
ssg71
g1432
sg64
(lp1439
S'web2py_version'
p1440
asbag57
(g78
g59
NtRp1441
(dp1442
g62
(dp1443
g89
g90
ssg71
g1432
sg64
(lp1444
S':'
asbag57
(g78
g59
NtRp1445
(dp1446
g62
(dp1447
sg71
g1432
sg64
(lp1448
g57
(g58
g59
NtRp1449
(dp1450
g62
(dp1451
g70
I4
ssg71
g1445
sg64
(lp1452
g57
(g66
g59
NtRp1453
(dp1454
g62
(dp1455
g70
I3
ssg71
Nsg64
(lp1456
g57
(g73
g59
NtRp1457
(dp1458
g62
(dp1459
sg71
g1453
sg64
(lp1460
g57
(g78
g59
NtRp1461
(dp1462
g62
(dp1463
sg71
g1457
sg64
(lp1464
g57
(g58
g59
NtRp1465
(dp1466
g62
(dp1467
g70
I3
ssg71
g1461
sg64
(lp1468
S'2'
asbasbasbag57
(g73
g59
NtRp1469
(dp1470
g62
(dp1471
sg71
g1453
sg64
(lp1472
g57
(g78
g59
NtRp1473
(dp1474
g62
(dp1475
sg71
g1469
sg64
(lp1476
g57
(g58
g59
NtRp1477
(dp1478
g62
(dp1479
g70
I3
ssg71
g1473
sg64
(lp1480
S'3'
asbasbasbag57
(g73
g59
NtRp1481
(dp1482
g62
(dp1483
sg71
g1453
sg64
(lp1484
g57
(g78
g59
NtRp1485
(dp1486
g62
(dp1487
sg71
g1481
sg64
(lp1488
g57
(g58
g59
NtRp1489
(dp1490
g62
(dp1491
g70
I3
ssg71
g1485
sg64
(lp1492
S'2'
asbasbasbag57
(g73
g59
NtRp1493
(dp1494
g62
(dp1495
sg71
g1453
sg64
(lp1496
g57
(g78
g59
NtRp1497
(dp1498
g62
(dp1499
sg71
g1493
sg64
(lp1500
g57
(g58
g59
NtRp1501
(dp1502
g62
(dp1503
g70
I3
ssg71
g1497
sg64
(lp1504
S'datetime.datetime(2012, 12, 17, 15, 3, 30)'
p1505
asbasbasbag57
(g73
g59
NtRp1506
(dp1507
g62
(dp1508
sg71
g1453
sg64
(lp1509
g57
(g78
g59
NtRp1510
(dp1511
g62
(dp1512
sg71
g1506
sg64
(lp1513
g57
(g58
g59
NtRp1514
(dp1515
g62
(dp1516
g70
I3
ssg71
g1510
sg64
(lp1517
S'stable'
p1518
asbasbasbasbasbasbasbag57
(g73
g59
NtRp1519
(dp1520
g62
(dp1521
sg71
g661
sg64
(lp1522
g57
(g78
g59
NtRp1523
(dp1524
g62
(dp1525
g82
g83
ssg71
g1519
sg64
(lp1526
S'wsgi_errors'
p1527
asbag57
(g78
g59
NtRp1528
(dp1529
g62
(dp1530
g89
g90
ssg71
g1519
sg64
(lp1531
S':'
asbag57
(g78
g59
NtRp1532
(dp1533
g62
(dp1534
sg71
g1519
sg64
(lp1535
g57
(g58
g59
NtRp1536
(dp1537
g62
(dp1538
g70
I4
ssg71
g1532
sg64
(lp1539
S"<open file '<stderr>', mode 'w' at 0x7f02ff32a270>"
p1540
asbasbasbag57
(g73
g59
NtRp1541
(dp1542
g62
(dp1543
sg71
g661
sg64
(lp1544
g57
(g78
g59
NtRp1545
(dp1546
g62
(dp1547
g82
g83
ssg71
g1541
sg64
(lp1548
S'wsgi_file_wrapper'
p1549
asbag57
(g78
g59
NtRp1550
(dp1551
g62
(dp1552
g89
g90
ssg71
g1541
sg64
(lp1553
S':'
asbag57
(g78
g59
NtRp1554
(dp1555
g62
(dp1556
sg71
g1541
sg64
(lp1557
g57
(g58
g59
NtRp1558
(dp1559
g62
(dp1560
g70
I4
ssg71
g1554
sg64
(lp1561
S'<class wsgiref.util.FileWrapper at 0x20347a0>'
p1562
asbasbasbag57
(g73
g59
NtRp1563
(dp1564
g62
(dp1565
sg71
g661
sg64
(lp1566
g57
(g78
g59
NtRp1567
(dp1568
g62
(dp1569
g82
g83
ssg71
g1563
sg64
(lp1570
S'wsgi_input'
p1571
asbag57
(g78
g59
NtRp1572
(dp1573
g62
(dp1574
g89
g90
ssg71
g1563
sg64
(lp1575
S':'
asbag57
(g78
g59
NtRp1576
(dp1577
g62
(dp1578
sg71
g1563
sg64
(lp1579
g57
(g58
g59
NtRp1580
(dp1581
g62
(dp1582
g70
I4
ssg71
g1576
sg64
(lp1583
S'<socket._fileobject object at 0x7f02e0896dd0>'
p1584
asbasbasbag57
(g73
g59
NtRp1585
(dp1586
g62
(dp1587
sg71
g661
sg64
(lp1588
g57
(g78
g59
NtRp1589
(dp1590
g62
(dp1591
g82
g83
ssg71
g1585
sg64
(lp1592
S'wsgi_multiprocess'
p1593
asbag57
(g78
g59
NtRp1594
(dp1595
g62
(dp1596
g89
g90
ssg71
g1585
sg64
(lp1597
S':'
asbag57
(g78
g59
NtRp1598
(dp1599
g62
(dp1600
sg71
g1585
sg64
(lp1601
g57
(g58
g59
NtRp1602
(dp1603
g62
(dp1604
g70
I4
ssg71
g1598
sg64
(lp1605
g100
asbasbasbag57
(g73
g59
NtRp1606
(dp1607
g62
(dp1608
sg71
g661
sg64
(lp1609
g57
(g78
g59
NtRp1610
(dp1611
g62
(dp1612
g82
g83
ssg71
g1606
sg64
(lp1613
S'wsgi_multithread'
p1614
asbag57
(g78
g59
NtRp1615
(dp1616
g62
(dp1617
g89
g90
ssg71
g1606
sg64
(lp1618
S':'
asbag57
(g78
g59
NtRp1619
(dp1620
g62
(dp1621
sg71
g1606
sg64
(lp1622
g57
(g58
g59
NtRp1623
(dp1624
g62
(dp1625
g70
I4
ssg71
g1619
sg64
(lp1626
S'True'
p1627
asbasbasbag57
(g73
g59
NtRp1628
(dp1629
g62
(dp1630
sg71
g661
sg64
(lp1631
g57
(g78
g59
NtRp1632
(dp1633
g62
(dp1634
g82
g83
ssg71
g1628
sg64
(lp1635
S'wsgi_run_once'
p1636
asbag57
(g78
g59
NtRp1637
(dp1638
g62
(dp1639
g89
g90
ssg71
g1628
sg64
(lp1640
S':'
asbag57
(g78
g59
NtRp1641
(dp1642
g62
(dp1643
sg71
g1628
sg64
(lp1644
g57
(g58
g59
NtRp1645
(dp1646
g62
(dp1647
g70
I4
ssg71
g1641
sg64
(lp1648
g100
asbasbasbag57
(g73
g59
NtRp1649
(dp1650
g62
(dp1651
sg71
g661
sg64
(lp1652
g57
(g78
g59
NtRp1653
(dp1654
g62
(dp1655
g82
g83
ssg71
g1649
sg64
(lp1656
S'wsgi_url_scheme'
p1657
asbag57
(g78
g59
NtRp1658
(dp1659
g62
(dp1660
g89
g90
ssg71
g1649
sg64
(lp1661
S':'
asbag57
(g78
g59
NtRp1662
(dp1663
g62
(dp1664
sg71
g1649
sg64
(lp1665
g57
(g58
g59
NtRp1666
(dp1667
g62
(dp1668
g70
I4
ssg71
g1662
sg64
(lp1669
S'http'
p1670
asbasbasbag57
(g73
g59
NtRp1671
(dp1672
g62
(dp1673
sg71
g661
sg64
(lp1674
g57
(g78
g59
NtRp1675
(dp1676
g62
(dp1677
g82
g83
ssg71
g1671
sg64
(lp1678
S'wsgi_version'
p1679
asbag57
(g78
g59
NtRp1680
(dp1681
g62
(dp1682
g89
g90
ssg71
g1671
sg64
(lp1683
S':'
asbag57
(g78
g59
NtRp1684
(dp1685
g62
(dp1686
sg71
g1671
sg64
(lp1687
g57
(g58
g59
NtRp1688
(dp1689
g62
(dp1690
g70
I4
ssg71
g1684
sg64
(lp1691
g57
(g66
g59
NtRp1692
(dp1693
g62
(dp1694
g70
I3
ssg71
Nsg64
(lp1695
g57
(g73
g59
NtRp1696
(dp1697
g62
(dp1698
sg71
g1692
sg64
(lp1699
g57
(g78
g59
NtRp1700
(dp1701
g62
(dp1702
sg71
g1696
sg64
(lp1703
g57
(g58
g59
NtRp1704
(dp1705
g62
(dp1706
g70
I3
ssg71
g1700
sg64
(lp1707
S'1'
asbasbasbag57
(g73
g59
NtRp1708
(dp1709
g62
(dp1710
sg71
g1692
sg64
(lp1711
g57
(g78
g59
NtRp1712
(dp1713
g62
(dp1714
sg71
g1708
sg64
(lp1715
g57
(g58
g59
NtRp1716
(dp1717
g62
(dp1718
g70
I3
ssg71
g1712
sg64
(lp1719
S'0'
asbasbasbasbasbasbasbasbasbasbasbag57
(g73
g59
NtRp1720
(dp1721
g62
(dp1722
sg71
g67
sg64
(lp1723
g57
(g78
g59
NtRp1724
(dp1725
g62
(dp1726
g82
g83
ssg71
g1720
sg64
(lp1727
S'extension'
p1728
asbag57
(g78
g59
NtRp1729
(dp1730
g62
(dp1731
g89
g90
ssg71
g1720
sg64
(lp1732
S':'
asbag57
(g78
g59
NtRp1733
(dp1734
g62
(dp1735
sg71
g1720
sg64
(lp1736
g57
(g58
g59
NtRp1737
(dp1738
g62
(dp1739
g70
I5
ssg71
g1733
sg64
(lp1740
S'html'
p1741
asbasbasbag57
(g73
g59
NtRp1742
(dp1743
g62
(dp1744
sg71
g67
sg64
(lp1745
g57
(g78
g59
NtRp1746
(dp1747
g62
(dp1748
g82
g83
ssg71
g1742
sg64
(lp1749
S'folder'
p1750
asbag57
(g78
g59
NtRp1751
(dp1752
g62
(dp1753
g89
g90
ssg71
g1742
sg64
(lp1754
S':'
asbag57
(g78
g59
NtRp1755
(dp1756
g62
(dp1757
sg71
g1742
sg64
(lp1758
g57
(g58
g59
NtRp1759
(dp1760
g62
(dp1761
g70
I5
ssg71
g1755
sg64
(lp1762
S'/home/diego/web2py/applications/irecycle/'
p1763
asbasbasbag57
(g73
g59
NtRp1764
(dp1765
g62
(dp1766
sg71
g67
sg64
(lp1767
g57
(g78
g59
NtRp1768
(dp1769
g62
(dp1770
g82
g83
ssg71
g1764
sg64
(lp1771
S'function'
p1772
asbag57
(g78
g59
NtRp1773
(dp1774
g62
(dp1775
g89
g90
ssg71
g1764
sg64
(lp1776
S':'
asbag57
(g78
g59
NtRp1777
(dp1778
g62
(dp1779
sg71
g1764
sg64
(lp1780
g57
(g58
g59
NtRp1781
(dp1782
g62
(dp1783
g70
I5
ssg71
g1777
sg64
(lp1784
S'home'
p1785
asbasbasbag57
(g73
g59
NtRp1786
(dp1787
g62
(dp1788
sg71
g67
sg64
(lp1789
g57
(g78
g59
NtRp1790
(dp1791
g62
(dp1792
g82
g83
ssg71
g1786
sg64
(lp1793
S'get_vars'
p1794
asbag57
(g78
g59
NtRp1795
(dp1796
g62
(dp1797
g89
g90
ssg71
g1786
sg64
(lp1798
S':'
asbag57
(g78
g59
NtRp1799
(dp1800
g62
(dp1801
sg71
g1786
sg64
(lp1802
g57
(g58
g59
NtRp1803
(dp1804
g62
(dp1805
g70
I5
ssg71
g1799
sg64
(lp1806
g57
(g66
g59
NtRp1807
(dp1808
g62
(dp1809
g70
I4
ssg71
Nsg64
(lp1810
sbasbasbasbag57
(g73
g59
NtRp1811
(dp1812
g62
(dp1813
sg71
g67
sg64
(lp1814
g57
(g78
g59
NtRp1815
(dp1816
g62
(dp1817
g82
g83
ssg71
g1811
sg64
(lp1818
S'global_settings'
p1819
asbag57
(g78
g59
NtRp1820
(dp1821
g62
(dp1822
g89
g90
ssg71
g1811
sg64
(lp1823
S':'
asbag57
(g78
g59
NtRp1824
(dp1825
g62
(dp1826
sg71
g1811
sg64
(lp1827
g57
(g58
g59
NtRp1828
(dp1829
g62
(dp1830
g70
I5
ssg71
g1824
sg64
(lp1831
g57
(g66
g59
NtRp1832
(dp1833
g62
(dp1834
g70
I4
ssg71
Nsg64
(lp1835
g57
(g73
g59
NtRp1836
(dp1837
g62
(dp1838
sg71
g1832
sg64
(lp1839
g57
(g78
g59
NtRp1840
(dp1841
g62
(dp1842
g82
g83
ssg71
g1836
sg64
(lp1843
g673
asbag57
(g78
g59
NtRp1844
(dp1845
g62
(dp1846
g89
g90
ssg71
g1836
sg64
(lp1847
S':'
asbag57
(g78
g59
NtRp1848
(dp1849
g62
(dp1850
sg71
g1836
sg64
(lp1851
g57
(g58
g59
NtRp1852
(dp1853
g62
(dp1854
g70
I4
ssg71
g1848
sg64
(lp1855
S"set(['/home/diego/web2py/applications/irecycle/', '/home/diego/web2py/applications/admin/'])"
p1856
asbasbasbag57
(g73
g59
NtRp1857
(dp1858
g62
(dp1859
sg71
g1832
sg64
(lp1860
g57
(g78
g59
NtRp1861
(dp1862
g62
(dp1863
g82
g83
ssg71
g1857
sg64
(lp1864
g695
asbag57
(g78
g59
NtRp1865
(dp1866
g62
(dp1867
g89
g90
ssg71
g1857
sg64
(lp1868
S':'
asbag57
(g78
g59
NtRp1869
(dp1870
g62
(dp1871
sg71
g1857
sg64
(lp1872
g57
(g58
g59
NtRp1873
(dp1874
g62
(dp1875
g70
I4
ssg71
g1869
sg64
(lp1876
g708
asbasbasbag57
(g73
g59
NtRp1877
(dp1878
g62
(dp1879
sg71
g1832
sg64
(lp1880
g57
(g78
g59
NtRp1881
(dp1882
g62
(dp1883
g82
g83
ssg71
g1877
sg64
(lp1884
g717
asbag57
(g78
g59
NtRp1885
(dp1886
g62
(dp1887
g89
g90
ssg71
g1877
sg64
(lp1888
S':'
asbag57
(g78
g59
NtRp1889
(dp1890
g62
(dp1891
sg71
g1877
sg64
(lp1892
g57
(g58
g59
NtRp1893
(dp1894
g62
(dp1895
g70
I4
ssg71
g1889
sg64
(lp1896
g57
(g66
g59
NtRp1897
(dp1898
g62
(dp1899
g70
I3
ssg71
Nsg64
(lp1900
sbasbasbasbag57
(g73
g59
NtRp1901
(dp1902
g62
(dp1903
sg71
g1832
sg64
(lp1904
g57
(g78
g59
NtRp1905
(dp1906
g62
(dp1907
g82
g83
ssg71
g1901
sg64
(lp1908
g742
asbag57
(g78
g59
NtRp1909
(dp1910
g62
(dp1911
g89
g90
ssg71
g1901
sg64
(lp1912
S':'
asbag57
(g78
g59
NtRp1913
(dp1914
g62
(dp1915
sg71
g1901
sg64
(lp1916
g57
(g58
g59
NtRp1917
(dp1918
g62
(dp1919
g70
I4
ssg71
g1913
sg64
(lp1920
S"<Values at 0x20d5488: {'verbose': False, 'ip': '127.0.0.1', 'with_scheduler': False, 'ips': ['172.30.6.210'], 'shutdown_timeout': 5, 'taskbar': False, 'port': 8000, 'maxthreads': None, 'softcron': False, 'server_name': 'madagascar', 'bpython': False, 'nogui': False, 'pid_filename': 'httpserver.pid', 'extcron': False, 'runcron': False, 'run_system_tests': False, 'test': None, 'folder': '/home/diego/web2py', 'config': '', 'minthreads': None, 'winservice': '', 'shell': None, 'run': '', 'log_filename': 'httpserver.log', 'debuglevel': 30, 'args': [''], 'socket_timeout': 5, 'ssl_ca_certificate': None, 'scheduler': None, 'profiler_filename': None, 'ssl_private_key': '', 'scheduler_groups': None, 'password': '1234', 'request_queue_size': 5, 'ssl_certificate': '', 'cronjob': False, 'numthreads': None, 'quiet': False, 'interfaces': None, 'import_models': False, 'timeout': 10, 'plain': False, 'nobanner': False}>"
p1921
asbasbasbag57
(g73
g59
NtRp1922
(dp1923
g62
(dp1924
sg71
g1832
sg64
(lp1925
g57
(g78
g59
NtRp1926
(dp1927
g62
(dp1928
g82
g83
ssg71
g1922
sg64
(lp1929
g764
asbag57
(g78
g59
NtRp1930
(dp1931
g62
(dp1932
g89
g90
ssg71
g1922
sg64
(lp1933
S':'
asbag57
(g78
g59
NtRp1934
(dp1935
g62
(dp1936
sg71
g1922
sg64
(lp1937
g57
(g58
g59
NtRp1938
(dp1939
g62
(dp1940
g70
I4
ssg71
g1934
sg64
(lp1941
S'set([])'
p1942
asbasbasbag57
(g73
g59
NtRp1943
(dp1944
g62
(dp1945
sg71
g1832
sg64
(lp1946
g57
(g78
g59
NtRp1947
(dp1948
g62
(dp1949
g82
g83
ssg71
g1943
sg64
(lp1950
g786
asbag57
(g78
g59
NtRp1951
(dp1952
g62
(dp1953
g89
g90
ssg71
g1943
sg64
(lp1954
S':'
asbag57
(g78
g59
NtRp1955
(dp1956
g62
(dp1957
sg71
g1943
sg64
(lp1958
g57
(g58
g59
NtRp1959
(dp1960
g62
(dp1961
g70
I4
ssg71
g1955
sg64
(lp1962
g100
asbasbasbag57
(g73
g59
NtRp1963
(dp1964
g62
(dp1965
sg71
g1832
sg64
(lp1966
g57
(g78
g59
NtRp1967
(dp1968
g62
(dp1969
g82
g83
ssg71
g1963
sg64
(lp1970
g807
asbag57
(g78
g59
NtRp1971
(dp1972
g62
(dp1973
g89
g90
ssg71
g1963
sg64
(lp1974
S':'
asbag57
(g78
g59
NtRp1975
(dp1976
g62
(dp1977
sg71
g1963
sg64
(lp1978
g57
(g58
g59
NtRp1979
(dp1980
g62
(dp1981
g70
I4
ssg71
g1975
sg64
(lp1982
g820
asbasbasbag57
(g73
g59
NtRp1983
(dp1984
g62
(dp1985
sg71
g1832
sg64
(lp1986
g57
(g78
g59
NtRp1987
(dp1988
g62
(dp1989
g82
g83
ssg71
g1983
sg64
(lp1990
g1049
asbag57
(g78
g59
NtRp1991
(dp1992
g62
(dp1993
g89
g90
ssg71
g1983
sg64
(lp1994
S':'
asbag57
(g78
g59
NtRp1995
(dp1996
g62
(dp1997
sg71
g1983
sg64
(lp1998
g57
(g58
g59
NtRp1999
(dp2000
g62
(dp2001
g70
I4
ssg71
g1995
sg64
(lp2002
g100
asbasbasbag57
(g73
g59
NtRp2003
(dp2004
g62
(dp2005
sg71
g1832
sg64
(lp2006
g57
(g78
g59
NtRp2007
(dp2008
g62
(dp2009
g82
g83
ssg71
g2003
sg64
(lp2010
g1070
asbag57
(g78
g59
NtRp2011
(dp2012
g62
(dp2013
g89
g90
ssg71
g2003
sg64
(lp2014
S':'
asbag57
(g78
g59
NtRp2015
(dp2016
g62
(dp2017
sg71
g2003
sg64
(lp2018
g57
(g58
g59
NtRp2019
(dp2020
g62
(dp2021
g70
I4
ssg71
g2015
sg64
(lp2022
g100
asbasbasbag57
(g73
g59
NtRp2023
(dp2024
g62
(dp2025
sg71
g1832
sg64
(lp2026
g57
(g78
g59
NtRp2027
(dp2028
g62
(dp2029
g82
g83
ssg71
g2023
sg64
(lp2030
g1091
asbag57
(g78
g59
NtRp2031
(dp2032
g62
(dp2033
g89
g90
ssg71
g2023
sg64
(lp2034
S':'
asbag57
(g78
g59
NtRp2035
(dp2036
g62
(dp2037
sg71
g2023
sg64
(lp2038
g57
(g58
g59
NtRp2039
(dp2040
g62
(dp2041
g70
I4
ssg71
g2035
sg64
(lp2042
g57
(g66
g59
NtRp2043
(dp2044
g62
(dp2045
g70
I3
ssg71
Nsg64
(lp2046
g57
(g73
g59
NtRp2047
(dp2048
g62
(dp2049
sg71
g2043
sg64
(lp2050
g57
(g78
g59
NtRp2051
(dp2052
g62
(dp2053
sg71
g2047
sg64
(lp2054
g57
(g58
g59
NtRp2055
(dp2056
g62
(dp2057
g70
I3
ssg71
g2051
sg64
(lp2058
g1120
asbasbasbag57
(g73
g59
NtRp2059
(dp2060
g62
(dp2061
sg71
g2043
sg64
(lp2062
g57
(g78
g59
NtRp2063
(dp2064
g62
(dp2065
sg71
g2059
sg64
(lp2066
g57
(g58
g59
NtRp2067
(dp2068
g62
(dp2069
g70
I3
ssg71
g2063
sg64
(lp2070
g1133
asbasbasbag57
(g73
g59
NtRp2071
(dp2072
g62
(dp2073
sg71
g2043
sg64
(lp2074
g57
(g78
g59
NtRp2075
(dp2076
g62
(dp2077
sg71
g2071
sg64
(lp2078
g57
(g58
g59
NtRp2079
(dp2080
g62
(dp2081
g70
I3
ssg71
g2075
sg64
(lp2082
g1146
asbasbasbag57
(g73
g59
NtRp2083
(dp2084
g62
(dp2085
sg71
g2043
sg64
(lp2086
g57
(g78
g59
NtRp2087
(dp2088
g62
(dp2089
sg71
g2083
sg64
(lp2090
g57
(g58
g59
NtRp2091
(dp2092
g62
(dp2093
g70
I3
ssg71
g2087
sg64
(lp2094
g1159
asbasbasbag57
(g73
g59
NtRp2095
(dp2096
g62
(dp2097
sg71
g2043
sg64
(lp2098
g57
(g78
g59
NtRp2099
(dp2100
g62
(dp2101
sg71
g2095
sg64
(lp2102
g57
(g58
g59
NtRp2103
(dp2104
g62
(dp2105
g70
I3
ssg71
g2099
sg64
(lp2106
g1172
asbasbasbasbasbasbasbag57
(g73
g59
NtRp2107
(dp2108
g62
(dp2109
sg71
g1832
sg64
(lp2110
g57
(g78
g59
NtRp2111
(dp2112
g62
(dp2113
g82
g83
ssg71
g2107
sg64
(lp2114
g1440
asbag57
(g78
g59
NtRp2115
(dp2116
g62
(dp2117
g89
g90
ssg71
g2107
sg64
(lp2118
S':'
asbag57
(g78
g59
NtRp2119
(dp2120
g62
(dp2121
sg71
g2107
sg64
(lp2122
g57
(g58
g59
NtRp2123
(dp2124
g62
(dp2125
g70
I4
ssg71
g2119
sg64
(lp2126
g57
(g66
g59
NtRp2127
(dp2128
g62
(dp2129
g70
I3
ssg71
Nsg64
(lp2130
g57
(g73
g59
NtRp2131
(dp2132
g62
(dp2133
sg71
g2127
sg64
(lp2134
g57
(g78
g59
NtRp2135
(dp2136
g62
(dp2137
sg71
g2131
sg64
(lp2138
g57
(g58
g59
NtRp2139
(dp2140
g62
(dp2141
g70
I3
ssg71
g2135
sg64
(lp2142
S'2'
asbasbasbag57
(g73
g59
NtRp2143
(dp2144
g62
(dp2145
sg71
g2127
sg64
(lp2146
g57
(g78
g59
NtRp2147
(dp2148
g62
(dp2149
sg71
g2143
sg64
(lp2150
g57
(g58
g59
NtRp2151
(dp2152
g62
(dp2153
g70
I3
ssg71
g2147
sg64
(lp2154
S'3'
asbasbasbag57
(g73
g59
NtRp2155
(dp2156
g62
(dp2157
sg71
g2127
sg64
(lp2158
g57
(g78
g59
NtRp2159
(dp2160
g62
(dp2161
sg71
g2155
sg64
(lp2162
g57
(g58
g59
NtRp2163
(dp2164
g62
(dp2165
g70
I3
ssg71
g2159
sg64
(lp2166
S'2'
asbasbasbag57
(g73
g59
NtRp2167
(dp2168
g62
(dp2169
sg71
g2127
sg64
(lp2170
g57
(g78
g59
NtRp2171
(dp2172
g62
(dp2173
sg71
g2167
sg64
(lp2174
g57
(g58
g59
NtRp2175
(dp2176
g62
(dp2177
g70
I3
ssg71
g2171
sg64
(lp2178
S'datetime.datetime(2012, 12, 17, 15, 3, 30)'
p2179
asbasbasbag57
(g73
g59
NtRp2180
(dp2181
g62
(dp2182
sg71
g2127
sg64
(lp2183
g57
(g78
g59
NtRp2184
(dp2185
g62
(dp2186
sg71
g2180
sg64
(lp2187
g57
(g58
g59
NtRp2188
(dp2189
g62
(dp2190
g70
I3
ssg71
g2184
sg64
(lp2191
g1518
asbasbasbasbasbasbasbasbasbasbasbag57
(g73
g59
NtRp2192
(dp2193
g62
(dp2194
sg71
g67
sg64
(lp2195
g57
(g78
g59
NtRp2196
(dp2197
g62
(dp2198
g82
g83
ssg71
g2192
sg64
(lp2199
S'is_https'
p2200
asbag57
(g78
g59
NtRp2201
(dp2202
g62
(dp2203
g89
g90
ssg71
g2192
sg64
(lp2204
S':'
asbag57
(g78
g59
NtRp2205
(dp2206
g62
(dp2207
sg71
g2192
sg64
(lp2208
g57
(g58
g59
NtRp2209
(dp2210
g62
(dp2211
g70
I5
ssg71
g2205
sg64
(lp2212
g100
asbasbasbag57
(g73
g59
NtRp2213
(dp2214
g62
(dp2215
sg71
g67
sg64
(lp2216
g57
(g78
g59
NtRp2217
(dp2218
g62
(dp2219
g82
g83
ssg71
g2213
sg64
(lp2220
S'is_local'
p2221
asbag57
(g78
g59
NtRp2222
(dp2223
g62
(dp2224
g89
g90
ssg71
g2213
sg64
(lp2225
S':'
asbag57
(g78
g59
NtRp2226
(dp2227
g62
(dp2228
sg71
g2213
sg64
(lp2229
g57
(g58
g59
NtRp2230
(dp2231
g62
(dp2232
g70
I5
ssg71
g2226
sg64
(lp2233
g1627
asbasbasbag57
(g73
g59
NtRp2234
(dp2235
g62
(dp2236
sg71
g67
sg64
(lp2237
g57
(g78
g59
NtRp2238
(dp2239
g62
(dp2240
g82
g83
ssg71
g2234
sg64
(lp2241
S'is_restful'
p2242
asbag57
(g78
g59
NtRp2243
(dp2244
g62
(dp2245
g89
g90
ssg71
g2234
sg64
(lp2246
S':'
asbag57
(g78
g59
NtRp2247
(dp2248
g62
(dp2249
sg71
g2234
sg64
(lp2250
g57
(g58
g59
NtRp2251
(dp2252
g62
(dp2253
g70
I5
ssg71
g2247
sg64
(lp2254
g100
asbasbasbag57
(g73
g59
NtRp2255
(dp2256
g62
(dp2257
sg71
g67
sg64
(lp2258
g57
(g78
g59
NtRp2259
(dp2260
g62
(dp2261
g82
g83
ssg71
g2255
sg64
(lp2262
S'now'
p2263
asbag57
(g78
g59
NtRp2264
(dp2265
g62
(dp2266
g89
g90
ssg71
g2255
sg64
(lp2267
S':'
asbag57
(g78
g59
NtRp2268
(dp2269
g62
(dp2270
sg71
g2255
sg64
(lp2271
g57
(g58
g59
NtRp2272
(dp2273
g62
(dp2274
g70
I5
ssg71
g2268
sg64
(lp2275
S'datetime.datetime(2013, 1, 30, 17, 33, 14, 165175)'
p2276
asbasbasbag57
(g73
g59
NtRp2277
(dp2278
g62
(dp2279
sg71
g67
sg64
(lp2280
g57
(g78
g59
NtRp2281
(dp2282
g62
(dp2283
g82
g83
ssg71
g2277
sg64
(lp2284
S'post_vars'
p2285
asbag57
(g78
g59
NtRp2286
(dp2287
g62
(dp2288
g89
g90
ssg71
g2277
sg64
(lp2289
S':'
asbag57
(g78
g59
NtRp2290
(dp2291
g62
(dp2292
sg71
g2277
sg64
(lp2293
g57
(g58
g59
NtRp2294
(dp2295
g62
(dp2296
g70
I5
ssg71
g2290
sg64
(lp2297
g57
(g66
g59
NtRp2298
(dp2299
g62
(dp2300
g70
I4
ssg71
Nsg64
(lp2301
sbasbasbasbag57
(g73
g59
NtRp2302
(dp2303
g62
(dp2304
sg71
g67
sg64
(lp2305
g57
(g78
g59
NtRp2306
(dp2307
g62
(dp2308
g82
g83
ssg71
g2302
sg64
(lp2309
S'raw_args'
p2310
asbag57
(g78
g59
NtRp2311
(dp2312
g62
(dp2313
g89
g90
ssg71
g2302
sg64
(lp2314
S':'
asbag57
(g78
g59
NtRp2315
(dp2316
g62
(dp2317
sg71
g2302
sg64
(lp2318
g57
(g58
g59
NtRp2319
(dp2320
g62
(dp2321
g70
I5
ssg71
g2315
sg64
(lp2322
S''
asbasbasbag57
(g73
g59
NtRp2323
(dp2324
g62
(dp2325
sg71
g67
sg64
(lp2326
g57
(g78
g59
NtRp2327
(dp2328
g62
(dp2329
g82
g83
ssg71
g2323
sg64
(lp2330
S'raw_extension'
p2331
asbag57
(g78
g59
NtRp2332
(dp2333
g62
(dp2334
g89
g90
ssg71
g2323
sg64
(lp2335
S':'
asbag57
(g78
g59
NtRp2336
(dp2337
g62
(dp2338
sg71
g2323
sg64
(lp2339
g57
(g58
g59
NtRp2340
(dp2341
g62
(dp2342
g70
I5
ssg71
g2336
sg64
(lp2343
S'None'
p2344
asbasbasbag57
(g73
g59
NtRp2345
(dp2346
g62
(dp2347
sg71
g67
sg64
(lp2348
g57
(g78
g59
NtRp2349
(dp2350
g62
(dp2351
g82
g83
ssg71
g2345
sg64
(lp2352
S'url'
p2353
asbag57
(g78
g59
NtRp2354
(dp2355
g62
(dp2356
g89
g90
ssg71
g2345
sg64
(lp2357
S':'
asbag57
(g78
g59
NtRp2358
(dp2359
g62
(dp2360
sg71
g2345
sg64
(lp2361
g57
(g58
g59
NtRp2362
(dp2363
g62
(dp2364
g70
I5
ssg71
g2358
sg64
(lp2365
g1194
asbasbasbag57
(g73
g59
NtRp2366
(dp2367
g62
(dp2368
sg71
g67
sg64
(lp2369
g57
(g78
g59
NtRp2370
(dp2371
g62
(dp2372
g82
g83
ssg71
g2366
sg64
(lp2373
S'utcnow'
p2374
asbag57
(g78
g59
NtRp2375
(dp2376
g62
(dp2377
g89
g90
ssg71
g2366
sg64
(lp2378
S':'
asbag57
(g78
g59
NtRp2379
(dp2380
g62
(dp2381
sg71
g2366
sg64
(lp2382
g57
(g58
g59
NtRp2383
(dp2384
g62
(dp2385
g70
I5
ssg71
g2379
sg64
(lp2386
S'datetime.datetime(2013, 1, 30, 19, 33, 14, 165187)'
p2387
asbasbasbag57
(g73
g59
NtRp2388
(dp2389
g62
(dp2390
sg71
g67
sg64
(lp2391
g57
(g78
g59
NtRp2392
(dp2393
g62
(dp2394
g82
g83
ssg71
g2388
sg64
(lp2395
S'uuid'
p2396
asbag57
(g78
g59
NtRp2397
(dp2398
g62
(dp2399
g89
g90
ssg71
g2388
sg64
(lp2400
S':'
asbag57
(g78
g59
NtRp2401
(dp2402
g62
(dp2403
sg71
g2388
sg64
(lp2404
g57
(g58
g59
NtRp2405
(dp2406
g62
(dp2407
g70
I5
ssg71
g2401
sg64
(lp2408
S'irecycle/127.0.0.1.2013-01-30.17-33-14.490eba2f-b95a-4ffb-8be5-3ea494fb1941'
p2409
asbasbasbag57
(g73
g59
NtRp2410
(dp2411
g62
(dp2412
sg71
g67
sg64
(lp2413
g57
(g78
g59
NtRp2414
(dp2415
g62
(dp2416
g82
g83
ssg71
g2410
sg64
(lp2417
S'vars'
p2418
asbag57
(g78
g59
NtRp2419
(dp2420
g62
(dp2421
g89
g90
ssg71
g2410
sg64
(lp2422
S':'
asbag57
(g78
g59
NtRp2423
(dp2424
g62
(dp2425
sg71
g2410
sg64
(lp2426
g57
(g58
g59
NtRp2427
(dp2428
g62
(dp2429
g70
I5
ssg71
g2423
sg64
(lp2430
g57
(g66
g59
NtRp2431
(dp2432
g62
(dp2433
g70
I4
ssg71
Nsg64
(lp2434
sbasbasbasbag57
(g73
g59
NtRp2435
(dp2436
g62
(dp2437
sg71
g67
sg64
(lp2438
g57
(g78
g59
NtRp2439
(dp2440
g62
(dp2441
g82
g83
ssg71
g2435
sg64
(lp2442
S'wsgi'
p2443
asbag57
(g78
g59
NtRp2444
(dp2445
g62
(dp2446
g89
g90
ssg71
g2435
sg64
(lp2447
S':'
asbag57
(g78
g59
NtRp2448
(dp2449
g62
(dp2450
sg71
g2435
sg64
(lp2451
g57
(g58
g59
NtRp2452
(dp2453
g62
(dp2454
g70
I5
ssg71
g2448
sg64
(lp2455
g57
(g66
g59
NtRp2456
(dp2457
g62
(dp2458
g70
I4
ssg71
Nsg64
(lp2459
g57
(g73
g59
NtRp2460
(dp2461
g62
(dp2462
sg71
g2456
sg64
(lp2463
g57
(g78
g59
NtRp2464
(dp2465
g62
(dp2466
g82
g83
ssg71
g2460
sg64
(lp2467
S'environ'
p2468
asbag57
(g78
g59
NtRp2469
(dp2470
g62
(dp2471
g89
g90
ssg71
g2460
sg64
(lp2472
S':'
asbag57
(g78
g59
NtRp2473
(dp2474
g62
(dp2475
sg71
g2460
sg64
(lp2476
g57
(g58
g59
NtRp2477
(dp2478
g62
(dp2479
g70
I4
ssg71
g2473
sg64
(lp2480
g57
(g66
g59
NtRp2481
(dp2482
g62
(dp2483
g70
I3
ssg71
Nsg64
(lp2484
g57
(g73
g59
NtRp2485
(dp2486
g62
(dp2487
sg71
g2481
sg64
(lp2488
g57
(g78
g59
NtRp2489
(dp2490
g62
(dp2491
g82
g83
ssg71
g2485
sg64
(lp2492
S'HTTP_ACCEPT'
p2493
asbag57
(g78
g59
NtRp2494
(dp2495
g62
(dp2496
g89
g90
ssg71
g2485
sg64
(lp2497
S':'
asbag57
(g78
g59
NtRp2498
(dp2499
g62
(dp2500
sg71
g2485
sg64
(lp2501
g57
(g58
g59
NtRp2502
(dp2503
g62
(dp2504
g70
I3
ssg71
g2498
sg64
(lp2505
g842
asbasbasbag57
(g73
g59
NtRp2506
(dp2507
g62
(dp2508
sg71
g2481
sg64
(lp2509
g57
(g78
g59
NtRp2510
(dp2511
g62
(dp2512
g82
g83
ssg71
g2506
sg64
(lp2513
S'HTTP_ACCEPT_CHARSET'
p2514
asbag57
(g78
g59
NtRp2515
(dp2516
g62
(dp2517
g89
g90
ssg71
g2506
sg64
(lp2518
S':'
asbag57
(g78
g59
NtRp2519
(dp2520
g62
(dp2521
sg71
g2506
sg64
(lp2522
g57
(g58
g59
NtRp2523
(dp2524
g62
(dp2525
g70
I3
ssg71
g2519
sg64
(lp2526
g864
asbasbasbag57
(g73
g59
NtRp2527
(dp2528
g62
(dp2529
sg71
g2481
sg64
(lp2530
g57
(g78
g59
NtRp2531
(dp2532
g62
(dp2533
g82
g83
ssg71
g2527
sg64
(lp2534
S'HTTP_ACCEPT_ENCODING'
p2535
asbag57
(g78
g59
NtRp2536
(dp2537
g62
(dp2538
g89
g90
ssg71
g2527
sg64
(lp2539
S':'
asbag57
(g78
g59
NtRp2540
(dp2541
g62
(dp2542
sg71
g2527
sg64
(lp2543
g57
(g58
g59
NtRp2544
(dp2545
g62
(dp2546
g70
I3
ssg71
g2540
sg64
(lp2547
g886
asbasbasbag57
(g73
g59
NtRp2548
(dp2549
g62
(dp2550
sg71
g2481
sg64
(lp2551
g57
(g78
g59
NtRp2552
(dp2553
g62
(dp2554
g82
g83
ssg71
g2548
sg64
(lp2555
S'HTTP_ACCEPT_LANGUAGE'
p2556
asbag57
(g78
g59
NtRp2557
(dp2558
g62
(dp2559
g89
g90
ssg71
g2548
sg64
(lp2560
S':'
asbag57
(g78
g59
NtRp2561
(dp2562
g62
(dp2563
sg71
g2548
sg64
(lp2564
g57
(g58
g59
NtRp2565
(dp2566
g62
(dp2567
g70
I3
ssg71
g2561
sg64
(lp2568
g908
asbasbasbag57
(g73
g59
NtRp2569
(dp2570
g62
(dp2571
sg71
g2481
sg64
(lp2572
g57
(g78
g59
NtRp2573
(dp2574
g62
(dp2575
g82
g83
ssg71
g2569
sg64
(lp2576
S'HTTP_CACHE_CONTROL'
p2577
asbag57
(g78
g59
NtRp2578
(dp2579
g62
(dp2580
g89
g90
ssg71
g2569
sg64
(lp2581
S':'
asbag57
(g78
g59
NtRp2582
(dp2583
g62
(dp2584
sg71
g2569
sg64
(lp2585
g57
(g58
g59
NtRp2586
(dp2587
g62
(dp2588
g70
I3
ssg71
g2582
sg64
(lp2589
g930
asbasbasbag57
(g73
g59
NtRp2590
(dp2591
g62
(dp2592
sg71
g2481
sg64
(lp2593
g57
(g78
g59
NtRp2594
(dp2595
g62
(dp2596
g82
g83
ssg71
g2590
sg64
(lp2597
S'HTTP_CONNECTION'
p2598
asbag57
(g78
g59
NtRp2599
(dp2600
g62
(dp2601
g89
g90
ssg71
g2590
sg64
(lp2602
S':'
asbag57
(g78
g59
NtRp2603
(dp2604
g62
(dp2605
sg71
g2590
sg64
(lp2606
g57
(g58
g59
NtRp2607
(dp2608
g62
(dp2609
g70
I3
ssg71
g2603
sg64
(lp2610
g952
asbasbasbag57
(g73
g59
NtRp2611
(dp2612
g62
(dp2613
sg71
g2481
sg64
(lp2614
g57
(g78
g59
NtRp2615
(dp2616
g62
(dp2617
g82
g83
ssg71
g2611
sg64
(lp2618
S'HTTP_COOKIE'
p2619
asbag57
(g78
g59
NtRp2620
(dp2621
g62
(dp2622
g89
g90
ssg71
g2611
sg64
(lp2623
S':'
asbag57
(g78
g59
NtRp2624
(dp2625
g62
(dp2626
sg71
g2611
sg64
(lp2627
g57
(g58
g59
NtRp2628
(dp2629
g62
(dp2630
g70
I3
ssg71
g2624
sg64
(lp2631
g974
asbasbasbag57
(g73
g59
NtRp2632
(dp2633
g62
(dp2634
sg71
g2481
sg64
(lp2635
g57
(g78
g59
NtRp2636
(dp2637
g62
(dp2638
g82
g83
ssg71
g2632
sg64
(lp2639
S'HTTP_HOST'
p2640
asbag57
(g78
g59
NtRp2641
(dp2642
g62
(dp2643
g89
g90
ssg71
g2632
sg64
(lp2644
S':'
asbag57
(g78
g59
NtRp2645
(dp2646
g62
(dp2647
sg71
g2632
sg64
(lp2648
g57
(g58
g59
NtRp2649
(dp2650
g62
(dp2651
g70
I3
ssg71
g2645
sg64
(lp2652
g996
asbasbasbag57
(g73
g59
NtRp2653
(dp2654
g62
(dp2655
sg71
g2481
sg64
(lp2656
g57
(g78
g59
NtRp2657
(dp2658
g62
(dp2659
g82
g83
ssg71
g2653
sg64
(lp2660
S'HTTP_REFERER'
p2661
asbag57
(g78
g59
NtRp2662
(dp2663
g62
(dp2664
g89
g90
ssg71
g2653
sg64
(lp2665
S':'
asbag57
(g78
g59
NtRp2666
(dp2667
g62
(dp2668
sg71
g2653
sg64
(lp2669
g57
(g58
g59
NtRp2670
(dp2671
g62
(dp2672
g70
I3
ssg71
g2666
sg64
(lp2673
g1018
asbasbasbag57
(g73
g59
NtRp2674
(dp2675
g62
(dp2676
sg71
g2481
sg64
(lp2677
g57
(g78
g59
NtRp2678
(dp2679
g62
(dp2680
g82
g83
ssg71
g2674
sg64
(lp2681
S'HTTP_USER_AGENT'
p2682
asbag57
(g78
g59
NtRp2683
(dp2684
g62
(dp2685
g89
g90
ssg71
g2674
sg64
(lp2686
S':'
asbag57
(g78
g59
NtRp2687
(dp2688
g62
(dp2689
sg71
g2674
sg64
(lp2690
g57
(g58
g59
NtRp2691
(dp2692
g62
(dp2693
g70
I3
ssg71
g2687
sg64
(lp2694
g1040
asbasbasbag57
(g73
g59
NtRp2695
(dp2696
g62
(dp2697
sg71
g2481
sg64
(lp2698
g57
(g78
g59
NtRp2699
(dp2700
g62
(dp2701
g82
g83
ssg71
g2695
sg64
(lp2702
S'PATH_INFO'
p2703
asbag57
(g78
g59
NtRp2704
(dp2705
g62
(dp2706
g89
g90
ssg71
g2695
sg64
(lp2707
S':'
asbag57
(g78
g59
NtRp2708
(dp2709
g62
(dp2710
sg71
g2695
sg64
(lp2711
g57
(g58
g59
NtRp2712
(dp2713
g62
(dp2714
g70
I3
ssg71
g2708
sg64
(lp2715
g1194
asbasbasbag57
(g73
g59
NtRp2716
(dp2717
g62
(dp2718
sg71
g2481
sg64
(lp2719
g57
(g78
g59
NtRp2720
(dp2721
g62
(dp2722
g82
g83
ssg71
g2716
sg64
(lp2723
S'QUERY_STRING'
p2724
asbag57
(g78
g59
NtRp2725
(dp2726
g62
(dp2727
g89
g90
ssg71
g2716
sg64
(lp2728
S':'
asbag57
(g78
g59
NtRp2729
(dp2730
g62
(dp2731
sg71
g2716
sg64
(lp2732
g57
(g58
g59
NtRp2733
(dp2734
g62
(dp2735
g70
I3
ssg71
g2729
sg64
(lp2736
S''
asbasbasbag57
(g73
g59
NtRp2737
(dp2738
g62
(dp2739
sg71
g2481
sg64
(lp2740
g57
(g78
g59
NtRp2741
(dp2742
g62
(dp2743
g82
g83
ssg71
g2737
sg64
(lp2744
S'REMOTE_ADDR'
p2745
asbag57
(g78
g59
NtRp2746
(dp2747
g62
(dp2748
g89
g90
ssg71
g2737
sg64
(lp2749
S':'
asbag57
(g78
g59
NtRp2750
(dp2751
g62
(dp2752
sg71
g2737
sg64
(lp2753
g57
(g58
g59
NtRp2754
(dp2755
g62
(dp2756
g70
I3
ssg71
g2750
sg64
(lp2757
g212
asbasbasbag57
(g73
g59
NtRp2758
(dp2759
g62
(dp2760
sg71
g2481
sg64
(lp2761
g57
(g78
g59
NtRp2762
(dp2763
g62
(dp2764
g82
g83
ssg71
g2758
sg64
(lp2765
S'REMOTE_PORT'
p2766
asbag57
(g78
g59
NtRp2767
(dp2768
g62
(dp2769
g89
g90
ssg71
g2758
sg64
(lp2770
S':'
asbag57
(g78
g59
NtRp2771
(dp2772
g62
(dp2773
sg71
g2758
sg64
(lp2774
g57
(g58
g59
NtRp2775
(dp2776
g62
(dp2777
g70
I3
ssg71
g2771
sg64
(lp2778
g1258
asbasbasbag57
(g73
g59
NtRp2779
(dp2780
g62
(dp2781
sg71
g2481
sg64
(lp2782
g57
(g78
g59
NtRp2783
(dp2784
g62
(dp2785
g82
g83
ssg71
g2779
sg64
(lp2786
S'REQUEST_METHOD'
p2787
asbag57
(g78
g59
NtRp2788
(dp2789
g62
(dp2790
g89
g90
ssg71
g2779
sg64
(lp2791
S':'
asbag57
(g78
g59
NtRp2792
(dp2793
g62
(dp2794
sg71
g2779
sg64
(lp2795
g57
(g58
g59
NtRp2796
(dp2797
g62
(dp2798
g70
I3
ssg71
g2792
sg64
(lp2799
g1280
asbasbasbag57
(g73
g59
NtRp2800
(dp2801
g62
(dp2802
sg71
g2481
sg64
(lp2803
g57
(g78
g59
NtRp2804
(dp2805
g62
(dp2806
g82
g83
ssg71
g2800
sg64
(lp2807
S'REQUEST_URI'
p2808
asbag57
(g78
g59
NtRp2809
(dp2810
g62
(dp2811
g89
g90
ssg71
g2800
sg64
(lp2812
S':'
asbag57
(g78
g59
NtRp2813
(dp2814
g62
(dp2815
sg71
g2800
sg64
(lp2816
g57
(g58
g59
NtRp2817
(dp2818
g62
(dp2819
g70
I3
ssg71
g2813
sg64
(lp2820
g1194
asbasbasbag57
(g73
g59
NtRp2821
(dp2822
g62
(dp2823
sg71
g2481
sg64
(lp2824
g57
(g78
g59
NtRp2825
(dp2826
g62
(dp2827
g82
g83
ssg71
g2821
sg64
(lp2828
S'SCRIPT_NAME'
p2829
asbag57
(g78
g59
NtRp2830
(dp2831
g62
(dp2832
g89
g90
ssg71
g2821
sg64
(lp2833
S':'
asbag57
(g78
g59
NtRp2834
(dp2835
g62
(dp2836
sg71
g2821
sg64
(lp2837
g57
(g58
g59
NtRp2838
(dp2839
g62
(dp2840
g70
I3
ssg71
g2834
sg64
(lp2841
S''
asbasbasbag57
(g73
g59
NtRp2842
(dp2843
g62
(dp2844
sg71
g2481
sg64
(lp2845
g57
(g78
g59
NtRp2846
(dp2847
g62
(dp2848
g82
g83
ssg71
g2842
sg64
(lp2849
S'SERVER_NAME'
p2850
asbag57
(g78
g59
NtRp2851
(dp2852
g62
(dp2853
g89
g90
ssg71
g2842
sg64
(lp2854
S':'
asbag57
(g78
g59
NtRp2855
(dp2856
g62
(dp2857
sg71
g2842
sg64
(lp2858
g57
(g58
g59
NtRp2859
(dp2860
g62
(dp2861
g70
I3
ssg71
g2855
sg64
(lp2862
g1344
asbasbasbag57
(g73
g59
NtRp2863
(dp2864
g62
(dp2865
sg71
g2481
sg64
(lp2866
g57
(g78
g59
NtRp2867
(dp2868
g62
(dp2869
g82
g83
ssg71
g2863
sg64
(lp2870
S'SERVER_PORT'
p2871
asbag57
(g78
g59
NtRp2872
(dp2873
g62
(dp2874
g89
g90
ssg71
g2863
sg64
(lp2875
S':'
asbag57
(g78
g59
NtRp2876
(dp2877
g62
(dp2878
sg71
g2863
sg64
(lp2879
g57
(g58
g59
NtRp2880
(dp2881
g62
(dp2882
g70
I3
ssg71
g2876
sg64
(lp2883
g1366
asbasbasbag57
(g73
g59
NtRp2884
(dp2885
g62
(dp2886
sg71
g2481
sg64
(lp2887
g57
(g78
g59
NtRp2888
(dp2889
g62
(dp2890
g82
g83
ssg71
g2884
sg64
(lp2891
S'SERVER_PROTOCOL'
p2892
asbag57
(g78
g59
NtRp2893
(dp2894
g62
(dp2895
g89
g90
ssg71
g2884
sg64
(lp2896
S':'
asbag57
(g78
g59
NtRp2897
(dp2898
g62
(dp2899
sg71
g2884
sg64
(lp2900
g57
(g58
g59
NtRp2901
(dp2902
g62
(dp2903
g70
I3
ssg71
g2897
sg64
(lp2904
g1388
asbasbasbag57
(g73
g59
NtRp2905
(dp2906
g62
(dp2907
sg71
g2481
sg64
(lp2908
g57
(g78
g59
NtRp2909
(dp2910
g62
(dp2911
g82
g83
ssg71
g2905
sg64
(lp2912
S'SERVER_SOFTWARE'
p2913
asbag57
(g78
g59
NtRp2914
(dp2915
g62
(dp2916
g89
g90
ssg71
g2905
sg64
(lp2917
S':'
asbag57
(g78
g59
NtRp2918
(dp2919
g62
(dp2920
sg71
g2905
sg64
(lp2921
g57
(g58
g59
NtRp2922
(dp2923
g62
(dp2924
g70
I3
ssg71
g2918
sg64
(lp2925
g1410
asbasbasbag57
(g73
g59
NtRp2926
(dp2927
g62
(dp2928
sg71
g2481
sg64
(lp2929
g57
(g78
g59
NtRp2930
(dp2931
g62
(dp2932
g82
g83
ssg71
g2926
sg64
(lp2933
S'wsgi.errors'
p2934
asbag57
(g78
g59
NtRp2935
(dp2936
g62
(dp2937
g89
g90
ssg71
g2926
sg64
(lp2938
S':'
asbag57
(g78
g59
NtRp2939
(dp2940
g62
(dp2941
sg71
g2926
sg64
(lp2942
g57
(g58
g59
NtRp2943
(dp2944
g62
(dp2945
g70
I3
ssg71
g2939
sg64
(lp2946
S"<open file '<stderr>', mode 'w' at 0x7f02ff32a270>"
p2947
asbasbasbag57
(g73
g59
NtRp2948
(dp2949
g62
(dp2950
sg71
g2481
sg64
(lp2951
g57
(g78
g59
NtRp2952
(dp2953
g62
(dp2954
g82
g83
ssg71
g2948
sg64
(lp2955
S'wsgi.file_wrapper'
p2956
asbag57
(g78
g59
NtRp2957
(dp2958
g62
(dp2959
g89
g90
ssg71
g2948
sg64
(lp2960
S':'
asbag57
(g78
g59
NtRp2961
(dp2962
g62
(dp2963
sg71
g2948
sg64
(lp2964
g57
(g58
g59
NtRp2965
(dp2966
g62
(dp2967
g70
I3
ssg71
g2961
sg64
(lp2968
S'<class wsgiref.util.FileWrapper at 0x20347a0>'
p2969
asbasbasbag57
(g73
g59
NtRp2970
(dp2971
g62
(dp2972
sg71
g2481
sg64
(lp2973
g57
(g78
g59
NtRp2974
(dp2975
g62
(dp2976
g82
g83
ssg71
g2970
sg64
(lp2977
S'wsgi.input'
p2978
asbag57
(g78
g59
NtRp2979
(dp2980
g62
(dp2981
g89
g90
ssg71
g2970
sg64
(lp2982
S':'
asbag57
(g78
g59
NtRp2983
(dp2984
g62
(dp2985
sg71
g2970
sg64
(lp2986
g57
(g58
g59
NtRp2987
(dp2988
g62
(dp2989
g70
I3
ssg71
g2983
sg64
(lp2990
S'<cStringIO.StringO object at 0x7f02ec45d5e0>'
p2991
asbasbasbag57
(g73
g59
NtRp2992
(dp2993
g62
(dp2994
sg71
g2481
sg64
(lp2995
g57
(g78
g59
NtRp2996
(dp2997
g62
(dp2998
g82
g83
ssg71
g2992
sg64
(lp2999
S'wsgi.multiprocess'
p3000
asbag57
(g78
g59
NtRp3001
(dp3002
g62
(dp3003
g89
g90
ssg71
g2992
sg64
(lp3004
S':'
asbag57
(g78
g59
NtRp3005
(dp3006
g62
(dp3007
sg71
g2992
sg64
(lp3008
g57
(g58
g59
NtRp3009
(dp3010
g62
(dp3011
g70
I3
ssg71
g3005
sg64
(lp3012
g100
asbasbasbag57
(g73
g59
NtRp3013
(dp3014
g62
(dp3015
sg71
g2481
sg64
(lp3016
g57
(g78
g59
NtRp3017
(dp3018
g62
(dp3019
g82
g83
ssg71
g3013
sg64
(lp3020
S'wsgi.multithread'
p3021
asbag57
(g78
g59
NtRp3022
(dp3023
g62
(dp3024
g89
g90
ssg71
g3013
sg64
(lp3025
S':'
asbag57
(g78
g59
NtRp3026
(dp3027
g62
(dp3028
sg71
g3013
sg64
(lp3029
g57
(g58
g59
NtRp3030
(dp3031
g62
(dp3032
g70
I3
ssg71
g3026
sg64
(lp3033
g1627
asbasbasbag57
(g73
g59
NtRp3034
(dp3035
g62
(dp3036
sg71
g2481
sg64
(lp3037
g57
(g78
g59
NtRp3038
(dp3039
g62
(dp3040
g82
g83
ssg71
g3034
sg64
(lp3041
S'wsgi.run_once'
p3042
asbag57
(g78
g59
NtRp3043
(dp3044
g62
(dp3045
g89
g90
ssg71
g3034
sg64
(lp3046
S':'
asbag57
(g78
g59
NtRp3047
(dp3048
g62
(dp3049
sg71
g3034
sg64
(lp3050
g57
(g58
g59
NtRp3051
(dp3052
g62
(dp3053
g70
I3
ssg71
g3047
sg64
(lp3054
g100
asbasbasbag57
(g73
g59
NtRp3055
(dp3056
g62
(dp3057
sg71
g2481
sg64
(lp3058
g57
(g78
g59
NtRp3059
(dp3060
g62
(dp3061
g82
g83
ssg71
g3055
sg64
(lp3062
S'wsgi.url_scheme'
p3063
asbag57
(g78
g59
NtRp3064
(dp3065
g62
(dp3066
g89
g90
ssg71
g3055
sg64
(lp3067
S':'
asbag57
(g78
g59
NtRp3068
(dp3069
g62
(dp3070
sg71
g3055
sg64
(lp3071
g57
(g58
g59
NtRp3072
(dp3073
g62
(dp3074
g70
I3
ssg71
g3068
sg64
(lp3075
g1670
asbasbasbag57
(g73
g59
NtRp3076
(dp3077
g62
(dp3078
sg71
g2481
sg64
(lp3079
g57
(g78
g59
NtRp3080
(dp3081
g62
(dp3082
g82
g83
ssg71
g3076
sg64
(lp3083
S'wsgi.version'
p3084
asbag57
(g78
g59
NtRp3085
(dp3086
g62
(dp3087
g89
g90
ssg71
g3076
sg64
(lp3088
S':'
asbag57
(g78
g59
NtRp3089
(dp3090
g62
(dp3091
sg71
g3076
sg64
(lp3092
g57
(g58
g59
NtRp3093
(dp3094
g62
(dp3095
g70
I3
ssg71
g3089
sg64
(lp3096
S'1'
asbasbasbasbasbasbasbasbasbasbasbasbasbsS'frames'
p3097
(lp3098
(dp3099
S'file'
p3100
S'/home/diego/web2py/gluon/restricted.py'
p3101
sS'dump'
p3102
(dp3103
S'environment'
p3104
S"{'A': <class 'gluon.html.A'>, 'Auth': <class 'gluon.tools.Auth'>, 'B': <class 'gluon.html.B'>, 'BEAUTIFY': <class 'gluon.html.BEAUTIFY'>, 'BODY': <class 'gluon.html.BODY'>, 'BR': <class 'gluon.html.BR'>, 'BUTTON': <class 'gluon.html.BUTTON'>, 'CAT': <class 'gluon.html.CAT'>, 'CENTER': <class 'gluon.html.CENTER'>, 'CLEANUP': <class 'gluon.validators.CLEANUP'>, ...}"
p3105
sS'ccode'
p3106
S'<code object <module> at 0x7f02f41d7930, file "/...ations/irecycle/views/default/home.html", line 1>'
p3107
ssS'lnum'
p3108
I212
sS'lines'
p3109
(dp3110
I207
S'    try:'
p3111
sI208
S'        if isinstance(code, types.CodeType):'
p3112
sI209
S'            ccode = code'
p3113
sI210
S'        else:'
p3114
sI211
S'            ccode = compile2(code, layer)'
p3115
sI212
S'        exec ccode in environment'
p3116
sI213
S'    except HTTP:'
p3117
sI214
S'        raise'
p3118
sI215
S'    except RestrictedError:'
p3119
sI216
S'        # do not encapsulate (obfuscate) the original RestrictedError'
p3120
ssS'call'
p3121
S'(code=\'response.write(\\\'\\\\n<!DOCTYPE html>\\\\n<html lang="e...script>\\\\n\\\\n\\\\n  </body>\\\\n</html>\\\\n\\\', escape=False)\', environment={\'A\': <class \'gluon.html.A\'>, \'Auth\': <class \'gluon.tools.Auth\'>, \'B\': <class \'gluon.html.B\'>, \'BEAUTIFY\': <class \'gluon.html.BEAUTIFY\'>, \'BODY\': <class \'gluon.html.BODY\'>, \'BR\': <class \'gluon.html.BR\'>, \'BUTTON\': <class \'gluon.html.BUTTON\'>, \'CAT\': <class \'gluon.html.CAT\'>, \'CENTER\': <class \'gluon.html.CENTER\'>, \'CLEANUP\': <class \'gluon.validators.CLEANUP\'>, ...}, layer=\'/home/diego/web2py/applications/irecycle/views/default/home.html\')'
p3122
sS'func'
p3123
S'restricted'
p3124
sa(dp3125
g3100
S'/home/diego/web2py/applications/irecycle/views/default/home.html'
p3126
sg3102
(dp3127
S'top'
p3128
S'undefined'
p3129
sS'margin'
p3130
g3129
sS'px'
p3131
g3129
ssg3108
I65
sg3109
(dp3132
I64
S'response.write(\'">Search</a></li>\\n\\t\\t\\t</ul>\\n\\t\\t  </div><!--/.nav-collapse -->\\n\\t\\t</div>\\n\\t  </div>\\n\\t</div>\\n\\n\\t<hr>\\n\\t\\n\\t<h2>Ol\\xc3\\xa1 \', escape=False)'
p3133
sI65
S'response.write(name_of(Post.posted_by))'
p3134
sI66
S"response.write(' </h2>\\n\\t\\n\\t', escape=False)"
p3135
sI67
S'response.write(form)'
p3136
sI68
S'response.write("\\n\\t<script>jQuery(\'textarea\').css(\'width\',\'600px\').css(\'height\',\'50px\');</script>\\n\\t", escape=False)'
p3137
sI69
S'for post in posts:'
p3138
sI70
S'    response.write(\'\\n\\t<div style="background: #f0f0f0; margin-bottom: 5px; padding: 8px;">\\n\\t\\t<h3>\', escape=False)'
p3139
sI71
S'    response.write(name_of(post.posted_by))'
p3140
sI72
S"    response.write(' on ', escape=False)"
p3141
sI73
S'    response.write(post.posted_on)'
p3142
sI74
S"    response.write(':</h3>\\n\\t\\t', escape=False)"
p3143
sI75
S'    response.write(MARKMIN(post.body))'
p3144
sI56
S'response.write(\'\\n\\t\\t\\t  <!-- Logged in as <a href="#" class="navbar-link">Username</a> -->\\n\\t\\t\\t</p>\\n\\t\\t\\t<ul class="nav">\\n\\t\\t\\t  <li class="active"><a href="\', escape=False)'
p3145
sI57
S"response.write(URL('index'))"
p3146
sI58
S'response.write(\'">Home</a></li>\\n\\t\\t\\t  <li><a href="\', escape=False)'
p3147
sI59
S"response.write(URL('wall'))"
p3148
sI60
S'response.write(\'">Wall</a></li>\\n\\t\\t\\t  <li><a href="\', escape=False)'
p3149
sI61
S"response.write(URL('friends'))"
p3150
sI62
S'response.write(\'">Friends</a></li>\\n\\t\\t\\t  <li><a href="\', escape=False)'
p3151
sI63
S"response.write(URL('search'))"
p3152
ssg3121
S'()'
p3153
sg3123
S'<module>'
p3154
sa(dp3155
g3100
S'/home/diego/web2py/applications/irecycle/models/3_db.py'
p3156
sg3102
(dp3157
S'user'
p3158
S'<gluon.dal.Field object>'
p3159
ssg3108
I59
sg3109
(dp3160
I54
S'User, Link, Post = db.auth_user, db.link, db.post'
p3161
sI55
S'me, a0, a1 = auth.user_id, request.args(0), request.args(1)'
p3162
sI56
S'myfriends = db(Link.fonte==me)(Link.accepted==True)'
p3163
sI57
S'alphabetical = User.first_name | User.last_name'
p3164
sI58
S'def name_of(user):'
p3165
sI59
S"\treturn '%(first_name)s %(last_name)s' % user"
p3166
sI60
S''
sI61
S'class NOT_STARTS_WITH(object):'
p3167
sI62
S'\tdef __init__(self, error_message="nao permitido iniciar com %s", letter="a"):'
p3168
sI63
S'\t\tself.error_message = error_message'
p3169
ssg3121
S'(user=<gluon.dal.Field object>)'
p3170
sg3123
S'name_of'
p3171
sa(dp3172
g3100
S'/home/diego/web2py/gluon/dal.py'
p3173
sg3102
(dp3174
S'i'
S"'first_name'"
p3175
sS'self'
p3176
S'<gluon.dal.Field object>'
p3177
ssg3108
I8227
sg3109
(dp3178
I8224
S'                          self, (pos0, length), self.type)'
p3179
sI8225
S''
sI8226
S'    def __getitem__(self, i):'
p3180
sI8227
S'        return self[i:i + 1]'
p3181
sI8228
S''
sI8229
S'    def __str__(self):'
p3182
sI8230
S'        return self.db._adapter.expand(self,self.type)'
p3183
sI8231
S''
sI8222
S"            length = '(%s - %s)' % (stop + 1, pos0)"
p3184
sI8223
S'        return Expression(db,db._adapter.SUBSTRING,'
p3185
ssg3121
S"(self=<gluon.dal.Field object>, i='first_name')"
p3186
sg3123
g20
sasS'pyver'
p3187
S'Python 2.7.3: /usr/bin/python'
p3188
sS'session'
p3189
g57
(g58
g59
NtRp3190
(dp3191
g62
(dp3192
sg64
(lp3193
g57
(g66
g59
NtRp3194
(dp3195
g62
(dp3196
g70
I5
ssg71
Nsg64
(lp3197
g57
(g73
g59
NtRp3198
(dp3199
g62
(dp3200
sg71
g3194
sg64
(lp3201
g57
(g78
g59
NtRp3202
(dp3203
g62
(dp3204
g82
g83
ssg71
g3198
sg64
(lp3205
S'auth'
p3206
asbag57
(g78
g59
NtRp3207
(dp3208
g62
(dp3209
g89
g90
ssg71
g3198
sg64
(lp3210
S':'
asbag57
(g78
g59
NtRp3211
(dp3212
g62
(dp3213
sg71
g3198
sg64
(lp3214
g57
(g58
g59
NtRp3215
(dp3216
g62
(dp3217
g70
I5
ssg71
g3211
sg64
(lp3218
g57
(g66
g59
NtRp3219
(dp3220
g62
(dp3221
g70
I4
ssg71
Nsg64
(lp3222
g57
(g73
g59
NtRp3223
(dp3224
g62
(dp3225
sg71
g3219
sg64
(lp3226
g57
(g78
g59
NtRp3227
(dp3228
g62
(dp3229
g82
g83
ssg71
g3223
sg64
(lp3230
S'expiration'
p3231
asbag57
(g78
g59
NtRp3232
(dp3233
g62
(dp3234
g89
g90
ssg71
g3223
sg64
(lp3235
S':'
asbag57
(g78
g59
NtRp3236
(dp3237
g62
(dp3238
sg71
g3223
sg64
(lp3239
g57
(g58
g59
NtRp3240
(dp3241
g62
(dp3242
g70
I4
ssg71
g3236
sg64
(lp3243
S'3600'
p3244
asbasbasbag57
(g73
g59
NtRp3245
(dp3246
g62
(dp3247
sg71
g3219
sg64
(lp3248
g57
(g78
g59
NtRp3249
(dp3250
g62
(dp3251
g82
g83
ssg71
g3245
sg64
(lp3252
S'hmac_key'
p3253
asbag57
(g78
g59
NtRp3254
(dp3255
g62
(dp3256
g89
g90
ssg71
g3245
sg64
(lp3257
S':'
asbag57
(g78
g59
NtRp3258
(dp3259
g62
(dp3260
sg71
g3245
sg64
(lp3261
g57
(g58
g59
NtRp3262
(dp3263
g62
(dp3264
g70
I4
ssg71
g3258
sg64
(lp3265
S'd2c1eee9-5b2f-466d-92d9-0494c518e759'
p3266
asbasbasbag57
(g73
g59
NtRp3267
(dp3268
g62
(dp3269
sg71
g3219
sg64
(lp3270
g57
(g78
g59
NtRp3271
(dp3272
g62
(dp3273
g82
g83
ssg71
g3267
sg64
(lp3274
S'last_visit'
p3275
asbag57
(g78
g59
NtRp3276
(dp3277
g62
(dp3278
g89
g90
ssg71
g3267
sg64
(lp3279
S':'
asbag57
(g78
g59
NtRp3280
(dp3281
g62
(dp3282
sg71
g3267
sg64
(lp3283
g57
(g58
g59
NtRp3284
(dp3285
g62
(dp3286
g70
I4
ssg71
g3280
sg64
(lp3287
S'datetime.datetime(2013, 1, 30, 17, 33, 14, 165175)'
p3288
asbasbasbag57
(g73
g59
NtRp3289
(dp3290
g62
(dp3291
sg71
g3219
sg64
(lp3292
g57
(g78
g59
NtRp3293
(dp3294
g62
(dp3295
g82
g83
ssg71
g3289
sg64
(lp3296
S'remember'
p3297
asbag57
(g78
g59
NtRp3298
(dp3299
g62
(dp3300
g89
g90
ssg71
g3289
sg64
(lp3301
S':'
asbag57
(g78
g59
NtRp3302
(dp3303
g62
(dp3304
sg71
g3289
sg64
(lp3305
g57
(g58
g59
NtRp3306
(dp3307
g62
(dp3308
g70
I4
ssg71
g3302
sg64
(lp3309
g100
asbasbasbag57
(g73
g59
NtRp3310
(dp3311
g62
(dp3312
sg71
g3219
sg64
(lp3313
g57
(g78
g59
NtRp3314
(dp3315
g62
(dp3316
g82
g83
ssg71
g3310
sg64
(lp3317
S'user'
p3318
asbag57
(g78
g59
NtRp3319
(dp3320
g62
(dp3321
g89
g90
ssg71
g3310
sg64
(lp3322
S':'
asbag57
(g78
g59
NtRp3323
(dp3324
g62
(dp3325
sg71
g3310
sg64
(lp3326
g57
(g58
g59
NtRp3327
(dp3328
g62
(dp3329
g70
I4
ssg71
g3323
sg64
(lp3330
g57
(g66
g59
NtRp3331
(dp3332
g62
(dp3333
g70
I3
ssg71
Nsg64
(lp3334
g57
(g73
g59
NtRp3335
(dp3336
g62
(dp3337
sg71
g3331
sg64
(lp3338
g57
(g78
g59
NtRp3339
(dp3340
g62
(dp3341
g82
g83
ssg71
g3335
sg64
(lp3342
S'avatar'
p3343
asbag57
(g78
g59
NtRp3344
(dp3345
g62
(dp3346
g89
g90
ssg71
g3335
sg64
(lp3347
S':'
asbag57
(g78
g59
NtRp3348
(dp3349
g62
(dp3350
sg71
g3335
sg64
(lp3351
g57
(g58
g59
NtRp3352
(dp3353
g62
(dp3354
g70
I3
ssg71
g3348
sg64
(lp3355
S''
asbasbasbag57
(g73
g59
NtRp3356
(dp3357
g62
(dp3358
sg71
g3331
sg64
(lp3359
g57
(g78
g59
NtRp3360
(dp3361
g62
(dp3362
g82
g83
ssg71
g3356
sg64
(lp3363
S'email'
p3364
asbag57
(g78
g59
NtRp3365
(dp3366
g62
(dp3367
g89
g90
ssg71
g3356
sg64
(lp3368
S':'
asbag57
(g78
g59
NtRp3369
(dp3370
g62
(dp3371
sg71
g3356
sg64
(lp3372
g57
(g58
g59
NtRp3373
(dp3374
g62
(dp3375
g70
I3
ssg71
g3369
sg64
(lp3376
S'diego@teste.com'
p3377
asbasbasbag57
(g73
g59
NtRp3378
(dp3379
g62
(dp3380
sg71
g3331
sg64
(lp3381
g57
(g78
g59
NtRp3382
(dp3383
g62
(dp3384
g82
g83
ssg71
g3378
sg64
(lp3385
S'first_name'
p3386
asbag57
(g78
g59
NtRp3387
(dp3388
g62
(dp3389
g89
g90
ssg71
g3378
sg64
(lp3390
S':'
asbag57
(g78
g59
NtRp3391
(dp3392
g62
(dp3393
sg71
g3378
sg64
(lp3394
g57
(g58
g59
NtRp3395
(dp3396
g62
(dp3397
g70
I3
ssg71
g3391
sg64
(lp3398
S'diego'
p3399
asbasbasbag57
(g73
g59
NtRp3400
(dp3401
g62
(dp3402
sg71
g3331
sg64
(lp3403
g57
(g78
g59
NtRp3404
(dp3405
g62
(dp3406
g82
g83
ssg71
g3400
sg64
(lp3407
S'id'
p3408
asbag57
(g78
g59
NtRp3409
(dp3410
g62
(dp3411
g89
g90
ssg71
g3400
sg64
(lp3412
S':'
asbag57
(g78
g59
NtRp3413
(dp3414
g62
(dp3415
sg71
g3400
sg64
(lp3416
g57
(g58
g59
NtRp3417
(dp3418
g62
(dp3419
g70
I3
ssg71
g3413
sg64
(lp3420
S'1'
asbasbasbag57
(g73
g59
NtRp3421
(dp3422
g62
(dp3423
sg71
g3331
sg64
(lp3424
g57
(g78
g59
NtRp3425
(dp3426
g62
(dp3427
g82
g83
ssg71
g3421
sg64
(lp3428
S'last_name'
p3429
asbag57
(g78
g59
NtRp3430
(dp3431
g62
(dp3432
g89
g90
ssg71
g3421
sg64
(lp3433
S':'
asbag57
(g78
g59
NtRp3434
(dp3435
g62
(dp3436
sg71
g3421
sg64
(lp3437
g57
(g58
g59
NtRp3438
(dp3439
g62
(dp3440
g70
I3
ssg71
g3434
sg64
(lp3441
S'miranda'
p3442
asbasbasbag57
(g73
g59
NtRp3443
(dp3444
g62
(dp3445
sg71
g3331
sg64
(lp3446
g57
(g78
g59
NtRp3447
(dp3448
g62
(dp3449
g82
g83
ssg71
g3443
sg64
(lp3450
S'registration_id'
p3451
asbag57
(g78
g59
NtRp3452
(dp3453
g62
(dp3454
g89
g90
ssg71
g3443
sg64
(lp3455
S':'
asbag57
(g78
g59
NtRp3456
(dp3457
g62
(dp3458
sg71
g3443
sg64
(lp3459
g57
(g58
g59
NtRp3460
(dp3461
g62
(dp3462
g70
I3
ssg71
g3456
sg64
(lp3463
S''
asbasbasbag57
(g73
g59
NtRp3464
(dp3465
g62
(dp3466
sg71
g3331
sg64
(lp3467
g57
(g78
g59
NtRp3468
(dp3469
g62
(dp3470
g82
g83
ssg71
g3464
sg64
(lp3471
S'registration_key'
p3472
asbag57
(g78
g59
NtRp3473
(dp3474
g62
(dp3475
g89
g90
ssg71
g3464
sg64
(lp3476
S':'
asbag57
(g78
g59
NtRp3477
(dp3478
g62
(dp3479
sg71
g3464
sg64
(lp3480
g57
(g58
g59
NtRp3481
(dp3482
g62
(dp3483
g70
I3
ssg71
g3477
sg64
(lp3484
S''
asbasbasbag57
(g73
g59
NtRp3485
(dp3486
g62
(dp3487
sg71
g3331
sg64
(lp3488
g57
(g78
g59
NtRp3489
(dp3490
g62
(dp3491
g82
g83
ssg71
g3485
sg64
(lp3492
S'reset_password_key'
p3493
asbag57
(g78
g59
NtRp3494
(dp3495
g62
(dp3496
g89
g90
ssg71
g3485
sg64
(lp3497
S':'
asbag57
(g78
g59
NtRp3498
(dp3499
g62
(dp3500
sg71
g3485
sg64
(lp3501
g57
(g58
g59
NtRp3502
(dp3503
g62
(dp3504
g70
I3
ssg71
g3498
sg64
(lp3505
S''
asbasbasbag57
(g73
g59
NtRp3506
(dp3507
g62
(dp3508
sg71
g3331
sg64
(lp3509
g57
(g78
g59
NtRp3510
(dp3511
g62
(dp3512
g82
g83
ssg71
g3506
sg64
(lp3513
S'thumbnail'
p3514
asbag57
(g78
g59
NtRp3515
(dp3516
g62
(dp3517
g89
g90
ssg71
g3506
sg64
(lp3518
S':'
asbag57
(g78
g59
NtRp3519
(dp3520
g62
(dp3521
sg71
g3506
sg64
(lp3522
g57
(g58
g59
NtRp3523
(dp3524
g62
(dp3525
g70
I3
ssg71
g3519
sg64
(lp3526
S''
asbasbasbasbasbasbasbag57
(g73
g59
NtRp3527
(dp3528
g62
(dp3529
sg71
g3219
sg64
(lp3530
g57
(g78
g59
NtRp3531
(dp3532
g62
(dp3533
g82
g83
ssg71
g3527
sg64
(lp3534
S'user_groups'
p3535
asbag57
(g78
g59
NtRp3536
(dp3537
g62
(dp3538
g89
g90
ssg71
g3527
sg64
(lp3539
S':'
asbag57
(g78
g59
NtRp3540
(dp3541
g62
(dp3542
sg71
g3527
sg64
(lp3543
g57
(g58
g59
NtRp3544
(dp3545
g62
(dp3546
g70
I4
ssg71
g3540
sg64
(lp3547
g57
(g66
g59
NtRp3548
(dp3549
g62
(dp3550
g70
I3
ssg71
Nsg64
(lp3551
sbasbasbasbasbasbasbasbag57
(g73
g59
NtRp3552
(dp3553
g62
(dp3554
sg71
g3194
sg64
(lp3555
g57
(g78
g59
NtRp3556
(dp3557
g62
(dp3558
g82
g83
ssg71
g3552
sg64
(lp3559
S'flash'
p3560
asbag57
(g78
g59
NtRp3561
(dp3562
g62
(dp3563
g89
g90
ssg71
g3552
sg64
(lp3564
S':'
asbag57
(g78
g59
NtRp3565
(dp3566
g62
(dp3567
sg71
g3552
sg64
(lp3568
g57
(g58
g59
NtRp3569
(dp3570
g62
(dp3571
g70
I5
ssg71
g3565
sg64
(lp3572
S'None'
p3573
asbasbasbag57
(g73
g59
NtRp3574
(dp3575
g62
(dp3576
sg71
g3194
sg64
(lp3577
g57
(g78
g59
NtRp3578
(dp3579
g62
(dp3580
g82
g83
ssg71
g3574
sg64
(lp3581
S'last_orderby'
p3582
asbag57
(g78
g59
NtRp3583
(dp3584
g62
(dp3585
g89
g90
ssg71
g3574
sg64
(lp3586
S':'
asbag57
(g78
g59
NtRp3587
(dp3588
g62
(dp3589
sg71
g3574
sg64
(lp3590
g57
(g58
g59
NtRp3591
(dp3592
g62
(dp3593
g70
I5
ssg71
g3587
sg64
(lp3594
S'None'
p3595
asbasbasbag57
(g73
g59
NtRp3596
(dp3597
g62
(dp3598
sg71
g3194
sg64
(lp3599
g57
(g78
g59
NtRp3600
(dp3601
g62
(dp3602
g82
g83
ssg71
g3596
sg64
(lp3603
S'last_query'
p3604
asbag57
(g78
g59
NtRp3605
(dp3606
g62
(dp3607
g89
g90
ssg71
g3596
sg64
(lp3608
S':'
asbag57
(g78
g59
NtRp3609
(dp3610
g62
(dp3611
sg71
g3596
sg64
(lp3612
g57
(g58
g59
NtRp3613
(dp3614
g62
(dp3615
g70
I5
ssg71
g3609
sg64
(lp3616
S'db.auth_user.id>0'
p3617
asbasbasbasbasbsS'etype'
p3618
S"<type 'exceptions.TypeError'>"
p3619
sS'date'
p3620
S'Wed Jan 30 17:33:14 2013'
p3621
sS'response'
p3622
g57
(g58
g59
NtRp3623
(dp3624
g62
(dp3625
sg64
(lp3626
g57
(g66
g59
NtRp3627
(dp3628
g62
(dp3629
g70
I5
ssg71
Nsg64
(lp3630
g57
(g73
g59
NtRp3631
(dp3632
g62
(dp3633
sg71
g3627
sg64
(lp3634
g57
(g78
g59
NtRp3635
(dp3636
g62
(dp3637
g82
g83
ssg71
g3631
sg64
(lp3638
g155
asbag57
(g78
g59
NtRp3639
(dp3640
g62
(dp3641
g89
g90
ssg71
g3631
sg64
(lp3642
S':'
asbag57
(g78
g59
NtRp3643
(dp3644
g62
(dp3645
sg71
g3631
sg64
(lp3646
g57
(g58
g59
NtRp3647
(dp3648
g62
(dp3649
g70
I5
ssg71
g3643
sg64
(lp3650
S'<cStringIO.StringO object at 0x7f02ec47a650>'
p3651
asbasbasbag57
(g73
g59
NtRp3652
(dp3653
g62
(dp3654
sg71
g3627
sg64
(lp3655
g57
(g78
g59
NtRp3656
(dp3657
g62
(dp3658
g82
g83
ssg71
g3652
sg64
(lp3659
g243
asbag57
(g78
g59
NtRp3660
(dp3661
g62
(dp3662
g89
g90
ssg71
g3652
sg64
(lp3663
S':'
asbag57
(g78
g59
NtRp3664
(dp3665
g62
(dp3666
sg71
g3652
sg64
(lp3667
g57
(g58
g59
NtRp3668
(dp3669
g62
(dp3670
g70
I5
ssg71
g3664
sg64
(lp3671
g57
(g66
g59
NtRp3672
(dp3673
g62
(dp3674
g70
I4
ssg71
Nsg64
(lp3675
g57
(g73
g59
NtRp3676
(dp3677
g62
(dp3678
sg71
g3672
sg64
(lp3679
g57
(g78
g59
NtRp3680
(dp3681
g62
(dp3682
g82
g83
ssg71
g3676
sg64
(lp3683
S'session_id_irecycle'
p3684
asbag57
(g78
g59
NtRp3685
(dp3686
g62
(dp3687
g89
g90
ssg71
g3676
sg64
(lp3688
S':'
asbag57
(g78
g59
NtRp3689
(dp3690
g62
(dp3691
sg71
g3676
sg64
(lp3692
g57
(g58
g59
NtRp3693
(dp3694
g62
(dp3695
g70
I4
ssg71
g3689
sg64
(lp3696
g475
ag57
(g66
g59
NtRp3697
(dp3698
g62
(dp3699
g70
I3
ssg71
Nsg64
(lp3700
g57
(g73
g59
NtRp3701
(dp3702
g62
(dp3703
sg71
g3697
sg64
(lp3704
g57
(g78
g59
NtRp3705
(dp3706
g62
(dp3707
g82
g83
ssg71
g3701
sg64
(lp3708
g294
asbag57
(g78
g59
NtRp3709
(dp3710
g62
(dp3711
g89
g90
ssg71
g3701
sg64
(lp3712
S':'
asbag57
(g78
g59
NtRp3713
(dp3714
g62
(dp3715
sg71
g3701
sg64
(lp3716
g57
(g58
g59
NtRp3717
(dp3718
g62
(dp3719
g70
I3
ssg71
g3713
sg64
(lp3720
S''
asbasbasbag57
(g73
g59
NtRp3721
(dp3722
g62
(dp3723
sg71
g3697
sg64
(lp3724
g57
(g78
g59
NtRp3725
(dp3726
g62
(dp3727
g82
g83
ssg71
g3721
sg64
(lp3728
g315
asbag57
(g78
g59
NtRp3729
(dp3730
g62
(dp3731
g89
g90
ssg71
g3721
sg64
(lp3732
S':'
asbag57
(g78
g59
NtRp3733
(dp3734
g62
(dp3735
sg71
g3721
sg64
(lp3736
g57
(g58
g59
NtRp3737
(dp3738
g62
(dp3739
g70
I3
ssg71
g3733
sg64
(lp3740
S''
asbasbasbag57
(g73
g59
NtRp3741
(dp3742
g62
(dp3743
sg71
g3697
sg64
(lp3744
g57
(g78
g59
NtRp3745
(dp3746
g62
(dp3747
g82
g83
ssg71
g3741
sg64
(lp3748
g336
asbag57
(g78
g59
NtRp3749
(dp3750
g62
(dp3751
g89
g90
ssg71
g3741
sg64
(lp3752
S':'
asbag57
(g78
g59
NtRp3753
(dp3754
g62
(dp3755
sg71
g3741
sg64
(lp3756
g57
(g58
g59
NtRp3757
(dp3758
g62
(dp3759
g70
I3
ssg71
g3753
sg64
(lp3760
S''
asbasbasbag57
(g73
g59
NtRp3761
(dp3762
g62
(dp3763
sg71
g3697
sg64
(lp3764
g57
(g78
g59
NtRp3765
(dp3766
g62
(dp3767
g82
g83
ssg71
g3761
sg64
(lp3768
g357
asbag57
(g78
g59
NtRp3769
(dp3770
g62
(dp3771
g89
g90
ssg71
g3761
sg64
(lp3772
S':'
asbag57
(g78
g59
NtRp3773
(dp3774
g62
(dp3775
sg71
g3761
sg64
(lp3776
g57
(g58
g59
NtRp3777
(dp3778
g62
(dp3779
g70
I3
ssg71
g3773
sg64
(lp3780
S''
asbasbasbag57
(g73
g59
NtRp3781
(dp3782
g62
(dp3783
sg71
g3697
sg64
(lp3784
g57
(g78
g59
NtRp3785
(dp3786
g62
(dp3787
g82
g83
ssg71
g3781
sg64
(lp3788
g378
asbag57
(g78
g59
NtRp3789
(dp3790
g62
(dp3791
g89
g90
ssg71
g3781
sg64
(lp3792
S':'
asbag57
(g78
g59
NtRp3793
(dp3794
g62
(dp3795
sg71
g3781
sg64
(lp3796
g57
(g58
g59
NtRp3797
(dp3798
g62
(dp3799
g70
I3
ssg71
g3793
sg64
(lp3800
S''
asbasbasbag57
(g73
g59
NtRp3801
(dp3802
g62
(dp3803
sg71
g3697
sg64
(lp3804
g57
(g78
g59
NtRp3805
(dp3806
g62
(dp3807
g82
g83
ssg71
g3801
sg64
(lp3808
g399
asbag57
(g78
g59
NtRp3809
(dp3810
g62
(dp3811
g89
g90
ssg71
g3801
sg64
(lp3812
S':'
asbag57
(g78
g59
NtRp3813
(dp3814
g62
(dp3815
sg71
g3801
sg64
(lp3816
g57
(g58
g59
NtRp3817
(dp3818
g62
(dp3819
g70
I3
ssg71
g3813
sg64
(lp3820
S'/'
asbasbasbag57
(g73
g59
NtRp3821
(dp3822
g62
(dp3823
sg71
g3697
sg64
(lp3824
g57
(g78
g59
NtRp3825
(dp3826
g62
(dp3827
g82
g83
ssg71
g3821
sg64
(lp3828
g420
asbag57
(g78
g59
NtRp3829
(dp3830
g62
(dp3831
g89
g90
ssg71
g3821
sg64
(lp3832
S':'
asbag57
(g78
g59
NtRp3833
(dp3834
g62
(dp3835
sg71
g3821
sg64
(lp3836
g57
(g58
g59
NtRp3837
(dp3838
g62
(dp3839
g70
I3
ssg71
g3833
sg64
(lp3840
S''
asbasbasbag57
(g73
g59
NtRp3841
(dp3842
g62
(dp3843
sg71
g3697
sg64
(lp3844
g57
(g78
g59
NtRp3845
(dp3846
g62
(dp3847
g82
g83
ssg71
g3841
sg64
(lp3848
g441
asbag57
(g78
g59
NtRp3849
(dp3850
g62
(dp3851
g89
g90
ssg71
g3841
sg64
(lp3852
S':'
asbag57
(g78
g59
NtRp3853
(dp3854
g62
(dp3855
sg71
g3841
sg64
(lp3856
g57
(g58
g59
NtRp3857
(dp3858
g62
(dp3859
g70
I3
ssg71
g3853
sg64
(lp3860
S''
asbasbasbasbasbasbasbasbasbasbasbag57
(g73
g59
NtRp3861
(dp3862
g62
(dp3863
sg71
g3627
sg64
(lp3864
g57
(g78
g59
NtRp3865
(dp3866
g62
(dp3867
g82
g83
ssg71
g3861
sg64
(lp3868
S'delimiters'
p3869
asbag57
(g78
g59
NtRp3870
(dp3871
g62
(dp3872
g89
g90
ssg71
g3861
sg64
(lp3873
S':'
asbag57
(g78
g59
NtRp3874
(dp3875
g62
(dp3876
sg71
g3861
sg64
(lp3877
g57
(g58
g59
NtRp3878
(dp3879
g62
(dp3880
g70
I5
ssg71
g3874
sg64
(lp3881
g57
(g66
g59
NtRp3882
(dp3883
g62
(dp3884
g70
I4
ssg71
Nsg64
(lp3885
g57
(g73
g59
NtRp3886
(dp3887
g62
(dp3888
sg71
g3882
sg64
(lp3889
g57
(g78
g59
NtRp3890
(dp3891
g62
(dp3892
sg71
g3886
sg64
(lp3893
g57
(g58
g59
NtRp3894
(dp3895
g62
(dp3896
g70
I4
ssg71
g3890
sg64
(lp3897
S'{{'
p3898
asbasbasbag57
(g73
g59
NtRp3899
(dp3900
g62
(dp3901
sg71
g3882
sg64
(lp3902
g57
(g78
g59
NtRp3903
(dp3904
g62
(dp3905
sg71
g3899
sg64
(lp3906
g57
(g58
g59
NtRp3907
(dp3908
g62
(dp3909
g70
I4
ssg71
g3903
sg64
(lp3910
S'}}'
p3911
asbasbasbasbasbasbasbag57
(g73
g59
NtRp3912
(dp3913
g62
(dp3914
sg71
g3627
sg64
(lp3915
g57
(g78
g59
NtRp3916
(dp3917
g62
(dp3918
g82
g83
ssg71
g3912
sg64
(lp3919
S'files'
p3920
asbag57
(g78
g59
NtRp3921
(dp3922
g62
(dp3923
g89
g90
ssg71
g3912
sg64
(lp3924
S':'
asbag57
(g78
g59
NtRp3925
(dp3926
g62
(dp3927
sg71
g3912
sg64
(lp3928
g57
(g58
g59
NtRp3929
(dp3930
g62
(dp3931
g70
I5
ssg71
g3925
sg64
(lp3932
g57
(g66
g59
NtRp3933
(dp3934
g62
(dp3935
g70
I4
ssg71
Nsg64
(lp3936
g57
(g73
g59
NtRp3937
(dp3938
g62
(dp3939
sg71
g3933
sg64
(lp3940
g57
(g78
g59
NtRp3941
(dp3942
g62
(dp3943
sg71
g3937
sg64
(lp3944
g57
(g58
g59
NtRp3945
(dp3946
g62
(dp3947
g70
I4
ssg71
g3941
sg64
(lp3948
S'/irecycle/static/js/jquery.js'
p3949
asbasbasbag57
(g73
g59
NtRp3950
(dp3951
g62
(dp3952
sg71
g3933
sg64
(lp3953
g57
(g78
g59
NtRp3954
(dp3955
g62
(dp3956
sg71
g3950
sg64
(lp3957
g57
(g58
g59
NtRp3958
(dp3959
g62
(dp3960
g70
I4
ssg71
g3954
sg64
(lp3961
S'/irecycle/static/css/calendar.css'
p3962
asbasbasbag57
(g73
g59
NtRp3963
(dp3964
g62
(dp3965
sg71
g3933
sg64
(lp3966
g57
(g78
g59
NtRp3967
(dp3968
g62
(dp3969
sg71
g3963
sg64
(lp3970
g57
(g58
g59
NtRp3971
(dp3972
g62
(dp3973
g70
I4
ssg71
g3967
sg64
(lp3974
S'/irecycle/static/js/calendar.js'
p3975
asbasbasbag57
(g73
g59
NtRp3976
(dp3977
g62
(dp3978
sg71
g3933
sg64
(lp3979
g57
(g78
g59
NtRp3980
(dp3981
g62
(dp3982
sg71
g3976
sg64
(lp3983
g57
(g58
g59
NtRp3984
(dp3985
g62
(dp3986
g70
I4
ssg71
g3980
sg64
(lp3987
S'/irecycle/static/js/web2py.js'
p3988
asbasbasbasbasbasbasbag57
(g73
g59
NtRp3989
(dp3990
g62
(dp3991
sg71
g3627
sg64
(lp3992
g57
(g78
g59
NtRp3993
(dp3994
g62
(dp3995
g82
g83
ssg71
g3989
sg64
(lp3996
S'flash'
p3997
asbag57
(g78
g59
NtRp3998
(dp3999
g62
(dp4000
g89
g90
ssg71
g3989
sg64
(lp4001
S':'
asbag57
(g78
g59
NtRp4002
(dp4003
g62
(dp4004
sg71
g3989
sg64
(lp4005
g57
(g58
g59
NtRp4006
(dp4007
g62
(dp4008
g70
I5
ssg71
g4002
sg64
(lp4009
S''
asbasbasbag57
(g73
g59
NtRp4010
(dp4011
g62
(dp4012
sg71
g3627
sg64
(lp4013
g57
(g78
g59
NtRp4014
(dp4015
g62
(dp4016
g82
g83
ssg71
g4010
sg64
(lp4017
S'generic_patterns'
p4018
asbag57
(g78
g59
NtRp4019
(dp4020
g62
(dp4021
g89
g90
ssg71
g4010
sg64
(lp4022
S':'
asbag57
(g78
g59
NtRp4023
(dp4024
g62
(dp4025
sg71
g4010
sg64
(lp4026
g57
(g58
g59
NtRp4027
(dp4028
g62
(dp4029
g70
I5
ssg71
g4023
sg64
(lp4030
g57
(g66
g59
NtRp4031
(dp4032
g62
(dp4033
g70
I4
ssg71
Nsg64
(lp4034
g57
(g73
g59
NtRp4035
(dp4036
g62
(dp4037
sg71
g4031
sg64
(lp4038
g57
(g78
g59
NtRp4039
(dp4040
g62
(dp4041
sg71
g4035
sg64
(lp4042
g57
(g58
g59
NtRp4043
(dp4044
g62
(dp4045
g70
I4
ssg71
g4039
sg64
(lp4046
S'*'
asbasbasbasbasbasbasbag57
(g73
g59
NtRp4047
(dp4048
g62
(dp4049
sg71
g3627
sg64
(lp4050
g57
(g78
g59
NtRp4051
(dp4052
g62
(dp4053
g82
g83
ssg71
g4047
sg64
(lp4054
S'headers'
p4055
asbag57
(g78
g59
NtRp4056
(dp4057
g62
(dp4058
g89
g90
ssg71
g4047
sg64
(lp4059
S':'
asbag57
(g78
g59
NtRp4060
(dp4061
g62
(dp4062
sg71
g4047
sg64
(lp4063
g57
(g58
g59
NtRp4064
(dp4065
g62
(dp4066
g70
I5
ssg71
g4060
sg64
(lp4067
g57
(g66
g59
NtRp4068
(dp4069
g62
(dp4070
g70
I4
ssg71
Nsg64
(lp4071
g57
(g73
g59
NtRp4072
(dp4073
g62
(dp4074
sg71
g4068
sg64
(lp4075
g57
(g78
g59
NtRp4076
(dp4077
g62
(dp4078
g82
g83
ssg71
g4072
sg64
(lp4079
S'X-Powered-By'
p4080
asbag57
(g78
g59
NtRp4081
(dp4082
g62
(dp4083
g89
g90
ssg71
g4072
sg64
(lp4084
S':'
asbag57
(g78
g59
NtRp4085
(dp4086
g62
(dp4087
sg71
g4072
sg64
(lp4088
g57
(g58
g59
NtRp4089
(dp4090
g62
(dp4091
g70
I4
ssg71
g4085
sg64
(lp4092
S'web2py'
p4093
asbasbasbasbasbasbasbag57
(g73
g59
NtRp4094
(dp4095
g62
(dp4096
sg71
g3627
sg64
(lp4097
g57
(g78
g59
NtRp4098
(dp4099
g62
(dp4100
g82
g83
ssg71
g4094
sg64
(lp4101
S'menu'
p4102
asbag57
(g78
g59
NtRp4103
(dp4104
g62
(dp4105
g89
g90
ssg71
g4094
sg64
(lp4106
S':'
asbag57
(g78
g59
NtRp4107
(dp4108
g62
(dp4109
sg71
g4094
sg64
(lp4110
g57
(g58
g59
NtRp4111
(dp4112
g62
(dp4113
g70
I5
ssg71
g4107
sg64
(lp4114
g57
(g66
g59
NtRp4115
(dp4116
g62
(dp4117
g70
I4
ssg71
Nsg64
(lp4118
g57
(g73
g59
NtRp4119
(dp4120
g62
(dp4121
sg71
g4115
sg64
(lp4122
g57
(g78
g59
NtRp4123
(dp4124
g62
(dp4125
sg71
g4119
sg64
(lp4126
g57
(g58
g59
NtRp4127
(dp4128
g62
(dp4129
g70
I4
ssg71
g4123
sg64
(lp4130
g57
(g66
g59
NtRp4131
(dp4132
g62
(dp4133
g70
I3
ssg71
Nsg64
(lp4134
g57
(g73
g59
NtRp4135
(dp4136
g62
(dp4137
sg71
g4131
sg64
(lp4138
g57
(g78
g59
NtRp4139
(dp4140
g62
(dp4141
sg71
g4135
sg64
(lp4142
g57
(g58
g59
NtRp4143
(dp4144
g62
(dp4145
g70
I3
ssg71
g4139
sg64
(lp4146
cgluon.languages
lazyT_unpickle
p4147
(S't\x04\x00\x00\x00Home'
tRp4148
asbasbasbag57
(g73
g59
NtRp4149
(dp4150
g62
(dp4151
sg71
g4131
sg64
(lp4152
g57
(g78
g59
NtRp4153
(dp4154
g62
(dp4155
sg71
g4149
sg64
(lp4156
g57
(g58
g59
NtRp4157
(dp4158
g62
(dp4159
g70
I3
ssg71
g4153
sg64
(lp4160
g100
asbasbasbag57
(g73
g59
NtRp4161
(dp4162
g62
(dp4163
sg71
g4131
sg64
(lp4164
g57
(g78
g59
NtRp4165
(dp4166
g62
(dp4167
sg71
g4161
sg64
(lp4168
g57
(g58
g59
NtRp4169
(dp4170
g62
(dp4171
g70
I3
ssg71
g4165
sg64
(lp4172
S'/irecycle/default/home'
p4173
asbasbasbasbasbasbasbag57
(g73
g59
NtRp4174
(dp4175
g62
(dp4176
sg71
g4115
sg64
(lp4177
g57
(g78
g59
NtRp4178
(dp4179
g62
(dp4180
sg71
g4174
sg64
(lp4181
g57
(g58
g59
NtRp4182
(dp4183
g62
(dp4184
g70
I4
ssg71
g4178
sg64
(lp4185
g57
(g66
g59
NtRp4186
(dp4187
g62
(dp4188
g70
I3
ssg71
Nsg64
(lp4189
g57
(g73
g59
NtRp4190
(dp4191
g62
(dp4192
sg71
g4186
sg64
(lp4193
g57
(g78
g59
NtRp4194
(dp4195
g62
(dp4196
sg71
g4190
sg64
(lp4197
g57
(g58
g59
NtRp4198
(dp4199
g62
(dp4200
g70
I3
ssg71
g4194
sg64
(lp4201
g4147
(S't\x04\x00\x00\x00Wall'
tRp4202
asbasbasbag57
(g73
g59
NtRp4203
(dp4204
g62
(dp4205
sg71
g4186
sg64
(lp4206
g57
(g78
g59
NtRp4207
(dp4208
g62
(dp4209
sg71
g4203
sg64
(lp4210
g57
(g58
g59
NtRp4211
(dp4212
g62
(dp4213
g70
I3
ssg71
g4207
sg64
(lp4214
g100
asbasbasbag57
(g73
g59
NtRp4215
(dp4216
g62
(dp4217
sg71
g4186
sg64
(lp4218
g57
(g78
g59
NtRp4219
(dp4220
g62
(dp4221
sg71
g4215
sg64
(lp4222
g57
(g58
g59
NtRp4223
(dp4224
g62
(dp4225
g70
I3
ssg71
g4219
sg64
(lp4226
S'/irecycle/default/wall'
p4227
asbasbasbasbasbasbasbag57
(g73
g59
NtRp4228
(dp4229
g62
(dp4230
sg71
g4115
sg64
(lp4231
g57
(g78
g59
NtRp4232
(dp4233
g62
(dp4234
sg71
g4228
sg64
(lp4235
g57
(g58
g59
NtRp4236
(dp4237
g62
(dp4238
g70
I4
ssg71
g4232
sg64
(lp4239
g57
(g66
g59
NtRp4240
(dp4241
g62
(dp4242
g70
I3
ssg71
Nsg64
(lp4243
g57
(g73
g59
NtRp4244
(dp4245
g62
(dp4246
sg71
g4240
sg64
(lp4247
g57
(g78
g59
NtRp4248
(dp4249
g62
(dp4250
sg71
g4244
sg64
(lp4251
g57
(g58
g59
NtRp4252
(dp4253
g62
(dp4254
g70
I3
ssg71
g4248
sg64
(lp4255
g4147
(S't\x07\x00\x00\x00Friends'
tRp4256
asbasbasbag57
(g73
g59
NtRp4257
(dp4258
g62
(dp4259
sg71
g4240
sg64
(lp4260
g57
(g78
g59
NtRp4261
(dp4262
g62
(dp4263
sg71
g4257
sg64
(lp4264
g57
(g58
g59
NtRp4265
(dp4266
g62
(dp4267
g70
I3
ssg71
g4261
sg64
(lp4268
g100
asbasbasbag57
(g73
g59
NtRp4269
(dp4270
g62
(dp4271
sg71
g4240
sg64
(lp4272
g57
(g78
g59
NtRp4273
(dp4274
g62
(dp4275
sg71
g4269
sg64
(lp4276
g57
(g58
g59
NtRp4277
(dp4278
g62
(dp4279
g70
I3
ssg71
g4273
sg64
(lp4280
S'/irecycle/default/friends'
p4281
asbasbasbasbasbasbasbag57
(g73
g59
NtRp4282
(dp4283
g62
(dp4284
sg71
g4115
sg64
(lp4285
g57
(g78
g59
NtRp4286
(dp4287
g62
(dp4288
sg71
g4282
sg64
(lp4289
g57
(g58
g59
NtRp4290
(dp4291
g62
(dp4292
g70
I4
ssg71
g4286
sg64
(lp4293
g57
(g66
g59
NtRp4294
(dp4295
g62
(dp4296
g70
I3
ssg71
Nsg64
(lp4297
g57
(g73
g59
NtRp4298
(dp4299
g62
(dp4300
sg71
g4294
sg64
(lp4301
g57
(g78
g59
NtRp4302
(dp4303
g62
(dp4304
sg71
g4298
sg64
(lp4305
g57
(g58
g59
NtRp4306
(dp4307
g62
(dp4308
g70
I3
ssg71
g4302
sg64
(lp4309
g4147
(S't\x06\x00\x00\x00Search'
tRp4310
asbasbasbag57
(g73
g59
NtRp4311
(dp4312
g62
(dp4313
sg71
g4294
sg64
(lp4314
g57
(g78
g59
NtRp4315
(dp4316
g62
(dp4317
sg71
g4311
sg64
(lp4318
g57
(g58
g59
NtRp4319
(dp4320
g62
(dp4321
g70
I3
ssg71
g4315
sg64
(lp4322
g100
asbasbasbag57
(g73
g59
NtRp4323
(dp4324
g62
(dp4325
sg71
g4294
sg64
(lp4326
g57
(g78
g59
NtRp4327
(dp4328
g62
(dp4329
sg71
g4323
sg64
(lp4330
g57
(g58
g59
NtRp4331
(dp4332
g62
(dp4333
g70
I3
ssg71
g4327
sg64
(lp4334
S'/irecycle/default/search'
p4335
asbasbasbasbasbasbasbasbasbasbasbag57
(g73
g59
NtRp4336
(dp4337
g62
(dp4338
sg71
g3627
sg64
(lp4339
g57
(g78
g59
NtRp4340
(dp4341
g62
(dp4342
g82
g83
ssg71
g4336
sg64
(lp4343
S'meta'
p4344
asbag57
(g78
g59
NtRp4345
(dp4346
g62
(dp4347
g89
g90
ssg71
g4336
sg64
(lp4348
S':'
asbag57
(g78
g59
NtRp4349
(dp4350
g62
(dp4351
sg71
g4336
sg64
(lp4352
g57
(g58
g59
NtRp4353
(dp4354
g62
(dp4355
g70
I5
ssg71
g4349
sg64
(lp4356
g57
(g66
g59
NtRp4357
(dp4358
g62
(dp4359
g70
I4
ssg71
Nsg64
(lp4360
g57
(g73
g59
NtRp4361
(dp4362
g62
(dp4363
sg71
g4357
sg64
(lp4364
g57
(g78
g59
NtRp4365
(dp4366
g62
(dp4367
g82
g83
ssg71
g4361
sg64
(lp4368
S'author'
p4369
asbag57
(g78
g59
NtRp4370
(dp4371
g62
(dp4372
g89
g90
ssg71
g4361
sg64
(lp4373
S':'
asbag57
(g78
g59
NtRp4374
(dp4375
g62
(dp4376
sg71
g4361
sg64
(lp4377
g57
(g58
g59
NtRp4378
(dp4379
g62
(dp4380
g70
I4
ssg71
g4374
sg64
(lp4381
S'Diego Miranda'
p4382
asbasbasbag57
(g73
g59
NtRp4383
(dp4384
g62
(dp4385
sg71
g4357
sg64
(lp4386
g57
(g78
g59
NtRp4387
(dp4388
g62
(dp4389
g82
g83
ssg71
g4383
sg64
(lp4390
S'copyright'
p4391
asbag57
(g78
g59
NtRp4392
(dp4393
g62
(dp4394
g89
g90
ssg71
g4383
sg64
(lp4395
S':'
asbag57
(g78
g59
NtRp4396
(dp4397
g62
(dp4398
sg71
g4383
sg64
(lp4399
g57
(g58
g59
NtRp4400
(dp4401
g62
(dp4402
g70
I4
ssg71
g4396
sg64
(lp4403
S'DSMTech Copyright 2012'
p4404
asbasbasbag57
(g73
g59
NtRp4405
(dp4406
g62
(dp4407
sg71
g4357
sg64
(lp4408
g57
(g78
g59
NtRp4409
(dp4410
g62
(dp4411
g82
g83
ssg71
g4405
sg64
(lp4412
S'description'
p4413
asbag57
(g78
g59
NtRp4414
(dp4415
g62
(dp4416
g89
g90
ssg71
g4405
sg64
(lp4417
S':'
asbag57
(g78
g59
NtRp4418
(dp4419
g62
(dp4420
sg71
g4405
sg64
(lp4421
g57
(g58
g59
NtRp4422
(dp4423
g62
(dp4424
g70
I4
ssg71
g4418
sg64
(lp4425
S'App for recycling trash'
p4426
asbasbasbag57
(g73
g59
NtRp4427
(dp4428
g62
(dp4429
sg71
g4357
sg64
(lp4430
g57
(g78
g59
NtRp4431
(dp4432
g62
(dp4433
g82
g83
ssg71
g4427
sg64
(lp4434
S'generator'
p4435
asbag57
(g78
g59
NtRp4436
(dp4437
g62
(dp4438
g89
g90
ssg71
g4427
sg64
(lp4439
S':'
asbag57
(g78
g59
NtRp4440
(dp4441
g62
(dp4442
sg71
g4427
sg64
(lp4443
g57
(g58
g59
NtRp4444
(dp4445
g62
(dp4446
g70
I4
ssg71
g4440
sg64
(lp4447
S'web2py web framework'
p4448
asbasbasbag57
(g73
g59
NtRp4449
(dp4450
g62
(dp4451
sg71
g4357
sg64
(lp4452
g57
(g78
g59
NtRp4453
(dp4454
g62
(dp4455
g82
g83
ssg71
g4449
sg64
(lp4456
S'keywords'
p4457
asbag57
(g78
g59
NtRp4458
(dp4459
g62
(dp4460
g89
g90
ssg71
g4449
sg64
(lp4461
S':'
asbag57
(g78
g59
NtRp4462
(dp4463
g62
(dp4464
sg71
g4449
sg64
(lp4465
g57
(g58
g59
NtRp4466
(dp4467
g62
(dp4468
g70
I4
ssg71
g4462
sg64
(lp4469
S'web2py, python framework'
p4470
asbasbasbasbasbasbasbag57
(g73
g59
NtRp4471
(dp4472
g62
(dp4473
sg71
g3627
sg64
(lp4474
g57
(g78
g59
NtRp4475
(dp4476
g62
(dp4477
g82
g83
ssg71
g4471
sg64
(lp4478
S'models_to_run'
p4479
asbag57
(g78
g59
NtRp4480
(dp4481
g62
(dp4482
g89
g90
ssg71
g4471
sg64
(lp4483
S':'
asbag57
(g78
g59
NtRp4484
(dp4485
g62
(dp4486
sg71
g4471
sg64
(lp4487
g57
(g58
g59
NtRp4488
(dp4489
g62
(dp4490
g70
I5
ssg71
g4484
sg64
(lp4491
g57
(g66
g59
NtRp4492
(dp4493
g62
(dp4494
g70
I4
ssg71
Nsg64
(lp4495
g57
(g73
g59
NtRp4496
(dp4497
g62
(dp4498
sg71
g4492
sg64
(lp4499
g57
(g78
g59
NtRp4500
(dp4501
g62
(dp4502
sg71
g4496
sg64
(lp4503
g57
(g58
g59
NtRp4504
(dp4505
g62
(dp4506
g70
I4
ssg71
g4500
sg64
(lp4507
S'^\\w+\\.py$'
p4508
asbasbasbag57
(g73
g59
NtRp4509
(dp4510
g62
(dp4511
sg71
g4492
sg64
(lp4512
g57
(g78
g59
NtRp4513
(dp4514
g62
(dp4515
sg71
g4509
sg64
(lp4516
g57
(g58
g59
NtRp4517
(dp4518
g62
(dp4519
g70
I4
ssg71
g4513
sg64
(lp4520
S'^default/\\w+\\.py$'
p4521
asbasbasbag57
(g73
g59
NtRp4522
(dp4523
g62
(dp4524
sg71
g4492
sg64
(lp4525
g57
(g78
g59
NtRp4526
(dp4527
g62
(dp4528
sg71
g4522
sg64
(lp4529
g57
(g58
g59
NtRp4530
(dp4531
g62
(dp4532
g70
I4
ssg71
g4526
sg64
(lp4533
S'^default/home/\\w+\\.py$'
p4534
asbasbasbasbasbasbasbag57
(g73
g59
NtRp4535
(dp4536
g62
(dp4537
sg71
g3627
sg64
(lp4538
g57
(g78
g59
NtRp4539
(dp4540
g62
(dp4541
g82
g83
ssg71
g4535
sg64
(lp4542
S'postprocessing'
p4543
asbag57
(g78
g59
NtRp4544
(dp4545
g62
(dp4546
g89
g90
ssg71
g4535
sg64
(lp4547
S':'
asbag57
(g78
g59
NtRp4548
(dp4549
g62
(dp4550
sg71
g4535
sg64
(lp4551
g57
(g58
g59
NtRp4552
(dp4553
g62
(dp4554
g70
I5
ssg71
g4548
sg64
(lp4555
g57
(g66
g59
NtRp4556
(dp4557
g62
(dp4558
g70
I4
ssg71
Nsg64
(lp4559
sbasbasbasbag57
(g73
g59
NtRp4560
(dp4561
g62
(dp4562
sg71
g3627
sg64
(lp4563
g57
(g78
g59
NtRp4564
(dp4565
g62
(dp4566
g82
g83
ssg71
g4560
sg64
(lp4567
S'session_cookie_expires'
p4568
asbag57
(g78
g59
NtRp4569
(dp4570
g62
(dp4571
g89
g90
ssg71
g4560
sg64
(lp4572
S':'
asbag57
(g78
g59
NtRp4573
(dp4574
g62
(dp4575
sg71
g4560
sg64
(lp4576
g57
(g58
g59
NtRp4577
(dp4578
g62
(dp4579
g70
I5
ssg71
g4573
sg64
(lp4580
S'None'
p4581
asbasbasbag57
(g73
g59
NtRp4582
(dp4583
g62
(dp4584
sg71
g3627
sg64
(lp4585
g57
(g78
g59
NtRp4586
(dp4587
g62
(dp4588
g82
g83
ssg71
g4582
sg64
(lp4589
S'session_data_name'
p4590
asbag57
(g78
g59
NtRp4591
(dp4592
g62
(dp4593
g89
g90
ssg71
g4582
sg64
(lp4594
S':'
asbag57
(g78
g59
NtRp4595
(dp4596
g62
(dp4597
sg71
g4582
sg64
(lp4598
g57
(g58
g59
NtRp4599
(dp4600
g62
(dp4601
g70
I5
ssg71
g4595
sg64
(lp4602
S'session_data_irecycle'
p4603
asbasbasbag57
(g73
g59
NtRp4604
(dp4605
g62
(dp4606
sg71
g3627
sg64
(lp4607
g57
(g78
g59
NtRp4608
(dp4609
g62
(dp4610
g82
g83
ssg71
g4604
sg64
(lp4611
S'session_file'
p4612
asbag57
(g78
g59
NtRp4613
(dp4614
g62
(dp4615
g89
g90
ssg71
g4604
sg64
(lp4616
S':'
asbag57
(g78
g59
NtRp4617
(dp4618
g62
(dp4619
sg71
g4604
sg64
(lp4620
g57
(g58
g59
NtRp4621
(dp4622
g62
(dp4623
g70
I5
ssg71
g4617
sg64
(lp4624
S"<open file '/home/diego/web2py/applications/irecycle/sessions/127.0.0.1-52497e39-155c-423e-8fad-ac44f096ff04', mode 'rb+' at 0x7f02e4599270>"
p4625
asbasbasbag57
(g73
g59
NtRp4626
(dp4627
g62
(dp4628
sg71
g3627
sg64
(lp4629
g57
(g78
g59
NtRp4630
(dp4631
g62
(dp4632
g82
g83
ssg71
g4626
sg64
(lp4633
S'session_filename'
p4634
asbag57
(g78
g59
NtRp4635
(dp4636
g62
(dp4637
g89
g90
ssg71
g4626
sg64
(lp4638
S':'
asbag57
(g78
g59
NtRp4639
(dp4640
g62
(dp4641
sg71
g4626
sg64
(lp4642
g57
(g58
g59
NtRp4643
(dp4644
g62
(dp4645
g70
I5
ssg71
g4639
sg64
(lp4646
S'/home/diego/web2py/applications/irecycle/sessions/127.0.0.1-52497e39-155c-423e-8fad-ac44f096ff04'
p4647
asbasbasbag57
(g73
g59
NtRp4648
(dp4649
g62
(dp4650
sg71
g3627
sg64
(lp4651
g57
(g78
g59
NtRp4652
(dp4653
g62
(dp4654
g82
g83
ssg71
g4648
sg64
(lp4655
S'session_id'
p4656
asbag57
(g78
g59
NtRp4657
(dp4658
g62
(dp4659
g89
g90
ssg71
g4648
sg64
(lp4660
S':'
asbag57
(g78
g59
NtRp4661
(dp4662
g62
(dp4663
sg71
g4648
sg64
(lp4664
g57
(g58
g59
NtRp4665
(dp4666
g62
(dp4667
g70
I5
ssg71
g4661
sg64
(lp4668
g475
asbasbasbag57
(g73
g59
NtRp4669
(dp4670
g62
(dp4671
sg71
g3627
sg64
(lp4672
g57
(g78
g59
NtRp4673
(dp4674
g62
(dp4675
g82
g83
ssg71
g4669
sg64
(lp4676
S'session_id_name'
p4677
asbag57
(g78
g59
NtRp4678
(dp4679
g62
(dp4680
g89
g90
ssg71
g4669
sg64
(lp4681
S':'
asbag57
(g78
g59
NtRp4682
(dp4683
g62
(dp4684
sg71
g4669
sg64
(lp4685
g57
(g58
g59
NtRp4686
(dp4687
g62
(dp4688
g70
I5
ssg71
g4682
sg64
(lp4689
g3684
asbasbasbag57
(g73
g59
NtRp4690
(dp4691
g62
(dp4692
sg71
g3627
sg64
(lp4693
g57
(g78
g59
NtRp4694
(dp4695
g62
(dp4696
g82
g83
ssg71
g4690
sg64
(lp4697
S'session_locked'
p4698
asbag57
(g78
g59
NtRp4699
(dp4700
g62
(dp4701
g89
g90
ssg71
g4690
sg64
(lp4702
S':'
asbag57
(g78
g59
NtRp4703
(dp4704
g62
(dp4705
sg71
g4690
sg64
(lp4706
g57
(g58
g59
NtRp4707
(dp4708
g62
(dp4709
g70
I5
ssg71
g4703
sg64
(lp4710
g1627
asbasbasbag57
(g73
g59
NtRp4711
(dp4712
g62
(dp4713
sg71
g3627
sg64
(lp4714
g57
(g78
g59
NtRp4715
(dp4716
g62
(dp4717
g82
g83
ssg71
g4711
sg64
(lp4718
S'session_new'
p4719
asbag57
(g78
g59
NtRp4720
(dp4721
g62
(dp4722
g89
g90
ssg71
g4711
sg64
(lp4723
S':'
asbag57
(g78
g59
NtRp4724
(dp4725
g62
(dp4726
sg71
g4711
sg64
(lp4727
g57
(g58
g59
NtRp4728
(dp4729
g62
(dp4730
g70
I5
ssg71
g4724
sg64
(lp4731
g100
asbasbasbag57
(g73
g59
NtRp4732
(dp4733
g62
(dp4734
sg71
g3627
sg64
(lp4735
g57
(g78
g59
NtRp4736
(dp4737
g62
(dp4738
g82
g83
ssg71
g4732
sg64
(lp4739
S'session_storage_type'
p4740
asbag57
(g78
g59
NtRp4741
(dp4742
g62
(dp4743
g89
g90
ssg71
g4732
sg64
(lp4744
S':'
asbag57
(g78
g59
NtRp4745
(dp4746
g62
(dp4747
sg71
g4732
sg64
(lp4748
g57
(g58
g59
NtRp4749
(dp4750
g62
(dp4751
g70
I5
ssg71
g4745
sg64
(lp4752
g3100
asbasbasbag57
(g73
g59
NtRp4753
(dp4754
g62
(dp4755
sg71
g3627
sg64
(lp4756
g57
(g78
g59
NtRp4757
(dp4758
g62
(dp4759
g82
g83
ssg71
g4753
sg64
(lp4760
S'status'
p4761
asbag57
(g78
g59
NtRp4762
(dp4763
g62
(dp4764
g89
g90
ssg71
g4753
sg64
(lp4765
S':'
asbag57
(g78
g59
NtRp4766
(dp4767
g62
(dp4768
sg71
g4753
sg64
(lp4769
g57
(g58
g59
NtRp4770
(dp4771
g62
(dp4772
g70
I5
ssg71
g4766
sg64
(lp4773
S'200'
p4774
asbasbasbag57
(g73
g59
NtRp4775
(dp4776
g62
(dp4777
sg71
g3627
sg64
(lp4778
g57
(g78
g59
NtRp4779
(dp4780
g62
(dp4781
g82
g83
ssg71
g4775
sg64
(lp4782
S'subtitle'
p4783
asbag57
(g78
g59
NtRp4784
(dp4785
g62
(dp4786
g89
g90
ssg71
g4775
sg64
(lp4787
S':'
asbag57
(g78
g59
NtRp4788
(dp4789
g62
(dp4790
sg71
g4775
sg64
(lp4791
g57
(g58
g59
NtRp4792
(dp4793
g62
(dp4794
g70
I5
ssg71
g4788
sg64
(lp4795
g4147
(S't\t\x00\x00\x00EuReciclo'
tRp4796
asbasbasbag57
(g73
g59
NtRp4797
(dp4798
g62
(dp4799
sg71
g3627
sg64
(lp4800
g57
(g78
g59
NtRp4801
(dp4802
g62
(dp4803
g82
g83
ssg71
g4797
sg64
(lp4804
S'title'
p4805
asbag57
(g78
g59
NtRp4806
(dp4807
g62
(dp4808
g89
g90
ssg71
g4797
sg64
(lp4809
S':'
asbag57
(g78
g59
NtRp4810
(dp4811
g62
(dp4812
sg71
g4797
sg64
(lp4813
g57
(g58
g59
NtRp4814
(dp4815
g62
(dp4816
g70
I5
ssg71
g4810
sg64
(lp4817
S'EuReciclo'
p4818
asbasbasbag57
(g73
g59
NtRp4819
(dp4820
g62
(dp4821
sg71
g3627
sg64
(lp4822
g57
(g78
g59
NtRp4823
(dp4824
g62
(dp4825
g82
g83
ssg71
g4819
sg64
(lp4826
S'view'
p4827
asbag57
(g78
g59
NtRp4828
(dp4829
g62
(dp4830
g89
g90
ssg71
g4819
sg64
(lp4831
S':'
asbag57
(g78
g59
NtRp4832
(dp4833
g62
(dp4834
sg71
g4819
sg64
(lp4835
g57
(g58
g59
NtRp4836
(dp4837
g62
(dp4838
g70
I5
ssg71
g4832
sg64
(lp4839
S'default/home.html'
p4840
asbasbasbasbasbsS'locals'
p4841
(dp4842
S'i'
S"'first_name'"
p4843
sS'self'
p4844
S'<gluon.dal.Field object>'
p4845
sssS'traceback'
p4846
S'Traceback (most recent call last):\n  File "/home/diego/web2py/gluon/restricted.py", line 212, in restricted\n    exec ccode in environment\n  File "/home/diego/web2py/applications/irecycle/views/default/home.html", line 65, in <module>\n    margin-top: 10px;\n  File "/home/diego/web2py/applications/irecycle/models/3_db.py", line 59, in name_of\n    return \'%(first_name)s %(last_name)s\' % user\n  File "/home/diego/web2py/gluon/dal.py", line 8227, in __getitem__\n    return self[i:i + 1]\nTypeError: cannot concatenate \'str\' and \'int\' objects\n'
p4847
s.