(dp1
S'output'
p2
S"<type 'exceptions.AttributeError'> 'SQLFORM' object has no attribute 'select'"
p3
sS'layer'
p4
S'/home/diego/web2py/applications/irecycle/controllers/default.py'
p5
sS'code'
p6
S'from gluon.storage import Storage\n\ndef origin():\n\t\treturn dict()\n\ndef index():\n\tif auth.user:\n\t\tredirect(URL(\'home\'))\n\treturn locals()\n\n# @auth.requires_login()\ndef login():\n\t# lg = auth.login()\n\t# te = db.logn(request.args(0)) or redirect(URL(\'index\',\'index\'))\n\t# form = SQLFORM(Login, FORM(\'E-mail:\',\n\t# \tINPUT(_type=\'text\', _placeholder=\'\', _class=\'input-block-level\',\n\t# \t\trequires=IS_NOT_EMPTY()),\'password:\',\n\t# \tINPUT(_type=\'Password\', _placeholder=\'password\', _class=\'input-block-level\',\n\t# \t\trequires=IS_NOT_EMPTY()),\n\t# \tINPUT(_type=\'Submit\', _class=\'btn btn-large btn-primary\', _value=\'Sing in\', \n\t# \t\t_onclick="")))\n\t# form = SQLFORM(db.logn, formstyle="divs", \n\t# \tsubmit_button="sing in").process()\n\t# inputname = form.elements(_type="submit")\n\t# inputname["_class"] = "btn btn-large btn-primary"\n\t# if request.args in Userr == True:\n\t# \tresponse.flash="success"\n\t# \tredirect(URL(\'index\',\'index\'))\n\t# elif lg.errors:\n\t# \tresponse.flash="try again"\n\t# else:\n\t# \tresponse.flash = "please fill the form"\n\treturn dict(lg=auth.login())\n\ndef contact():\n\tcont = SQLFORM(db.contacts).process()\n\treturn dict(cont=cont)\n\ndef user():\n\tobjects = Storage()\n\tif request.args(0) in [\'login\',\'register\']:\n\t\tobjects.login = auth.login()\n\t\tobjects.register = auth.register()\n\telse:\n\t\tobjects.form = auth()\n\treturn dict(objects=objects)\n# \treturn dict(objects=auth())\n\ndef register():\n\tform = auth.register()\n\tif auth.register == True:\n\t\tpos_register = SQLFORM(UserAddress)\n\treturn dict(form=form, pos_register=pos_register)\n\n\ndef download():\n\treturn response.download(request, db)\n\ndef call():\n\tsession.forget()\n\treturn service()\n\ndef data():\n\treturn dict(form=crud())\n\n# our home page, will show our posts and posts by friends\n\n@auth.requires_login()\ndef home():\n\tPost.posted_by.default = me\n\tPost.posted_on.default = request.now\n\tcrud.settings.formstyle = "divs"\n\tform = crud.create(Post)\n\tfriends = [me]+[row.target for row in myfriends.select(Link.target)]\n\tposts = db(Post.posted_by.belongs(friends)).select(orderby=~Post.posted_on,\n\t\tlimitby=(0,100))\n\tpost_user = auth().select()\n\t# name_welcome = SQLFORM(post_user)\n\treturn locals()\n\n# our wall will show our profile and our own posts\n\n@auth.requires_login()\ndef wall():\n\tuser = User(a0 or me)\n\tif not user or not (user.id==me or \\\n\t\tmyfriends(Link.target==user.id).count()):\n\t\tredirect(URL(\'home\'))\n\tposts = db(Post.posted_by==user.id).select(orderby=~Post.posted_on,\n\t\tlimitby=(0,100))\n\treturn locals()\n\n\n# a page for searching friends and requesting friendship\n@auth.requires_login()\ndef search():\n\tform = SQLFORM.factory(Field(\'name\', requires=IS_NOT_EMPTY()))\n\tif form.accepts(request):\n\t\ttokens = form.vars.name.split()\n\t\tquery = reduce(lambda a,b:a&b,\n\t\t\t[User.first_name.contains(k) | User.last_name.contains(k)\\\n\t\t\tfor k in tokens])\n\t\tpeople = db(query).select(orderby=alphabetical)\n\telse:\n\t\tpeople = []\n\n\treturn locals()\n\n\n# a page for accepting and denying friendship requests\n@auth.requires_login()\ndef friends():\n\tfriends = db(User.id==Link.fonte)(Link.target==me).select(orderby==alphabetical)\n\trequests = db(User.id==Link.target)(Link.fonte==me).select(orderby==alphabetical)\n\treturn locals()\n\n# this is the Ajax callback\n@auth.requires_login()\ndef friendship():\n\t"""Ajax callback"""\n\tif request.env.request_method != \'POST\': raise HTTP(400)\n\tif a0 == \'request\' and not Link(fonte=a1, target=me):\n\t\t# insert a new friendship request\n\t\tLink.insert(fonte=me, target=a1)\n\telif a0 == \'accept\':\n\t\t# accept an existing friendship request\n\t\tdb(Link.target==me)(Link.fonte==a1).update(accepted=True)\n\tif not db(Link.fonte==me)(Link.target==a1).count():\n\t\tLink.insert(fonte=me, target=a1)\n\telif a0 == \'deny\':\n\t\t# deny an existing friendship request\n\t\tdb(Link.target==me)(Link.fonte==a1).delete()\n\telif a0 == \'remove\':\n\t\t# delete a previous friendship request\n\t\tdb(Link.fonte==me)(Link.target==a1).delete()\n\n\ndef address():\n\tform = SQLFORM(UserAddress)\n\treturn dict(form=form)\nresponse._vars=response._caller(home)\n'
p7
sS'snapshot'
p8
(dp9
S'exception'
p10
(dp11
S'__hash__'
p12
S"<method-wrapper '__hash__' of exceptions.AttributeError object>"
p13
sS'__setattr__'
p14
S"<method-wrapper '__setattr__' of exceptions.AttributeError object>"
p15
sS'__reduce_ex__'
p16
S'<built-in method __reduce_ex__ of exceptions.AttributeError object>'
p17
sS'__getslice__'
p18
S"<method-wrapper '__getslice__' of exceptions.AttributeError object>"
p19
sS'__getitem__'
p20
S"<method-wrapper '__getitem__' of exceptions.AttributeError object>"
p21
sS'__setstate__'
p22
S'<built-in method __setstate__ of exceptions.AttributeError object>'
p23
sS'args'
p24
S'("\'SQLFORM\' object has no attribute \'select\'",)'
p25
sS'__reduce__'
p26
S'<built-in method __reduce__ of exceptions.AttributeError object>'
p27
sS'__str__'
p28
S"<method-wrapper '__str__' of exceptions.AttributeError object>"
p29
sS'__format__'
p30
S'<built-in method __format__ of exceptions.AttributeError object>'
p31
sS'__getattribute__'
p32
S"<method-wrapper '__getattribute__' of exceptions.AttributeError object>"
p33
sS'__class__'
p34
S"<type 'exceptions.AttributeError'>"
p35
sS'__unicode__'
p36
S'<built-in method __unicode__ of exceptions.AttributeError object>'
p37
sS'__delattr__'
p38
S"<method-wrapper '__delattr__' of exceptions.AttributeError object>"
p39
sS'__subclasshook__'
p40
S'<built-in method __subclasshook__ of type object>'
p41
sS'__repr__'
p42
S"<method-wrapper '__repr__' of exceptions.AttributeError object>"
p43
sS'__dict__'
p44
S'{}'
p45
sS'__sizeof__'
p46
S'<built-in method __sizeof__ of exceptions.AttributeError object>'
p47
sS'__doc__'
p48
S"'Attribute not found.'"
p49
sS'__init__'
p50
S"<method-wrapper '__init__' of exceptions.AttributeError object>"
p51
sS'__new__'
p52
S'<built-in method __new__ of type object>'
p53
ssS'evalue'
p54
S"'SQLFORM' object has no attribute 'select'"
p55
sS'request'
p56
ccopy_reg
_reconstructor
p57
(cgluon.html
BEAUTIFY
p58
c__builtin__
object
p59
NtRp60
(dp61
S'attributes'
p62
(dp63
sS'components'
p64
(lp65
g57
(cgluon.html
TABLE
p66
g59
NtRp67
(dp68
g62
(dp69
S'level'
p70
I5
ssS'parent'
p71
Nsg64
(lp72
g57
(cgluon.html
TR
p73
g59
NtRp74
(dp75
g62
(dp76
sg71
g67
sg64
(lp77
g57
(cgluon.html
TD
p78
g59
NtRp79
(dp80
g62
(dp81
S'_style'
p82
S'font-weight:bold;vertical-align:top'
p83
ssg71
g74
sg64
(lp84
S'ajax'
p85
asbag57
(g78
g59
NtRp86
(dp87
g62
(dp88
S'_valign'
p89
S'top'
p90
ssg71
g74
sg64
(lp91
S':'
asbag57
(g78
g59
NtRp92
(dp93
g62
(dp94
sg71
g74
sg64
(lp95
g57
(g58
g59
NtRp96
(dp97
g62
(dp98
g70
I5
ssg71
g92
sg64
(lp99
S'False'
p100
asbasbasbag57
(g73
g59
NtRp101
(dp102
g62
(dp103
sg71
g67
sg64
(lp104
g57
(g78
g59
NtRp105
(dp106
g62
(dp107
g82
g83
ssg71
g101
sg64
(lp108
S'application'
p109
asbag57
(g78
g59
NtRp110
(dp111
g62
(dp112
g89
g90
ssg71
g101
sg64
(lp113
S':'
asbag57
(g78
g59
NtRp114
(dp115
g62
(dp116
sg71
g101
sg64
(lp117
g57
(g58
g59
NtRp118
(dp119
g62
(dp120
g70
I5
ssg71
g114
sg64
(lp121
S'irecycle'
p122
asbasbasbag57
(g73
g59
NtRp123
(dp124
g62
(dp125
sg71
g67
sg64
(lp126
g57
(g78
g59
NtRp127
(dp128
g62
(dp129
g82
g83
ssg71
g123
sg64
(lp130
g24
asbag57
(g78
g59
NtRp131
(dp132
g62
(dp133
g89
g90
ssg71
g123
sg64
(lp134
S':'
asbag57
(g78
g59
NtRp135
(dp136
g62
(dp137
sg71
g123
sg64
(lp138
g57
(g58
g59
NtRp139
(dp140
g62
(dp141
g70
I5
ssg71
g135
sg64
(lp142
g57
(g66
g59
NtRp143
(dp144
g62
(dp145
g70
I4
ssg71
Nsg64
(lp146
g57
(g73
g59
NtRp147
(dp148
g62
(dp149
sg71
g143
sg64
(lp150
g57
(g78
g59
NtRp151
(dp152
g62
(dp153
sg71
g147
sg64
(lp154
g57
(g58
g59
NtRp155
(dp156
g62
(dp157
g70
I4
ssg71
g151
sg64
(lp158
S'login'
p159
asbasbasbasbasbasbasbag57
(g73
g59
NtRp160
(dp161
g62
(dp162
sg71
g67
sg64
(lp163
g57
(g78
g59
NtRp164
(dp165
g62
(dp166
g82
g83
ssg71
g160
sg64
(lp167
S'body'
p168
asbag57
(g78
g59
NtRp169
(dp170
g62
(dp171
g89
g90
ssg71
g160
sg64
(lp172
S':'
asbag57
(g78
g59
NtRp173
(dp174
g62
(dp175
sg71
g160
sg64
(lp176
g57
(g58
g59
NtRp177
(dp178
g62
(dp179
g70
I5
ssg71
g173
sg64
(lp180
S'<cStringIO.StringO object at 0x7fbde4509c70>'
p181
asbasbasbag57
(g73
g59
NtRp182
(dp183
g62
(dp184
sg71
g67
sg64
(lp185
g57
(g78
g59
NtRp186
(dp187
g62
(dp188
g82
g83
ssg71
g182
sg64
(lp189
S'cid'
p190
asbag57
(g78
g59
NtRp191
(dp192
g62
(dp193
g89
g90
ssg71
g182
sg64
(lp194
S':'
asbag57
(g78
g59
NtRp195
(dp196
g62
(dp197
sg71
g182
sg64
(lp198
g57
(g58
g59
NtRp199
(dp200
g62
(dp201
g70
I5
ssg71
g195
sg64
(lp202
S'None'
p203
asbasbasbag57
(g73
g59
NtRp204
(dp205
g62
(dp206
sg71
g67
sg64
(lp207
g57
(g78
g59
NtRp208
(dp209
g62
(dp210
g82
g83
ssg71
g204
sg64
(lp211
S'client'
p212
asbag57
(g78
g59
NtRp213
(dp214
g62
(dp215
g89
g90
ssg71
g204
sg64
(lp216
S':'
asbag57
(g78
g59
NtRp217
(dp218
g62
(dp219
sg71
g204
sg64
(lp220
g57
(g58
g59
NtRp221
(dp222
g62
(dp223
g70
I5
ssg71
g217
sg64
(lp224
S'127.0.0.1'
p225
asbasbasbag57
(g73
g59
NtRp226
(dp227
g62
(dp228
sg71
g67
sg64
(lp229
g57
(g78
g59
NtRp230
(dp231
g62
(dp232
g82
g83
ssg71
g226
sg64
(lp233
S'controller'
p234
asbag57
(g78
g59
NtRp235
(dp236
g62
(dp237
g89
g90
ssg71
g226
sg64
(lp238
S':'
asbag57
(g78
g59
NtRp239
(dp240
g62
(dp241
sg71
g226
sg64
(lp242
g57
(g58
g59
NtRp243
(dp244
g62
(dp245
g70
I5
ssg71
g239
sg64
(lp246
S'default'
p247
asbasbasbag57
(g73
g59
NtRp248
(dp249
g62
(dp250
sg71
g67
sg64
(lp251
g57
(g78
g59
NtRp252
(dp253
g62
(dp254
g82
g83
ssg71
g248
sg64
(lp255
S'cookies'
p256
asbag57
(g78
g59
NtRp257
(dp258
g62
(dp259
g89
g90
ssg71
g248
sg64
(lp260
S':'
asbag57
(g78
g59
NtRp261
(dp262
g62
(dp263
sg71
g248
sg64
(lp264
g57
(g58
g59
NtRp265
(dp266
g62
(dp267
g70
I5
ssg71
g261
sg64
(lp268
g57
(g66
g59
NtRp269
(dp270
g62
(dp271
g70
I4
ssg71
Nsg64
(lp272
g57
(g73
g59
NtRp273
(dp274
g62
(dp275
sg71
g269
sg64
(lp276
g57
(g78
g59
NtRp277
(dp278
g62
(dp279
g82
g83
ssg71
g273
sg64
(lp280
S'session_id_admin'
p281
asbag57
(g78
g59
NtRp282
(dp283
g62
(dp284
g89
g90
ssg71
g273
sg64
(lp285
S':'
asbag57
(g78
g59
NtRp286
(dp287
g62
(dp288
sg71
g273
sg64
(lp289
g57
(g58
g59
NtRp290
(dp291
g62
(dp292
g70
I4
ssg71
g286
sg64
(lp293
S'127.0.0.1-e9b49389-2418-4b45-bd80-845c8869c15c'
p294
ag57
(g66
g59
NtRp295
(dp296
g62
(dp297
g70
I3
ssg71
Nsg64
(lp298
g57
(g73
g59
NtRp299
(dp300
g62
(dp301
sg71
g295
sg64
(lp302
g57
(g78
g59
NtRp303
(dp304
g62
(dp305
g82
g83
ssg71
g299
sg64
(lp306
S'comment'
p307
asbag57
(g78
g59
NtRp308
(dp309
g62
(dp310
g89
g90
ssg71
g299
sg64
(lp311
S':'
asbag57
(g78
g59
NtRp312
(dp313
g62
(dp314
sg71
g299
sg64
(lp315
g57
(g58
g59
NtRp316
(dp317
g62
(dp318
g70
I3
ssg71
g312
sg64
(lp319
S''
asbasbasbag57
(g73
g59
NtRp320
(dp321
g62
(dp322
sg71
g295
sg64
(lp323
g57
(g78
g59
NtRp324
(dp325
g62
(dp326
g82
g83
ssg71
g320
sg64
(lp327
S'domain'
p328
asbag57
(g78
g59
NtRp329
(dp330
g62
(dp331
g89
g90
ssg71
g320
sg64
(lp332
S':'
asbag57
(g78
g59
NtRp333
(dp334
g62
(dp335
sg71
g320
sg64
(lp336
g57
(g58
g59
NtRp337
(dp338
g62
(dp339
g70
I3
ssg71
g333
sg64
(lp340
S''
asbasbasbag57
(g73
g59
NtRp341
(dp342
g62
(dp343
sg71
g295
sg64
(lp344
g57
(g78
g59
NtRp345
(dp346
g62
(dp347
g82
g83
ssg71
g341
sg64
(lp348
S'expires'
p349
asbag57
(g78
g59
NtRp350
(dp351
g62
(dp352
g89
g90
ssg71
g341
sg64
(lp353
S':'
asbag57
(g78
g59
NtRp354
(dp355
g62
(dp356
sg71
g341
sg64
(lp357
g57
(g58
g59
NtRp358
(dp359
g62
(dp360
g70
I3
ssg71
g354
sg64
(lp361
S''
asbasbasbag57
(g73
g59
NtRp362
(dp363
g62
(dp364
sg71
g295
sg64
(lp365
g57
(g78
g59
NtRp366
(dp367
g62
(dp368
g82
g83
ssg71
g362
sg64
(lp369
S'httponly'
p370
asbag57
(g78
g59
NtRp371
(dp372
g62
(dp373
g89
g90
ssg71
g362
sg64
(lp374
S':'
asbag57
(g78
g59
NtRp375
(dp376
g62
(dp377
sg71
g362
sg64
(lp378
g57
(g58
g59
NtRp379
(dp380
g62
(dp381
g70
I3
ssg71
g375
sg64
(lp382
S''
asbasbasbag57
(g73
g59
NtRp383
(dp384
g62
(dp385
sg71
g295
sg64
(lp386
g57
(g78
g59
NtRp387
(dp388
g62
(dp389
g82
g83
ssg71
g383
sg64
(lp390
S'max-age'
p391
asbag57
(g78
g59
NtRp392
(dp393
g62
(dp394
g89
g90
ssg71
g383
sg64
(lp395
S':'
asbag57
(g78
g59
NtRp396
(dp397
g62
(dp398
sg71
g383
sg64
(lp399
g57
(g58
g59
NtRp400
(dp401
g62
(dp402
g70
I3
ssg71
g396
sg64
(lp403
S''
asbasbasbag57
(g73
g59
NtRp404
(dp405
g62
(dp406
sg71
g295
sg64
(lp407
g57
(g78
g59
NtRp408
(dp409
g62
(dp410
g82
g83
ssg71
g404
sg64
(lp411
S'path'
p412
asbag57
(g78
g59
NtRp413
(dp414
g62
(dp415
g89
g90
ssg71
g404
sg64
(lp416
S':'
asbag57
(g78
g59
NtRp417
(dp418
g62
(dp419
sg71
g404
sg64
(lp420
g57
(g58
g59
NtRp421
(dp422
g62
(dp423
g70
I3
ssg71
g417
sg64
(lp424
S''
asbasbasbag57
(g73
g59
NtRp425
(dp426
g62
(dp427
sg71
g295
sg64
(lp428
g57
(g78
g59
NtRp429
(dp430
g62
(dp431
g82
g83
ssg71
g425
sg64
(lp432
S'secure'
p433
asbag57
(g78
g59
NtRp434
(dp435
g62
(dp436
g89
g90
ssg71
g425
sg64
(lp437
S':'
asbag57
(g78
g59
NtRp438
(dp439
g62
(dp440
sg71
g425
sg64
(lp441
g57
(g58
g59
NtRp442
(dp443
g62
(dp444
g70
I3
ssg71
g438
sg64
(lp445
S''
asbasbasbag57
(g73
g59
NtRp446
(dp447
g62
(dp448
sg71
g295
sg64
(lp449
g57
(g78
g59
NtRp450
(dp451
g62
(dp452
g82
g83
ssg71
g446
sg64
(lp453
S'version'
p454
asbag57
(g78
g59
NtRp455
(dp456
g62
(dp457
g89
g90
ssg71
g446
sg64
(lp458
S':'
asbag57
(g78
g59
NtRp459
(dp460
g62
(dp461
sg71
g446
sg64
(lp462
g57
(g58
g59
NtRp463
(dp464
g62
(dp465
g70
I3
ssg71
g459
sg64
(lp466
S''
asbasbasbasbasbasbasbag57
(g73
g59
NtRp467
(dp468
g62
(dp469
sg71
g269
sg64
(lp470
g57
(g78
g59
NtRp471
(dp472
g62
(dp473
g82
g83
ssg71
g467
sg64
(lp474
S'session_id_irecycle'
p475
asbag57
(g78
g59
NtRp476
(dp477
g62
(dp478
g89
g90
ssg71
g467
sg64
(lp479
S':'
asbag57
(g78
g59
NtRp480
(dp481
g62
(dp482
sg71
g467
sg64
(lp483
g57
(g58
g59
NtRp484
(dp485
g62
(dp486
g70
I4
ssg71
g480
sg64
(lp487
S'127.0.0.1-10f67e0b-8b95-4045-9f3c-2e1e4dff1c83'
p488
ag57
(g66
g59
NtRp489
(dp490
g62
(dp491
g70
I3
ssg71
Nsg64
(lp492
g57
(g73
g59
NtRp493
(dp494
g62
(dp495
sg71
g489
sg64
(lp496
g57
(g78
g59
NtRp497
(dp498
g62
(dp499
g82
g83
ssg71
g493
sg64
(lp500
g307
asbag57
(g78
g59
NtRp501
(dp502
g62
(dp503
g89
g90
ssg71
g493
sg64
(lp504
S':'
asbag57
(g78
g59
NtRp505
(dp506
g62
(dp507
sg71
g493
sg64
(lp508
g57
(g58
g59
NtRp509
(dp510
g62
(dp511
g70
I3
ssg71
g505
sg64
(lp512
S''
asbasbasbag57
(g73
g59
NtRp513
(dp514
g62
(dp515
sg71
g489
sg64
(lp516
g57
(g78
g59
NtRp517
(dp518
g62
(dp519
g82
g83
ssg71
g513
sg64
(lp520
g328
asbag57
(g78
g59
NtRp521
(dp522
g62
(dp523
g89
g90
ssg71
g513
sg64
(lp524
S':'
asbag57
(g78
g59
NtRp525
(dp526
g62
(dp527
sg71
g513
sg64
(lp528
g57
(g58
g59
NtRp529
(dp530
g62
(dp531
g70
I3
ssg71
g525
sg64
(lp532
S''
asbasbasbag57
(g73
g59
NtRp533
(dp534
g62
(dp535
sg71
g489
sg64
(lp536
g57
(g78
g59
NtRp537
(dp538
g62
(dp539
g82
g83
ssg71
g533
sg64
(lp540
g349
asbag57
(g78
g59
NtRp541
(dp542
g62
(dp543
g89
g90
ssg71
g533
sg64
(lp544
S':'
asbag57
(g78
g59
NtRp545
(dp546
g62
(dp547
sg71
g533
sg64
(lp548
g57
(g58
g59
NtRp549
(dp550
g62
(dp551
g70
I3
ssg71
g545
sg64
(lp552
S''
asbasbasbag57
(g73
g59
NtRp553
(dp554
g62
(dp555
sg71
g489
sg64
(lp556
g57
(g78
g59
NtRp557
(dp558
g62
(dp559
g82
g83
ssg71
g553
sg64
(lp560
g370
asbag57
(g78
g59
NtRp561
(dp562
g62
(dp563
g89
g90
ssg71
g553
sg64
(lp564
S':'
asbag57
(g78
g59
NtRp565
(dp566
g62
(dp567
sg71
g553
sg64
(lp568
g57
(g58
g59
NtRp569
(dp570
g62
(dp571
g70
I3
ssg71
g565
sg64
(lp572
S''
asbasbasbag57
(g73
g59
NtRp573
(dp574
g62
(dp575
sg71
g489
sg64
(lp576
g57
(g78
g59
NtRp577
(dp578
g62
(dp579
g82
g83
ssg71
g573
sg64
(lp580
g391
asbag57
(g78
g59
NtRp581
(dp582
g62
(dp583
g89
g90
ssg71
g573
sg64
(lp584
S':'
asbag57
(g78
g59
NtRp585
(dp586
g62
(dp587
sg71
g573
sg64
(lp588
g57
(g58
g59
NtRp589
(dp590
g62
(dp591
g70
I3
ssg71
g585
sg64
(lp592
S''
asbasbasbag57
(g73
g59
NtRp593
(dp594
g62
(dp595
sg71
g489
sg64
(lp596
g57
(g78
g59
NtRp597
(dp598
g62
(dp599
g82
g83
ssg71
g593
sg64
(lp600
g412
asbag57
(g78
g59
NtRp601
(dp602
g62
(dp603
g89
g90
ssg71
g593
sg64
(lp604
S':'
asbag57
(g78
g59
NtRp605
(dp606
g62
(dp607
sg71
g593
sg64
(lp608
g57
(g58
g59
NtRp609
(dp610
g62
(dp611
g70
I3
ssg71
g605
sg64
(lp612
S''
asbasbasbag57
(g73
g59
NtRp613
(dp614
g62
(dp615
sg71
g489
sg64
(lp616
g57
(g78
g59
NtRp617
(dp618
g62
(dp619
g82
g83
ssg71
g613
sg64
(lp620
g433
asbag57
(g78
g59
NtRp621
(dp622
g62
(dp623
g89
g90
ssg71
g613
sg64
(lp624
S':'
asbag57
(g78
g59
NtRp625
(dp626
g62
(dp627
sg71
g613
sg64
(lp628
g57
(g58
g59
NtRp629
(dp630
g62
(dp631
g70
I3
ssg71
g625
sg64
(lp632
S''
asbasbasbag57
(g73
g59
NtRp633
(dp634
g62
(dp635
sg71
g489
sg64
(lp636
g57
(g78
g59
NtRp637
(dp638
g62
(dp639
g82
g83
ssg71
g633
sg64
(lp640
g454
asbag57
(g78
g59
NtRp641
(dp642
g62
(dp643
g89
g90
ssg71
g633
sg64
(lp644
S':'
asbag57
(g78
g59
NtRp645
(dp646
g62
(dp647
sg71
g633
sg64
(lp648
g57
(g58
g59
NtRp649
(dp650
g62
(dp651
g70
I3
ssg71
g645
sg64
(lp652
S''
asbasbasbasbasbasbasbasbasbasbasbag57
(g73
g59
NtRp653
(dp654
g62
(dp655
sg71
g67
sg64
(lp656
g57
(g78
g59
NtRp657
(dp658
g62
(dp659
g82
g83
ssg71
g653
sg64
(lp660
S'env'
p661
asbag57
(g78
g59
NtRp662
(dp663
g62
(dp664
g89
g90
ssg71
g653
sg64
(lp665
S':'
asbag57
(g78
g59
NtRp666
(dp667
g62
(dp668
sg71
g653
sg64
(lp669
g57
(g58
g59
NtRp670
(dp671
g62
(dp672
g70
I5
ssg71
g666
sg64
(lp673
g57
(g66
g59
NtRp674
(dp675
g62
(dp676
g70
I4
ssg71
Nsg64
(lp677
g57
(g73
g59
NtRp678
(dp679
g62
(dp680
sg71
g674
sg64
(lp681
g57
(g78
g59
NtRp682
(dp683
g62
(dp684
g82
g83
ssg71
g678
sg64
(lp685
S'app_folders'
p686
asbag57
(g78
g59
NtRp687
(dp688
g62
(dp689
g89
g90
ssg71
g678
sg64
(lp690
S':'
asbag57
(g78
g59
NtRp691
(dp692
g62
(dp693
sg71
g678
sg64
(lp694
g57
(g58
g59
NtRp695
(dp696
g62
(dp697
g70
I4
ssg71
g691
sg64
(lp698
S"set(['/home/diego/web2py/applications/irecycle/', '/home/diego/web2py/applications/admin/'])"
p699
asbasbasbag57
(g73
g59
NtRp700
(dp701
g62
(dp702
sg71
g674
sg64
(lp703
g57
(g78
g59
NtRp704
(dp705
g62
(dp706
g82
g83
ssg71
g700
sg64
(lp707
S'applications_parent'
p708
asbag57
(g78
g59
NtRp709
(dp710
g62
(dp711
g89
g90
ssg71
g700
sg64
(lp712
S':'
asbag57
(g78
g59
NtRp713
(dp714
g62
(dp715
sg71
g700
sg64
(lp716
g57
(g58
g59
NtRp717
(dp718
g62
(dp719
g70
I4
ssg71
g713
sg64
(lp720
S'/home/diego/web2py'
p721
asbasbasbag57
(g73
g59
NtRp722
(dp723
g62
(dp724
sg71
g674
sg64
(lp725
g57
(g78
g59
NtRp726
(dp727
g62
(dp728
g82
g83
ssg71
g722
sg64
(lp729
S'cmd_args'
p730
asbag57
(g78
g59
NtRp731
(dp732
g62
(dp733
g89
g90
ssg71
g722
sg64
(lp734
S':'
asbag57
(g78
g59
NtRp735
(dp736
g62
(dp737
sg71
g722
sg64
(lp738
g57
(g58
g59
NtRp739
(dp740
g62
(dp741
g70
I4
ssg71
g735
sg64
(lp742
g57
(g66
g59
NtRp743
(dp744
g62
(dp745
g70
I3
ssg71
Nsg64
(lp746
sbasbasbasbag57
(g73
g59
NtRp747
(dp748
g62
(dp749
sg71
g674
sg64
(lp750
g57
(g78
g59
NtRp751
(dp752
g62
(dp753
g82
g83
ssg71
g747
sg64
(lp754
S'cmd_options'
p755
asbag57
(g78
g59
NtRp756
(dp757
g62
(dp758
g89
g90
ssg71
g747
sg64
(lp759
S':'
asbag57
(g78
g59
NtRp760
(dp761
g62
(dp762
sg71
g747
sg64
(lp763
g57
(g58
g59
NtRp764
(dp765
g62
(dp766
g70
I4
ssg71
g760
sg64
(lp767
S"<Values at 0x2bde488: {'verbose': False, 'ip': '127.0.0.1', 'with_scheduler': False, 'ips': ['172.30.6.210'], 'shutdown_timeout': 5, 'taskbar': False, 'port': 8000, 'maxthreads': None, 'softcron': False, 'server_name': 'madagascar', 'bpython': False, 'nogui': False, 'pid_filename': 'httpserver.pid', 'extcron': False, 'runcron': False, 'run_system_tests': False, 'test': None, 'folder': '/home/diego/web2py', 'config': '', 'minthreads': None, 'winservice': '', 'shell': None, 'run': '', 'log_filename': 'httpserver.log', 'debuglevel': 30, 'args': [''], 'socket_timeout': 5, 'ssl_ca_certificate': None, 'scheduler': None, 'profiler_filename': None, 'ssl_private_key': '', 'scheduler_groups': None, 'password': '1234', 'request_queue_size': 5, 'ssl_certificate': '', 'cronjob': False, 'numthreads': None, 'quiet': False, 'interfaces': None, 'import_models': False, 'timeout': 10, 'plain': False, 'nobanner': False}>"
p768
asbasbasbag57
(g73
g59
NtRp769
(dp770
g62
(dp771
sg71
g674
sg64
(lp772
g57
(g78
g59
NtRp773
(dp774
g62
(dp775
g82
g83
ssg71
g769
sg64
(lp776
S'db_sessions'
p777
asbag57
(g78
g59
NtRp778
(dp779
g62
(dp780
g89
g90
ssg71
g769
sg64
(lp781
S':'
asbag57
(g78
g59
NtRp782
(dp783
g62
(dp784
sg71
g769
sg64
(lp785
g57
(g58
g59
NtRp786
(dp787
g62
(dp788
g70
I4
ssg71
g782
sg64
(lp789
S'set([])'
p790
asbasbasbag57
(g73
g59
NtRp791
(dp792
g62
(dp793
sg71
g674
sg64
(lp794
g57
(g78
g59
NtRp795
(dp796
g62
(dp797
g82
g83
ssg71
g791
sg64
(lp798
S'debugging'
p799
asbag57
(g78
g59
NtRp800
(dp801
g62
(dp802
g89
g90
ssg71
g791
sg64
(lp803
S':'
asbag57
(g78
g59
NtRp804
(dp805
g62
(dp806
sg71
g791
sg64
(lp807
g57
(g58
g59
NtRp808
(dp809
g62
(dp810
g70
I4
ssg71
g804
sg64
(lp811
g100
asbasbasbag57
(g73
g59
NtRp812
(dp813
g62
(dp814
sg71
g674
sg64
(lp815
g57
(g78
g59
NtRp816
(dp817
g62
(dp818
g82
g83
ssg71
g812
sg64
(lp819
S'gluon_parent'
p820
asbag57
(g78
g59
NtRp821
(dp822
g62
(dp823
g89
g90
ssg71
g812
sg64
(lp824
S':'
asbag57
(g78
g59
NtRp825
(dp826
g62
(dp827
sg71
g812
sg64
(lp828
g57
(g58
g59
NtRp829
(dp830
g62
(dp831
g70
I4
ssg71
g825
sg64
(lp832
S'/home/diego/web2py'
p833
asbasbasbag57
(g73
g59
NtRp834
(dp835
g62
(dp836
sg71
g674
sg64
(lp837
g57
(g78
g59
NtRp838
(dp839
g62
(dp840
g82
g83
ssg71
g834
sg64
(lp841
S'http_accept'
p842
asbag57
(g78
g59
NtRp843
(dp844
g62
(dp845
g89
g90
ssg71
g834
sg64
(lp846
S':'
asbag57
(g78
g59
NtRp847
(dp848
g62
(dp849
sg71
g834
sg64
(lp850
g57
(g58
g59
NtRp851
(dp852
g62
(dp853
g70
I4
ssg71
g847
sg64
(lp854
S'text/html,application/xhtml+xml,application/xml;q=0.9,*/*;q=0.8'
p855
asbasbasbag57
(g73
g59
NtRp856
(dp857
g62
(dp858
sg71
g674
sg64
(lp859
g57
(g78
g59
NtRp860
(dp861
g62
(dp862
g82
g83
ssg71
g856
sg64
(lp863
S'http_accept_charset'
p864
asbag57
(g78
g59
NtRp865
(dp866
g62
(dp867
g89
g90
ssg71
g856
sg64
(lp868
S':'
asbag57
(g78
g59
NtRp869
(dp870
g62
(dp871
sg71
g856
sg64
(lp872
g57
(g58
g59
NtRp873
(dp874
g62
(dp875
g70
I4
ssg71
g869
sg64
(lp876
S'ISO-8859-1,utf-8;q=0.7,*;q=0.3'
p877
asbasbasbag57
(g73
g59
NtRp878
(dp879
g62
(dp880
sg71
g674
sg64
(lp881
g57
(g78
g59
NtRp882
(dp883
g62
(dp884
g82
g83
ssg71
g878
sg64
(lp885
S'http_accept_encoding'
p886
asbag57
(g78
g59
NtRp887
(dp888
g62
(dp889
g89
g90
ssg71
g878
sg64
(lp890
S':'
asbag57
(g78
g59
NtRp891
(dp892
g62
(dp893
sg71
g878
sg64
(lp894
g57
(g58
g59
NtRp895
(dp896
g62
(dp897
g70
I4
ssg71
g891
sg64
(lp898
S'gzip,deflate,sdch'
p899
asbasbasbag57
(g73
g59
NtRp900
(dp901
g62
(dp902
sg71
g674
sg64
(lp903
g57
(g78
g59
NtRp904
(dp905
g62
(dp906
g82
g83
ssg71
g900
sg64
(lp907
S'http_accept_language'
p908
asbag57
(g78
g59
NtRp909
(dp910
g62
(dp911
g89
g90
ssg71
g900
sg64
(lp912
S':'
asbag57
(g78
g59
NtRp913
(dp914
g62
(dp915
sg71
g900
sg64
(lp916
g57
(g58
g59
NtRp917
(dp918
g62
(dp919
g70
I4
ssg71
g913
sg64
(lp920
S'pt-BR,pt;q=0.8,en-US;q=0.6,en;q=0.4'
p921
asbasbasbag57
(g73
g59
NtRp922
(dp923
g62
(dp924
sg71
g674
sg64
(lp925
g57
(g78
g59
NtRp926
(dp927
g62
(dp928
g82
g83
ssg71
g922
sg64
(lp929
S'http_cache_control'
p930
asbag57
(g78
g59
NtRp931
(dp932
g62
(dp933
g89
g90
ssg71
g922
sg64
(lp934
S':'
asbag57
(g78
g59
NtRp935
(dp936
g62
(dp937
sg71
g922
sg64
(lp938
g57
(g58
g59
NtRp939
(dp940
g62
(dp941
g70
I4
ssg71
g935
sg64
(lp942
S'max-age=0'
p943
asbasbasbag57
(g73
g59
NtRp944
(dp945
g62
(dp946
sg71
g674
sg64
(lp947
g57
(g78
g59
NtRp948
(dp949
g62
(dp950
g82
g83
ssg71
g944
sg64
(lp951
S'http_connection'
p952
asbag57
(g78
g59
NtRp953
(dp954
g62
(dp955
g89
g90
ssg71
g944
sg64
(lp956
S':'
asbag57
(g78
g59
NtRp957
(dp958
g62
(dp959
sg71
g944
sg64
(lp960
g57
(g58
g59
NtRp961
(dp962
g62
(dp963
g70
I4
ssg71
g957
sg64
(lp964
S'keep-alive'
p965
asbasbasbag57
(g73
g59
NtRp966
(dp967
g62
(dp968
sg71
g674
sg64
(lp969
g57
(g78
g59
NtRp970
(dp971
g62
(dp972
g82
g83
ssg71
g966
sg64
(lp973
S'http_cookie'
p974
asbag57
(g78
g59
NtRp975
(dp976
g62
(dp977
g89
g90
ssg71
g966
sg64
(lp978
S':'
asbag57
(g78
g59
NtRp979
(dp980
g62
(dp981
sg71
g966
sg64
(lp982
g57
(g58
g59
NtRp983
(dp984
g62
(dp985
g70
I4
ssg71
g979
sg64
(lp986
S'session_id_admin=127.0.0.1-e9b49389-2418-4b45-bd80-845c8869c15c; session_id_irecycle=127.0.0.1-10f67e0b-8b95-4045-9f3c-2e1e4dff1c83'
p987
asbasbasbag57
(g73
g59
NtRp988
(dp989
g62
(dp990
sg71
g674
sg64
(lp991
g57
(g78
g59
NtRp992
(dp993
g62
(dp994
g82
g83
ssg71
g988
sg64
(lp995
S'http_host'
p996
asbag57
(g78
g59
NtRp997
(dp998
g62
(dp999
g89
g90
ssg71
g988
sg64
(lp1000
S':'
asbag57
(g78
g59
NtRp1001
(dp1002
g62
(dp1003
sg71
g988
sg64
(lp1004
g57
(g58
g59
NtRp1005
(dp1006
g62
(dp1007
g70
I4
ssg71
g1001
sg64
(lp1008
S'localhost:8000'
p1009
asbasbasbag57
(g73
g59
NtRp1010
(dp1011
g62
(dp1012
sg71
g674
sg64
(lp1013
g57
(g78
g59
NtRp1014
(dp1015
g62
(dp1016
g82
g83
ssg71
g1010
sg64
(lp1017
S'http_referer'
p1018
asbag57
(g78
g59
NtRp1019
(dp1020
g62
(dp1021
g89
g90
ssg71
g1010
sg64
(lp1022
S':'
asbag57
(g78
g59
NtRp1023
(dp1024
g62
(dp1025
sg71
g1010
sg64
(lp1026
g57
(g58
g59
NtRp1027
(dp1028
g62
(dp1029
g70
I4
ssg71
g1023
sg64
(lp1030
S'http://localhost:8000/irecycle/default/user/login?_next=/irecycle/default/index'
p1031
asbasbasbag57
(g73
g59
NtRp1032
(dp1033
g62
(dp1034
sg71
g674
sg64
(lp1035
g57
(g78
g59
NtRp1036
(dp1037
g62
(dp1038
g82
g83
ssg71
g1032
sg64
(lp1039
S'http_user_agent'
p1040
asbag57
(g78
g59
NtRp1041
(dp1042
g62
(dp1043
g89
g90
ssg71
g1032
sg64
(lp1044
S':'
asbag57
(g78
g59
NtRp1045
(dp1046
g62
(dp1047
sg71
g1032
sg64
(lp1048
g57
(g58
g59
NtRp1049
(dp1050
g62
(dp1051
g70
I4
ssg71
g1045
sg64
(lp1052
S'Mozilla/5.0 (X11; Linux x86_64) AppleWebKit/537.17 (KHTML, like Gecko) Chrome/24.0.1312.52 Safari/537.17'
p1053
asbasbasbag57
(g73
g59
NtRp1054
(dp1055
g62
(dp1056
sg71
g674
sg64
(lp1057
g57
(g78
g59
NtRp1058
(dp1059
g62
(dp1060
g82
g83
ssg71
g1054
sg64
(lp1061
S'is_jython'
p1062
asbag57
(g78
g59
NtRp1063
(dp1064
g62
(dp1065
g89
g90
ssg71
g1054
sg64
(lp1066
S':'
asbag57
(g78
g59
NtRp1067
(dp1068
g62
(dp1069
sg71
g1054
sg64
(lp1070
g57
(g58
g59
NtRp1071
(dp1072
g62
(dp1073
g70
I4
ssg71
g1067
sg64
(lp1074
g100
asbasbasbag57
(g73
g59
NtRp1075
(dp1076
g62
(dp1077
sg71
g674
sg64
(lp1078
g57
(g78
g59
NtRp1079
(dp1080
g62
(dp1081
g82
g83
ssg71
g1075
sg64
(lp1082
S'is_pypy'
p1083
asbag57
(g78
g59
NtRp1084
(dp1085
g62
(dp1086
g89
g90
ssg71
g1075
sg64
(lp1087
S':'
asbag57
(g78
g59
NtRp1088
(dp1089
g62
(dp1090
sg71
g1075
sg64
(lp1091
g57
(g58
g59
NtRp1092
(dp1093
g62
(dp1094
g70
I4
ssg71
g1088
sg64
(lp1095
g100
asbasbasbag57
(g73
g59
NtRp1096
(dp1097
g62
(dp1098
sg71
g674
sg64
(lp1099
g57
(g78
g59
NtRp1100
(dp1101
g62
(dp1102
g82
g83
ssg71
g1096
sg64
(lp1103
S'local_hosts'
p1104
asbag57
(g78
g59
NtRp1105
(dp1106
g62
(dp1107
g89
g90
ssg71
g1096
sg64
(lp1108
S':'
asbag57
(g78
g59
NtRp1109
(dp1110
g62
(dp1111
sg71
g1096
sg64
(lp1112
g57
(g58
g59
NtRp1113
(dp1114
g62
(dp1115
g70
I4
ssg71
g1109
sg64
(lp1116
g57
(g66
g59
NtRp1117
(dp1118
g62
(dp1119
g70
I3
ssg71
Nsg64
(lp1120
g57
(g73
g59
NtRp1121
(dp1122
g62
(dp1123
sg71
g1117
sg64
(lp1124
g57
(g78
g59
NtRp1125
(dp1126
g62
(dp1127
sg71
g1121
sg64
(lp1128
g57
(g58
g59
NtRp1129
(dp1130
g62
(dp1131
g70
I3
ssg71
g1125
sg64
(lp1132
S'::1'
p1133
asbasbasbag57
(g73
g59
NtRp1134
(dp1135
g62
(dp1136
sg71
g1117
sg64
(lp1137
g57
(g78
g59
NtRp1138
(dp1139
g62
(dp1140
sg71
g1134
sg64
(lp1141
g57
(g58
g59
NtRp1142
(dp1143
g62
(dp1144
g70
I3
ssg71
g1138
sg64
(lp1145
S'madagascar'
p1146
asbasbasbag57
(g73
g59
NtRp1147
(dp1148
g62
(dp1149
sg71
g1117
sg64
(lp1150
g57
(g78
g59
NtRp1151
(dp1152
g62
(dp1153
sg71
g1147
sg64
(lp1154
g57
(g58
g59
NtRp1155
(dp1156
g62
(dp1157
g70
I3
ssg71
g1151
sg64
(lp1158
S'::ffff:127.0.0.1'
p1159
asbasbasbag57
(g73
g59
NtRp1160
(dp1161
g62
(dp1162
sg71
g1117
sg64
(lp1163
g57
(g78
g59
NtRp1164
(dp1165
g62
(dp1166
sg71
g1160
sg64
(lp1167
g57
(g58
g59
NtRp1168
(dp1169
g62
(dp1170
g70
I3
ssg71
g1164
sg64
(lp1171
S'127.0.0.1'
p1172
asbasbasbag57
(g73
g59
NtRp1173
(dp1174
g62
(dp1175
sg71
g1117
sg64
(lp1176
g57
(g78
g59
NtRp1177
(dp1178
g62
(dp1179
sg71
g1173
sg64
(lp1180
g57
(g58
g59
NtRp1181
(dp1182
g62
(dp1183
g70
I3
ssg71
g1177
sg64
(lp1184
S'172.30.6.210'
p1185
asbasbasbasbasbasbasbag57
(g73
g59
NtRp1186
(dp1187
g62
(dp1188
sg71
g674
sg64
(lp1189
g57
(g78
g59
NtRp1190
(dp1191
g62
(dp1192
g82
g83
ssg71
g1186
sg64
(lp1193
S'path_info'
p1194
asbag57
(g78
g59
NtRp1195
(dp1196
g62
(dp1197
g89
g90
ssg71
g1186
sg64
(lp1198
S':'
asbag57
(g78
g59
NtRp1199
(dp1200
g62
(dp1201
sg71
g1186
sg64
(lp1202
g57
(g58
g59
NtRp1203
(dp1204
g62
(dp1205
g70
I4
ssg71
g1199
sg64
(lp1206
S'/irecycle/default/home/login'
p1207
asbasbasbag57
(g73
g59
NtRp1208
(dp1209
g62
(dp1210
sg71
g674
sg64
(lp1211
g57
(g78
g59
NtRp1212
(dp1213
g62
(dp1214
g82
g83
ssg71
g1208
sg64
(lp1215
S'query_string'
p1216
asbag57
(g78
g59
NtRp1217
(dp1218
g62
(dp1219
g89
g90
ssg71
g1208
sg64
(lp1220
S':'
asbag57
(g78
g59
NtRp1221
(dp1222
g62
(dp1223
sg71
g1208
sg64
(lp1224
g57
(g58
g59
NtRp1225
(dp1226
g62
(dp1227
g70
I4
ssg71
g1221
sg64
(lp1228
S''
asbasbasbag57
(g73
g59
NtRp1229
(dp1230
g62
(dp1231
sg71
g674
sg64
(lp1232
g57
(g78
g59
NtRp1233
(dp1234
g62
(dp1235
g82
g83
ssg71
g1229
sg64
(lp1236
S'remote_addr'
p1237
asbag57
(g78
g59
NtRp1238
(dp1239
g62
(dp1240
g89
g90
ssg71
g1229
sg64
(lp1241
S':'
asbag57
(g78
g59
NtRp1242
(dp1243
g62
(dp1244
sg71
g1229
sg64
(lp1245
g57
(g58
g59
NtRp1246
(dp1247
g62
(dp1248
g70
I4
ssg71
g1242
sg64
(lp1249
g225
asbasbasbag57
(g73
g59
NtRp1250
(dp1251
g62
(dp1252
sg71
g674
sg64
(lp1253
g57
(g78
g59
NtRp1254
(dp1255
g62
(dp1256
g82
g83
ssg71
g1250
sg64
(lp1257
S'remote_port'
p1258
asbag57
(g78
g59
NtRp1259
(dp1260
g62
(dp1261
g89
g90
ssg71
g1250
sg64
(lp1262
S':'
asbag57
(g78
g59
NtRp1263
(dp1264
g62
(dp1265
sg71
g1250
sg64
(lp1266
g57
(g58
g59
NtRp1267
(dp1268
g62
(dp1269
g70
I4
ssg71
g1263
sg64
(lp1270
S'53639'
p1271
asbasbasbag57
(g73
g59
NtRp1272
(dp1273
g62
(dp1274
sg71
g674
sg64
(lp1275
g57
(g78
g59
NtRp1276
(dp1277
g62
(dp1278
g82
g83
ssg71
g1272
sg64
(lp1279
S'request_method'
p1280
asbag57
(g78
g59
NtRp1281
(dp1282
g62
(dp1283
g89
g90
ssg71
g1272
sg64
(lp1284
S':'
asbag57
(g78
g59
NtRp1285
(dp1286
g62
(dp1287
sg71
g1272
sg64
(lp1288
g57
(g58
g59
NtRp1289
(dp1290
g62
(dp1291
g70
I4
ssg71
g1285
sg64
(lp1292
S'GET'
p1293
asbasbasbag57
(g73
g59
NtRp1294
(dp1295
g62
(dp1296
sg71
g674
sg64
(lp1297
g57
(g78
g59
NtRp1298
(dp1299
g62
(dp1300
g82
g83
ssg71
g1294
sg64
(lp1301
S'request_uri'
p1302
asbag57
(g78
g59
NtRp1303
(dp1304
g62
(dp1305
g89
g90
ssg71
g1294
sg64
(lp1306
S':'
asbag57
(g78
g59
NtRp1307
(dp1308
g62
(dp1309
sg71
g1294
sg64
(lp1310
g57
(g58
g59
NtRp1311
(dp1312
g62
(dp1313
g70
I4
ssg71
g1307
sg64
(lp1314
g1207
asbasbasbag57
(g73
g59
NtRp1315
(dp1316
g62
(dp1317
sg71
g674
sg64
(lp1318
g57
(g78
g59
NtRp1319
(dp1320
g62
(dp1321
g82
g83
ssg71
g1315
sg64
(lp1322
S'script_name'
p1323
asbag57
(g78
g59
NtRp1324
(dp1325
g62
(dp1326
g89
g90
ssg71
g1315
sg64
(lp1327
S':'
asbag57
(g78
g59
NtRp1328
(dp1329
g62
(dp1330
sg71
g1315
sg64
(lp1331
g57
(g58
g59
NtRp1332
(dp1333
g62
(dp1334
g70
I4
ssg71
g1328
sg64
(lp1335
S''
asbasbasbag57
(g73
g59
NtRp1336
(dp1337
g62
(dp1338
sg71
g674
sg64
(lp1339
g57
(g78
g59
NtRp1340
(dp1341
g62
(dp1342
g82
g83
ssg71
g1336
sg64
(lp1343
S'server_name'
p1344
asbag57
(g78
g59
NtRp1345
(dp1346
g62
(dp1347
g89
g90
ssg71
g1336
sg64
(lp1348
S':'
asbag57
(g78
g59
NtRp1349
(dp1350
g62
(dp1351
sg71
g1336
sg64
(lp1352
g57
(g58
g59
NtRp1353
(dp1354
g62
(dp1355
g70
I4
ssg71
g1349
sg64
(lp1356
S'madagascar'
p1357
asbasbasbag57
(g73
g59
NtRp1358
(dp1359
g62
(dp1360
sg71
g674
sg64
(lp1361
g57
(g78
g59
NtRp1362
(dp1363
g62
(dp1364
g82
g83
ssg71
g1358
sg64
(lp1365
S'server_port'
p1366
asbag57
(g78
g59
NtRp1367
(dp1368
g62
(dp1369
g89
g90
ssg71
g1358
sg64
(lp1370
S':'
asbag57
(g78
g59
NtRp1371
(dp1372
g62
(dp1373
sg71
g1358
sg64
(lp1374
g57
(g58
g59
NtRp1375
(dp1376
g62
(dp1377
g70
I4
ssg71
g1371
sg64
(lp1378
S'8000'
p1379
asbasbasbag57
(g73
g59
NtRp1380
(dp1381
g62
(dp1382
sg71
g674
sg64
(lp1383
g57
(g78
g59
NtRp1384
(dp1385
g62
(dp1386
g82
g83
ssg71
g1380
sg64
(lp1387
S'server_protocol'
p1388
asbag57
(g78
g59
NtRp1389
(dp1390
g62
(dp1391
g89
g90
ssg71
g1380
sg64
(lp1392
S':'
asbag57
(g78
g59
NtRp1393
(dp1394
g62
(dp1395
sg71
g1380
sg64
(lp1396
g57
(g58
g59
NtRp1397
(dp1398
g62
(dp1399
g70
I4
ssg71
g1393
sg64
(lp1400
S'HTTP/1.1'
p1401
asbasbasbag57
(g73
g59
NtRp1402
(dp1403
g62
(dp1404
sg71
g674
sg64
(lp1405
g57
(g78
g59
NtRp1406
(dp1407
g62
(dp1408
g82
g83
ssg71
g1402
sg64
(lp1409
S'server_software'
p1410
asbag57
(g78
g59
NtRp1411
(dp1412
g62
(dp1413
g89
g90
ssg71
g1402
sg64
(lp1414
S':'
asbag57
(g78
g59
NtRp1415
(dp1416
g62
(dp1417
sg71
g1402
sg64
(lp1418
g57
(g58
g59
NtRp1419
(dp1420
g62
(dp1421
g70
I4
ssg71
g1415
sg64
(lp1422
S'Rocket 1.2.6'
p1423
asbasbasbag57
(g73
g59
NtRp1424
(dp1425
g62
(dp1426
sg71
g674
sg64
(lp1427
g57
(g78
g59
NtRp1428
(dp1429
g62
(dp1430
g82
g83
ssg71
g1424
sg64
(lp1431
S'web2py_path'
p1432
asbag57
(g78
g59
NtRp1433
(dp1434
g62
(dp1435
g89
g90
ssg71
g1424
sg64
(lp1436
S':'
asbag57
(g78
g59
NtRp1437
(dp1438
g62
(dp1439
sg71
g1424
sg64
(lp1440
g57
(g58
g59
NtRp1441
(dp1442
g62
(dp1443
g70
I4
ssg71
g1437
sg64
(lp1444
g721
asbasbasbag57
(g73
g59
NtRp1445
(dp1446
g62
(dp1447
sg71
g674
sg64
(lp1448
g57
(g78
g59
NtRp1449
(dp1450
g62
(dp1451
g82
g83
ssg71
g1445
sg64
(lp1452
S'web2py_version'
p1453
asbag57
(g78
g59
NtRp1454
(dp1455
g62
(dp1456
g89
g90
ssg71
g1445
sg64
(lp1457
S':'
asbag57
(g78
g59
NtRp1458
(dp1459
g62
(dp1460
sg71
g1445
sg64
(lp1461
g57
(g58
g59
NtRp1462
(dp1463
g62
(dp1464
g70
I4
ssg71
g1458
sg64
(lp1465
g57
(g66
g59
NtRp1466
(dp1467
g62
(dp1468
g70
I3
ssg71
Nsg64
(lp1469
g57
(g73
g59
NtRp1470
(dp1471
g62
(dp1472
sg71
g1466
sg64
(lp1473
g57
(g78
g59
NtRp1474
(dp1475
g62
(dp1476
sg71
g1470
sg64
(lp1477
g57
(g58
g59
NtRp1478
(dp1479
g62
(dp1480
g70
I3
ssg71
g1474
sg64
(lp1481
S'2'
asbasbasbag57
(g73
g59
NtRp1482
(dp1483
g62
(dp1484
sg71
g1466
sg64
(lp1485
g57
(g78
g59
NtRp1486
(dp1487
g62
(dp1488
sg71
g1482
sg64
(lp1489
g57
(g58
g59
NtRp1490
(dp1491
g62
(dp1492
g70
I3
ssg71
g1486
sg64
(lp1493
S'3'
asbasbasbag57
(g73
g59
NtRp1494
(dp1495
g62
(dp1496
sg71
g1466
sg64
(lp1497
g57
(g78
g59
NtRp1498
(dp1499
g62
(dp1500
sg71
g1494
sg64
(lp1501
g57
(g58
g59
NtRp1502
(dp1503
g62
(dp1504
g70
I3
ssg71
g1498
sg64
(lp1505
S'2'
asbasbasbag57
(g73
g59
NtRp1506
(dp1507
g62
(dp1508
sg71
g1466
sg64
(lp1509
g57
(g78
g59
NtRp1510
(dp1511
g62
(dp1512
sg71
g1506
sg64
(lp1513
g57
(g58
g59
NtRp1514
(dp1515
g62
(dp1516
g70
I3
ssg71
g1510
sg64
(lp1517
S'datetime.datetime(2012, 12, 17, 15, 3, 30)'
p1518
asbasbasbag57
(g73
g59
NtRp1519
(dp1520
g62
(dp1521
sg71
g1466
sg64
(lp1522
g57
(g78
g59
NtRp1523
(dp1524
g62
(dp1525
sg71
g1519
sg64
(lp1526
g57
(g58
g59
NtRp1527
(dp1528
g62
(dp1529
g70
I3
ssg71
g1523
sg64
(lp1530
S'stable'
p1531
asbasbasbasbasbasbasbag57
(g73
g59
NtRp1532
(dp1533
g62
(dp1534
sg71
g674
sg64
(lp1535
g57
(g78
g59
NtRp1536
(dp1537
g62
(dp1538
g82
g83
ssg71
g1532
sg64
(lp1539
S'wsgi_errors'
p1540
asbag57
(g78
g59
NtRp1541
(dp1542
g62
(dp1543
g89
g90
ssg71
g1532
sg64
(lp1544
S':'
asbag57
(g78
g59
NtRp1545
(dp1546
g62
(dp1547
sg71
g1532
sg64
(lp1548
g57
(g58
g59
NtRp1549
(dp1550
g62
(dp1551
g70
I4
ssg71
g1545
sg64
(lp1552
S"<open file '<stderr>', mode 'w' at 0x7fbe13edc270>"
p1553
asbasbasbag57
(g73
g59
NtRp1554
(dp1555
g62
(dp1556
sg71
g674
sg64
(lp1557
g57
(g78
g59
NtRp1558
(dp1559
g62
(dp1560
g82
g83
ssg71
g1554
sg64
(lp1561
S'wsgi_file_wrapper'
p1562
asbag57
(g78
g59
NtRp1563
(dp1564
g62
(dp1565
g89
g90
ssg71
g1554
sg64
(lp1566
S':'
asbag57
(g78
g59
NtRp1567
(dp1568
g62
(dp1569
sg71
g1554
sg64
(lp1570
g57
(g58
g59
NtRp1571
(dp1572
g62
(dp1573
g70
I4
ssg71
g1567
sg64
(lp1574
S'<class wsgiref.util.FileWrapper at 0x2b3d738>'
p1575
asbasbasbag57
(g73
g59
NtRp1576
(dp1577
g62
(dp1578
sg71
g674
sg64
(lp1579
g57
(g78
g59
NtRp1580
(dp1581
g62
(dp1582
g82
g83
ssg71
g1576
sg64
(lp1583
S'wsgi_input'
p1584
asbag57
(g78
g59
NtRp1585
(dp1586
g62
(dp1587
g89
g90
ssg71
g1576
sg64
(lp1588
S':'
asbag57
(g78
g59
NtRp1589
(dp1590
g62
(dp1591
sg71
g1576
sg64
(lp1592
g57
(g58
g59
NtRp1593
(dp1594
g62
(dp1595
g70
I4
ssg71
g1589
sg64
(lp1596
S'<socket._fileobject object at 0x7fbde45064d0>'
p1597
asbasbasbag57
(g73
g59
NtRp1598
(dp1599
g62
(dp1600
sg71
g674
sg64
(lp1601
g57
(g78
g59
NtRp1602
(dp1603
g62
(dp1604
g82
g83
ssg71
g1598
sg64
(lp1605
S'wsgi_multiprocess'
p1606
asbag57
(g78
g59
NtRp1607
(dp1608
g62
(dp1609
g89
g90
ssg71
g1598
sg64
(lp1610
S':'
asbag57
(g78
g59
NtRp1611
(dp1612
g62
(dp1613
sg71
g1598
sg64
(lp1614
g57
(g58
g59
NtRp1615
(dp1616
g62
(dp1617
g70
I4
ssg71
g1611
sg64
(lp1618
g100
asbasbasbag57
(g73
g59
NtRp1619
(dp1620
g62
(dp1621
sg71
g674
sg64
(lp1622
g57
(g78
g59
NtRp1623
(dp1624
g62
(dp1625
g82
g83
ssg71
g1619
sg64
(lp1626
S'wsgi_multithread'
p1627
asbag57
(g78
g59
NtRp1628
(dp1629
g62
(dp1630
g89
g90
ssg71
g1619
sg64
(lp1631
S':'
asbag57
(g78
g59
NtRp1632
(dp1633
g62
(dp1634
sg71
g1619
sg64
(lp1635
g57
(g58
g59
NtRp1636
(dp1637
g62
(dp1638
g70
I4
ssg71
g1632
sg64
(lp1639
S'True'
p1640
asbasbasbag57
(g73
g59
NtRp1641
(dp1642
g62
(dp1643
sg71
g674
sg64
(lp1644
g57
(g78
g59
NtRp1645
(dp1646
g62
(dp1647
g82
g83
ssg71
g1641
sg64
(lp1648
S'wsgi_run_once'
p1649
asbag57
(g78
g59
NtRp1650
(dp1651
g62
(dp1652
g89
g90
ssg71
g1641
sg64
(lp1653
S':'
asbag57
(g78
g59
NtRp1654
(dp1655
g62
(dp1656
sg71
g1641
sg64
(lp1657
g57
(g58
g59
NtRp1658
(dp1659
g62
(dp1660
g70
I4
ssg71
g1654
sg64
(lp1661
g100
asbasbasbag57
(g73
g59
NtRp1662
(dp1663
g62
(dp1664
sg71
g674
sg64
(lp1665
g57
(g78
g59
NtRp1666
(dp1667
g62
(dp1668
g82
g83
ssg71
g1662
sg64
(lp1669
S'wsgi_url_scheme'
p1670
asbag57
(g78
g59
NtRp1671
(dp1672
g62
(dp1673
g89
g90
ssg71
g1662
sg64
(lp1674
S':'
asbag57
(g78
g59
NtRp1675
(dp1676
g62
(dp1677
sg71
g1662
sg64
(lp1678
g57
(g58
g59
NtRp1679
(dp1680
g62
(dp1681
g70
I4
ssg71
g1675
sg64
(lp1682
S'http'
p1683
asbasbasbag57
(g73
g59
NtRp1684
(dp1685
g62
(dp1686
sg71
g674
sg64
(lp1687
g57
(g78
g59
NtRp1688
(dp1689
g62
(dp1690
g82
g83
ssg71
g1684
sg64
(lp1691
S'wsgi_version'
p1692
asbag57
(g78
g59
NtRp1693
(dp1694
g62
(dp1695
g89
g90
ssg71
g1684
sg64
(lp1696
S':'
asbag57
(g78
g59
NtRp1697
(dp1698
g62
(dp1699
sg71
g1684
sg64
(lp1700
g57
(g58
g59
NtRp1701
(dp1702
g62
(dp1703
g70
I4
ssg71
g1697
sg64
(lp1704
g57
(g66
g59
NtRp1705
(dp1706
g62
(dp1707
g70
I3
ssg71
Nsg64
(lp1708
g57
(g73
g59
NtRp1709
(dp1710
g62
(dp1711
sg71
g1705
sg64
(lp1712
g57
(g78
g59
NtRp1713
(dp1714
g62
(dp1715
sg71
g1709
sg64
(lp1716
g57
(g58
g59
NtRp1717
(dp1718
g62
(dp1719
g70
I3
ssg71
g1713
sg64
(lp1720
S'1'
asbasbasbag57
(g73
g59
NtRp1721
(dp1722
g62
(dp1723
sg71
g1705
sg64
(lp1724
g57
(g78
g59
NtRp1725
(dp1726
g62
(dp1727
sg71
g1721
sg64
(lp1728
g57
(g58
g59
NtRp1729
(dp1730
g62
(dp1731
g70
I3
ssg71
g1725
sg64
(lp1732
S'0'
asbasbasbasbasbasbasbasbasbasbasbag57
(g73
g59
NtRp1733
(dp1734
g62
(dp1735
sg71
g67
sg64
(lp1736
g57
(g78
g59
NtRp1737
(dp1738
g62
(dp1739
g82
g83
ssg71
g1733
sg64
(lp1740
S'extension'
p1741
asbag57
(g78
g59
NtRp1742
(dp1743
g62
(dp1744
g89
g90
ssg71
g1733
sg64
(lp1745
S':'
asbag57
(g78
g59
NtRp1746
(dp1747
g62
(dp1748
sg71
g1733
sg64
(lp1749
g57
(g58
g59
NtRp1750
(dp1751
g62
(dp1752
g70
I5
ssg71
g1746
sg64
(lp1753
S'html'
p1754
asbasbasbag57
(g73
g59
NtRp1755
(dp1756
g62
(dp1757
sg71
g67
sg64
(lp1758
g57
(g78
g59
NtRp1759
(dp1760
g62
(dp1761
g82
g83
ssg71
g1755
sg64
(lp1762
S'folder'
p1763
asbag57
(g78
g59
NtRp1764
(dp1765
g62
(dp1766
g89
g90
ssg71
g1755
sg64
(lp1767
S':'
asbag57
(g78
g59
NtRp1768
(dp1769
g62
(dp1770
sg71
g1755
sg64
(lp1771
g57
(g58
g59
NtRp1772
(dp1773
g62
(dp1774
g70
I5
ssg71
g1768
sg64
(lp1775
S'/home/diego/web2py/applications/irecycle/'
p1776
asbasbasbag57
(g73
g59
NtRp1777
(dp1778
g62
(dp1779
sg71
g67
sg64
(lp1780
g57
(g78
g59
NtRp1781
(dp1782
g62
(dp1783
g82
g83
ssg71
g1777
sg64
(lp1784
S'function'
p1785
asbag57
(g78
g59
NtRp1786
(dp1787
g62
(dp1788
g89
g90
ssg71
g1777
sg64
(lp1789
S':'
asbag57
(g78
g59
NtRp1790
(dp1791
g62
(dp1792
sg71
g1777
sg64
(lp1793
g57
(g58
g59
NtRp1794
(dp1795
g62
(dp1796
g70
I5
ssg71
g1790
sg64
(lp1797
S'home'
p1798
asbasbasbag57
(g73
g59
NtRp1799
(dp1800
g62
(dp1801
sg71
g67
sg64
(lp1802
g57
(g78
g59
NtRp1803
(dp1804
g62
(dp1805
g82
g83
ssg71
g1799
sg64
(lp1806
S'get_vars'
p1807
asbag57
(g78
g59
NtRp1808
(dp1809
g62
(dp1810
g89
g90
ssg71
g1799
sg64
(lp1811
S':'
asbag57
(g78
g59
NtRp1812
(dp1813
g62
(dp1814
sg71
g1799
sg64
(lp1815
g57
(g58
g59
NtRp1816
(dp1817
g62
(dp1818
g70
I5
ssg71
g1812
sg64
(lp1819
g57
(g66
g59
NtRp1820
(dp1821
g62
(dp1822
g70
I4
ssg71
Nsg64
(lp1823
sbasbasbasbag57
(g73
g59
NtRp1824
(dp1825
g62
(dp1826
sg71
g67
sg64
(lp1827
g57
(g78
g59
NtRp1828
(dp1829
g62
(dp1830
g82
g83
ssg71
g1824
sg64
(lp1831
S'global_settings'
p1832
asbag57
(g78
g59
NtRp1833
(dp1834
g62
(dp1835
g89
g90
ssg71
g1824
sg64
(lp1836
S':'
asbag57
(g78
g59
NtRp1837
(dp1838
g62
(dp1839
sg71
g1824
sg64
(lp1840
g57
(g58
g59
NtRp1841
(dp1842
g62
(dp1843
g70
I5
ssg71
g1837
sg64
(lp1844
g57
(g66
g59
NtRp1845
(dp1846
g62
(dp1847
g70
I4
ssg71
Nsg64
(lp1848
g57
(g73
g59
NtRp1849
(dp1850
g62
(dp1851
sg71
g1845
sg64
(lp1852
g57
(g78
g59
NtRp1853
(dp1854
g62
(dp1855
g82
g83
ssg71
g1849
sg64
(lp1856
g686
asbag57
(g78
g59
NtRp1857
(dp1858
g62
(dp1859
g89
g90
ssg71
g1849
sg64
(lp1860
S':'
asbag57
(g78
g59
NtRp1861
(dp1862
g62
(dp1863
sg71
g1849
sg64
(lp1864
g57
(g58
g59
NtRp1865
(dp1866
g62
(dp1867
g70
I4
ssg71
g1861
sg64
(lp1868
S"set(['/home/diego/web2py/applications/irecycle/', '/home/diego/web2py/applications/admin/'])"
p1869
asbasbasbag57
(g73
g59
NtRp1870
(dp1871
g62
(dp1872
sg71
g1845
sg64
(lp1873
g57
(g78
g59
NtRp1874
(dp1875
g62
(dp1876
g82
g83
ssg71
g1870
sg64
(lp1877
g708
asbag57
(g78
g59
NtRp1878
(dp1879
g62
(dp1880
g89
g90
ssg71
g1870
sg64
(lp1881
S':'
asbag57
(g78
g59
NtRp1882
(dp1883
g62
(dp1884
sg71
g1870
sg64
(lp1885
g57
(g58
g59
NtRp1886
(dp1887
g62
(dp1888
g70
I4
ssg71
g1882
sg64
(lp1889
g721
asbasbasbag57
(g73
g59
NtRp1890
(dp1891
g62
(dp1892
sg71
g1845
sg64
(lp1893
g57
(g78
g59
NtRp1894
(dp1895
g62
(dp1896
g82
g83
ssg71
g1890
sg64
(lp1897
g730
asbag57
(g78
g59
NtRp1898
(dp1899
g62
(dp1900
g89
g90
ssg71
g1890
sg64
(lp1901
S':'
asbag57
(g78
g59
NtRp1902
(dp1903
g62
(dp1904
sg71
g1890
sg64
(lp1905
g57
(g58
g59
NtRp1906
(dp1907
g62
(dp1908
g70
I4
ssg71
g1902
sg64
(lp1909
g57
(g66
g59
NtRp1910
(dp1911
g62
(dp1912
g70
I3
ssg71
Nsg64
(lp1913
sbasbasbasbag57
(g73
g59
NtRp1914
(dp1915
g62
(dp1916
sg71
g1845
sg64
(lp1917
g57
(g78
g59
NtRp1918
(dp1919
g62
(dp1920
g82
g83
ssg71
g1914
sg64
(lp1921
g755
asbag57
(g78
g59
NtRp1922
(dp1923
g62
(dp1924
g89
g90
ssg71
g1914
sg64
(lp1925
S':'
asbag57
(g78
g59
NtRp1926
(dp1927
g62
(dp1928
sg71
g1914
sg64
(lp1929
g57
(g58
g59
NtRp1930
(dp1931
g62
(dp1932
g70
I4
ssg71
g1926
sg64
(lp1933
S"<Values at 0x2bde488: {'verbose': False, 'ip': '127.0.0.1', 'with_scheduler': False, 'ips': ['172.30.6.210'], 'shutdown_timeout': 5, 'taskbar': False, 'port': 8000, 'maxthreads': None, 'softcron': False, 'server_name': 'madagascar', 'bpython': False, 'nogui': False, 'pid_filename': 'httpserver.pid', 'extcron': False, 'runcron': False, 'run_system_tests': False, 'test': None, 'folder': '/home/diego/web2py', 'config': '', 'minthreads': None, 'winservice': '', 'shell': None, 'run': '', 'log_filename': 'httpserver.log', 'debuglevel': 30, 'args': [''], 'socket_timeout': 5, 'ssl_ca_certificate': None, 'scheduler': None, 'profiler_filename': None, 'ssl_private_key': '', 'scheduler_groups': None, 'password': '1234', 'request_queue_size': 5, 'ssl_certificate': '', 'cronjob': False, 'numthreads': None, 'quiet': False, 'interfaces': None, 'import_models': False, 'timeout': 10, 'plain': False, 'nobanner': False}>"
p1934
asbasbasbag57
(g73
g59
NtRp1935
(dp1936
g62
(dp1937
sg71
g1845
sg64
(lp1938
g57
(g78
g59
NtRp1939
(dp1940
g62
(dp1941
g82
g83
ssg71
g1935
sg64
(lp1942
g777
asbag57
(g78
g59
NtRp1943
(dp1944
g62
(dp1945
g89
g90
ssg71
g1935
sg64
(lp1946
S':'
asbag57
(g78
g59
NtRp1947
(dp1948
g62
(dp1949
sg71
g1935
sg64
(lp1950
g57
(g58
g59
NtRp1951
(dp1952
g62
(dp1953
g70
I4
ssg71
g1947
sg64
(lp1954
S'set([])'
p1955
asbasbasbag57
(g73
g59
NtRp1956
(dp1957
g62
(dp1958
sg71
g1845
sg64
(lp1959
g57
(g78
g59
NtRp1960
(dp1961
g62
(dp1962
g82
g83
ssg71
g1956
sg64
(lp1963
g799
asbag57
(g78
g59
NtRp1964
(dp1965
g62
(dp1966
g89
g90
ssg71
g1956
sg64
(lp1967
S':'
asbag57
(g78
g59
NtRp1968
(dp1969
g62
(dp1970
sg71
g1956
sg64
(lp1971
g57
(g58
g59
NtRp1972
(dp1973
g62
(dp1974
g70
I4
ssg71
g1968
sg64
(lp1975
g100
asbasbasbag57
(g73
g59
NtRp1976
(dp1977
g62
(dp1978
sg71
g1845
sg64
(lp1979
g57
(g78
g59
NtRp1980
(dp1981
g62
(dp1982
g82
g83
ssg71
g1976
sg64
(lp1983
g820
asbag57
(g78
g59
NtRp1984
(dp1985
g62
(dp1986
g89
g90
ssg71
g1976
sg64
(lp1987
S':'
asbag57
(g78
g59
NtRp1988
(dp1989
g62
(dp1990
sg71
g1976
sg64
(lp1991
g57
(g58
g59
NtRp1992
(dp1993
g62
(dp1994
g70
I4
ssg71
g1988
sg64
(lp1995
g833
asbasbasbag57
(g73
g59
NtRp1996
(dp1997
g62
(dp1998
sg71
g1845
sg64
(lp1999
g57
(g78
g59
NtRp2000
(dp2001
g62
(dp2002
g82
g83
ssg71
g1996
sg64
(lp2003
g1062
asbag57
(g78
g59
NtRp2004
(dp2005
g62
(dp2006
g89
g90
ssg71
g1996
sg64
(lp2007
S':'
asbag57
(g78
g59
NtRp2008
(dp2009
g62
(dp2010
sg71
g1996
sg64
(lp2011
g57
(g58
g59
NtRp2012
(dp2013
g62
(dp2014
g70
I4
ssg71
g2008
sg64
(lp2015
g100
asbasbasbag57
(g73
g59
NtRp2016
(dp2017
g62
(dp2018
sg71
g1845
sg64
(lp2019
g57
(g78
g59
NtRp2020
(dp2021
g62
(dp2022
g82
g83
ssg71
g2016
sg64
(lp2023
g1083
asbag57
(g78
g59
NtRp2024
(dp2025
g62
(dp2026
g89
g90
ssg71
g2016
sg64
(lp2027
S':'
asbag57
(g78
g59
NtRp2028
(dp2029
g62
(dp2030
sg71
g2016
sg64
(lp2031
g57
(g58
g59
NtRp2032
(dp2033
g62
(dp2034
g70
I4
ssg71
g2028
sg64
(lp2035
g100
asbasbasbag57
(g73
g59
NtRp2036
(dp2037
g62
(dp2038
sg71
g1845
sg64
(lp2039
g57
(g78
g59
NtRp2040
(dp2041
g62
(dp2042
g82
g83
ssg71
g2036
sg64
(lp2043
g1104
asbag57
(g78
g59
NtRp2044
(dp2045
g62
(dp2046
g89
g90
ssg71
g2036
sg64
(lp2047
S':'
asbag57
(g78
g59
NtRp2048
(dp2049
g62
(dp2050
sg71
g2036
sg64
(lp2051
g57
(g58
g59
NtRp2052
(dp2053
g62
(dp2054
g70
I4
ssg71
g2048
sg64
(lp2055
g57
(g66
g59
NtRp2056
(dp2057
g62
(dp2058
g70
I3
ssg71
Nsg64
(lp2059
g57
(g73
g59
NtRp2060
(dp2061
g62
(dp2062
sg71
g2056
sg64
(lp2063
g57
(g78
g59
NtRp2064
(dp2065
g62
(dp2066
sg71
g2060
sg64
(lp2067
g57
(g58
g59
NtRp2068
(dp2069
g62
(dp2070
g70
I3
ssg71
g2064
sg64
(lp2071
g1133
asbasbasbag57
(g73
g59
NtRp2072
(dp2073
g62
(dp2074
sg71
g2056
sg64
(lp2075
g57
(g78
g59
NtRp2076
(dp2077
g62
(dp2078
sg71
g2072
sg64
(lp2079
g57
(g58
g59
NtRp2080
(dp2081
g62
(dp2082
g70
I3
ssg71
g2076
sg64
(lp2083
g1146
asbasbasbag57
(g73
g59
NtRp2084
(dp2085
g62
(dp2086
sg71
g2056
sg64
(lp2087
g57
(g78
g59
NtRp2088
(dp2089
g62
(dp2090
sg71
g2084
sg64
(lp2091
g57
(g58
g59
NtRp2092
(dp2093
g62
(dp2094
g70
I3
ssg71
g2088
sg64
(lp2095
g1159
asbasbasbag57
(g73
g59
NtRp2096
(dp2097
g62
(dp2098
sg71
g2056
sg64
(lp2099
g57
(g78
g59
NtRp2100
(dp2101
g62
(dp2102
sg71
g2096
sg64
(lp2103
g57
(g58
g59
NtRp2104
(dp2105
g62
(dp2106
g70
I3
ssg71
g2100
sg64
(lp2107
g1172
asbasbasbag57
(g73
g59
NtRp2108
(dp2109
g62
(dp2110
sg71
g2056
sg64
(lp2111
g57
(g78
g59
NtRp2112
(dp2113
g62
(dp2114
sg71
g2108
sg64
(lp2115
g57
(g58
g59
NtRp2116
(dp2117
g62
(dp2118
g70
I3
ssg71
g2112
sg64
(lp2119
g1185
asbasbasbasbasbasbasbag57
(g73
g59
NtRp2120
(dp2121
g62
(dp2122
sg71
g1845
sg64
(lp2123
g57
(g78
g59
NtRp2124
(dp2125
g62
(dp2126
g82
g83
ssg71
g2120
sg64
(lp2127
g1453
asbag57
(g78
g59
NtRp2128
(dp2129
g62
(dp2130
g89
g90
ssg71
g2120
sg64
(lp2131
S':'
asbag57
(g78
g59
NtRp2132
(dp2133
g62
(dp2134
sg71
g2120
sg64
(lp2135
g57
(g58
g59
NtRp2136
(dp2137
g62
(dp2138
g70
I4
ssg71
g2132
sg64
(lp2139
g57
(g66
g59
NtRp2140
(dp2141
g62
(dp2142
g70
I3
ssg71
Nsg64
(lp2143
g57
(g73
g59
NtRp2144
(dp2145
g62
(dp2146
sg71
g2140
sg64
(lp2147
g57
(g78
g59
NtRp2148
(dp2149
g62
(dp2150
sg71
g2144
sg64
(lp2151
g57
(g58
g59
NtRp2152
(dp2153
g62
(dp2154
g70
I3
ssg71
g2148
sg64
(lp2155
S'2'
asbasbasbag57
(g73
g59
NtRp2156
(dp2157
g62
(dp2158
sg71
g2140
sg64
(lp2159
g57
(g78
g59
NtRp2160
(dp2161
g62
(dp2162
sg71
g2156
sg64
(lp2163
g57
(g58
g59
NtRp2164
(dp2165
g62
(dp2166
g70
I3
ssg71
g2160
sg64
(lp2167
S'3'
asbasbasbag57
(g73
g59
NtRp2168
(dp2169
g62
(dp2170
sg71
g2140
sg64
(lp2171
g57
(g78
g59
NtRp2172
(dp2173
g62
(dp2174
sg71
g2168
sg64
(lp2175
g57
(g58
g59
NtRp2176
(dp2177
g62
(dp2178
g70
I3
ssg71
g2172
sg64
(lp2179
S'2'
asbasbasbag57
(g73
g59
NtRp2180
(dp2181
g62
(dp2182
sg71
g2140
sg64
(lp2183
g57
(g78
g59
NtRp2184
(dp2185
g62
(dp2186
sg71
g2180
sg64
(lp2187
g57
(g58
g59
NtRp2188
(dp2189
g62
(dp2190
g70
I3
ssg71
g2184
sg64
(lp2191
S'datetime.datetime(2012, 12, 17, 15, 3, 30)'
p2192
asbasbasbag57
(g73
g59
NtRp2193
(dp2194
g62
(dp2195
sg71
g2140
sg64
(lp2196
g57
(g78
g59
NtRp2197
(dp2198
g62
(dp2199
sg71
g2193
sg64
(lp2200
g57
(g58
g59
NtRp2201
(dp2202
g62
(dp2203
g70
I3
ssg71
g2197
sg64
(lp2204
g1531
asbasbasbasbasbasbasbasbasbasbasbag57
(g73
g59
NtRp2205
(dp2206
g62
(dp2207
sg71
g67
sg64
(lp2208
g57
(g78
g59
NtRp2209
(dp2210
g62
(dp2211
g82
g83
ssg71
g2205
sg64
(lp2212
S'is_https'
p2213
asbag57
(g78
g59
NtRp2214
(dp2215
g62
(dp2216
g89
g90
ssg71
g2205
sg64
(lp2217
S':'
asbag57
(g78
g59
NtRp2218
(dp2219
g62
(dp2220
sg71
g2205
sg64
(lp2221
g57
(g58
g59
NtRp2222
(dp2223
g62
(dp2224
g70
I5
ssg71
g2218
sg64
(lp2225
g100
asbasbasbag57
(g73
g59
NtRp2226
(dp2227
g62
(dp2228
sg71
g67
sg64
(lp2229
g57
(g78
g59
NtRp2230
(dp2231
g62
(dp2232
g82
g83
ssg71
g2226
sg64
(lp2233
S'is_local'
p2234
asbag57
(g78
g59
NtRp2235
(dp2236
g62
(dp2237
g89
g90
ssg71
g2226
sg64
(lp2238
S':'
asbag57
(g78
g59
NtRp2239
(dp2240
g62
(dp2241
sg71
g2226
sg64
(lp2242
g57
(g58
g59
NtRp2243
(dp2244
g62
(dp2245
g70
I5
ssg71
g2239
sg64
(lp2246
g1640
asbasbasbag57
(g73
g59
NtRp2247
(dp2248
g62
(dp2249
sg71
g67
sg64
(lp2250
g57
(g78
g59
NtRp2251
(dp2252
g62
(dp2253
g82
g83
ssg71
g2247
sg64
(lp2254
S'is_restful'
p2255
asbag57
(g78
g59
NtRp2256
(dp2257
g62
(dp2258
g89
g90
ssg71
g2247
sg64
(lp2259
S':'
asbag57
(g78
g59
NtRp2260
(dp2261
g62
(dp2262
sg71
g2247
sg64
(lp2263
g57
(g58
g59
NtRp2264
(dp2265
g62
(dp2266
g70
I5
ssg71
g2260
sg64
(lp2267
g100
asbasbasbag57
(g73
g59
NtRp2268
(dp2269
g62
(dp2270
sg71
g67
sg64
(lp2271
g57
(g78
g59
NtRp2272
(dp2273
g62
(dp2274
g82
g83
ssg71
g2268
sg64
(lp2275
S'now'
p2276
asbag57
(g78
g59
NtRp2277
(dp2278
g62
(dp2279
g89
g90
ssg71
g2268
sg64
(lp2280
S':'
asbag57
(g78
g59
NtRp2281
(dp2282
g62
(dp2283
sg71
g2268
sg64
(lp2284
g57
(g58
g59
NtRp2285
(dp2286
g62
(dp2287
g70
I5
ssg71
g2281
sg64
(lp2288
S'datetime.datetime(2013, 1, 31, 13, 51, 2, 611047)'
p2289
asbasbasbag57
(g73
g59
NtRp2290
(dp2291
g62
(dp2292
sg71
g67
sg64
(lp2293
g57
(g78
g59
NtRp2294
(dp2295
g62
(dp2296
g82
g83
ssg71
g2290
sg64
(lp2297
S'post_vars'
p2298
asbag57
(g78
g59
NtRp2299
(dp2300
g62
(dp2301
g89
g90
ssg71
g2290
sg64
(lp2302
S':'
asbag57
(g78
g59
NtRp2303
(dp2304
g62
(dp2305
sg71
g2290
sg64
(lp2306
g57
(g58
g59
NtRp2307
(dp2308
g62
(dp2309
g70
I5
ssg71
g2303
sg64
(lp2310
g57
(g66
g59
NtRp2311
(dp2312
g62
(dp2313
g70
I4
ssg71
Nsg64
(lp2314
sbasbasbasbag57
(g73
g59
NtRp2315
(dp2316
g62
(dp2317
sg71
g67
sg64
(lp2318
g57
(g78
g59
NtRp2319
(dp2320
g62
(dp2321
g82
g83
ssg71
g2315
sg64
(lp2322
S'raw_args'
p2323
asbag57
(g78
g59
NtRp2324
(dp2325
g62
(dp2326
g89
g90
ssg71
g2315
sg64
(lp2327
S':'
asbag57
(g78
g59
NtRp2328
(dp2329
g62
(dp2330
sg71
g2315
sg64
(lp2331
g57
(g58
g59
NtRp2332
(dp2333
g62
(dp2334
g70
I5
ssg71
g2328
sg64
(lp2335
g159
asbasbasbag57
(g73
g59
NtRp2336
(dp2337
g62
(dp2338
sg71
g67
sg64
(lp2339
g57
(g78
g59
NtRp2340
(dp2341
g62
(dp2342
g82
g83
ssg71
g2336
sg64
(lp2343
S'raw_extension'
p2344
asbag57
(g78
g59
NtRp2345
(dp2346
g62
(dp2347
g89
g90
ssg71
g2336
sg64
(lp2348
S':'
asbag57
(g78
g59
NtRp2349
(dp2350
g62
(dp2351
sg71
g2336
sg64
(lp2352
g57
(g58
g59
NtRp2353
(dp2354
g62
(dp2355
g70
I5
ssg71
g2349
sg64
(lp2356
S'None'
p2357
asbasbasbag57
(g73
g59
NtRp2358
(dp2359
g62
(dp2360
sg71
g67
sg64
(lp2361
g57
(g78
g59
NtRp2362
(dp2363
g62
(dp2364
g82
g83
ssg71
g2358
sg64
(lp2365
S'url'
p2366
asbag57
(g78
g59
NtRp2367
(dp2368
g62
(dp2369
g89
g90
ssg71
g2358
sg64
(lp2370
S':'
asbag57
(g78
g59
NtRp2371
(dp2372
g62
(dp2373
sg71
g2358
sg64
(lp2374
g57
(g58
g59
NtRp2375
(dp2376
g62
(dp2377
g70
I5
ssg71
g2371
sg64
(lp2378
g1207
asbasbasbag57
(g73
g59
NtRp2379
(dp2380
g62
(dp2381
sg71
g67
sg64
(lp2382
g57
(g78
g59
NtRp2383
(dp2384
g62
(dp2385
g82
g83
ssg71
g2379
sg64
(lp2386
S'utcnow'
p2387
asbag57
(g78
g59
NtRp2388
(dp2389
g62
(dp2390
g89
g90
ssg71
g2379
sg64
(lp2391
S':'
asbag57
(g78
g59
NtRp2392
(dp2393
g62
(dp2394
sg71
g2379
sg64
(lp2395
g57
(g58
g59
NtRp2396
(dp2397
g62
(dp2398
g70
I5
ssg71
g2392
sg64
(lp2399
S'datetime.datetime(2013, 1, 31, 15, 51, 2, 611054)'
p2400
asbasbasbag57
(g73
g59
NtRp2401
(dp2402
g62
(dp2403
sg71
g67
sg64
(lp2404
g57
(g78
g59
NtRp2405
(dp2406
g62
(dp2407
g82
g83
ssg71
g2401
sg64
(lp2408
S'uuid'
p2409
asbag57
(g78
g59
NtRp2410
(dp2411
g62
(dp2412
g89
g90
ssg71
g2401
sg64
(lp2413
S':'
asbag57
(g78
g59
NtRp2414
(dp2415
g62
(dp2416
sg71
g2401
sg64
(lp2417
g57
(g58
g59
NtRp2418
(dp2419
g62
(dp2420
g70
I5
ssg71
g2414
sg64
(lp2421
S'irecycle/127.0.0.1.2013-01-31.13-51-02.d43a7604-fd34-4c3e-838f-c5a91d8fca62'
p2422
asbasbasbag57
(g73
g59
NtRp2423
(dp2424
g62
(dp2425
sg71
g67
sg64
(lp2426
g57
(g78
g59
NtRp2427
(dp2428
g62
(dp2429
g82
g83
ssg71
g2423
sg64
(lp2430
S'vars'
p2431
asbag57
(g78
g59
NtRp2432
(dp2433
g62
(dp2434
g89
g90
ssg71
g2423
sg64
(lp2435
S':'
asbag57
(g78
g59
NtRp2436
(dp2437
g62
(dp2438
sg71
g2423
sg64
(lp2439
g57
(g58
g59
NtRp2440
(dp2441
g62
(dp2442
g70
I5
ssg71
g2436
sg64
(lp2443
g57
(g66
g59
NtRp2444
(dp2445
g62
(dp2446
g70
I4
ssg71
Nsg64
(lp2447
sbasbasbasbag57
(g73
g59
NtRp2448
(dp2449
g62
(dp2450
sg71
g67
sg64
(lp2451
g57
(g78
g59
NtRp2452
(dp2453
g62
(dp2454
g82
g83
ssg71
g2448
sg64
(lp2455
S'wsgi'
p2456
asbag57
(g78
g59
NtRp2457
(dp2458
g62
(dp2459
g89
g90
ssg71
g2448
sg64
(lp2460
S':'
asbag57
(g78
g59
NtRp2461
(dp2462
g62
(dp2463
sg71
g2448
sg64
(lp2464
g57
(g58
g59
NtRp2465
(dp2466
g62
(dp2467
g70
I5
ssg71
g2461
sg64
(lp2468
g57
(g66
g59
NtRp2469
(dp2470
g62
(dp2471
g70
I4
ssg71
Nsg64
(lp2472
g57
(g73
g59
NtRp2473
(dp2474
g62
(dp2475
sg71
g2469
sg64
(lp2476
g57
(g78
g59
NtRp2477
(dp2478
g62
(dp2479
g82
g83
ssg71
g2473
sg64
(lp2480
S'environ'
p2481
asbag57
(g78
g59
NtRp2482
(dp2483
g62
(dp2484
g89
g90
ssg71
g2473
sg64
(lp2485
S':'
asbag57
(g78
g59
NtRp2486
(dp2487
g62
(dp2488
sg71
g2473
sg64
(lp2489
g57
(g58
g59
NtRp2490
(dp2491
g62
(dp2492
g70
I4
ssg71
g2486
sg64
(lp2493
g57
(g66
g59
NtRp2494
(dp2495
g62
(dp2496
g70
I3
ssg71
Nsg64
(lp2497
g57
(g73
g59
NtRp2498
(dp2499
g62
(dp2500
sg71
g2494
sg64
(lp2501
g57
(g78
g59
NtRp2502
(dp2503
g62
(dp2504
g82
g83
ssg71
g2498
sg64
(lp2505
S'HTTP_ACCEPT'
p2506
asbag57
(g78
g59
NtRp2507
(dp2508
g62
(dp2509
g89
g90
ssg71
g2498
sg64
(lp2510
S':'
asbag57
(g78
g59
NtRp2511
(dp2512
g62
(dp2513
sg71
g2498
sg64
(lp2514
g57
(g58
g59
NtRp2515
(dp2516
g62
(dp2517
g70
I3
ssg71
g2511
sg64
(lp2518
g855
asbasbasbag57
(g73
g59
NtRp2519
(dp2520
g62
(dp2521
sg71
g2494
sg64
(lp2522
g57
(g78
g59
NtRp2523
(dp2524
g62
(dp2525
g82
g83
ssg71
g2519
sg64
(lp2526
S'HTTP_ACCEPT_CHARSET'
p2527
asbag57
(g78
g59
NtRp2528
(dp2529
g62
(dp2530
g89
g90
ssg71
g2519
sg64
(lp2531
S':'
asbag57
(g78
g59
NtRp2532
(dp2533
g62
(dp2534
sg71
g2519
sg64
(lp2535
g57
(g58
g59
NtRp2536
(dp2537
g62
(dp2538
g70
I3
ssg71
g2532
sg64
(lp2539
g877
asbasbasbag57
(g73
g59
NtRp2540
(dp2541
g62
(dp2542
sg71
g2494
sg64
(lp2543
g57
(g78
g59
NtRp2544
(dp2545
g62
(dp2546
g82
g83
ssg71
g2540
sg64
(lp2547
S'HTTP_ACCEPT_ENCODING'
p2548
asbag57
(g78
g59
NtRp2549
(dp2550
g62
(dp2551
g89
g90
ssg71
g2540
sg64
(lp2552
S':'
asbag57
(g78
g59
NtRp2553
(dp2554
g62
(dp2555
sg71
g2540
sg64
(lp2556
g57
(g58
g59
NtRp2557
(dp2558
g62
(dp2559
g70
I3
ssg71
g2553
sg64
(lp2560
g899
asbasbasbag57
(g73
g59
NtRp2561
(dp2562
g62
(dp2563
sg71
g2494
sg64
(lp2564
g57
(g78
g59
NtRp2565
(dp2566
g62
(dp2567
g82
g83
ssg71
g2561
sg64
(lp2568
S'HTTP_ACCEPT_LANGUAGE'
p2569
asbag57
(g78
g59
NtRp2570
(dp2571
g62
(dp2572
g89
g90
ssg71
g2561
sg64
(lp2573
S':'
asbag57
(g78
g59
NtRp2574
(dp2575
g62
(dp2576
sg71
g2561
sg64
(lp2577
g57
(g58
g59
NtRp2578
(dp2579
g62
(dp2580
g70
I3
ssg71
g2574
sg64
(lp2581
g921
asbasbasbag57
(g73
g59
NtRp2582
(dp2583
g62
(dp2584
sg71
g2494
sg64
(lp2585
g57
(g78
g59
NtRp2586
(dp2587
g62
(dp2588
g82
g83
ssg71
g2582
sg64
(lp2589
S'HTTP_CACHE_CONTROL'
p2590
asbag57
(g78
g59
NtRp2591
(dp2592
g62
(dp2593
g89
g90
ssg71
g2582
sg64
(lp2594
S':'
asbag57
(g78
g59
NtRp2595
(dp2596
g62
(dp2597
sg71
g2582
sg64
(lp2598
g57
(g58
g59
NtRp2599
(dp2600
g62
(dp2601
g70
I3
ssg71
g2595
sg64
(lp2602
g943
asbasbasbag57
(g73
g59
NtRp2603
(dp2604
g62
(dp2605
sg71
g2494
sg64
(lp2606
g57
(g78
g59
NtRp2607
(dp2608
g62
(dp2609
g82
g83
ssg71
g2603
sg64
(lp2610
S'HTTP_CONNECTION'
p2611
asbag57
(g78
g59
NtRp2612
(dp2613
g62
(dp2614
g89
g90
ssg71
g2603
sg64
(lp2615
S':'
asbag57
(g78
g59
NtRp2616
(dp2617
g62
(dp2618
sg71
g2603
sg64
(lp2619
g57
(g58
g59
NtRp2620
(dp2621
g62
(dp2622
g70
I3
ssg71
g2616
sg64
(lp2623
g965
asbasbasbag57
(g73
g59
NtRp2624
(dp2625
g62
(dp2626
sg71
g2494
sg64
(lp2627
g57
(g78
g59
NtRp2628
(dp2629
g62
(dp2630
g82
g83
ssg71
g2624
sg64
(lp2631
S'HTTP_COOKIE'
p2632
asbag57
(g78
g59
NtRp2633
(dp2634
g62
(dp2635
g89
g90
ssg71
g2624
sg64
(lp2636
S':'
asbag57
(g78
g59
NtRp2637
(dp2638
g62
(dp2639
sg71
g2624
sg64
(lp2640
g57
(g58
g59
NtRp2641
(dp2642
g62
(dp2643
g70
I3
ssg71
g2637
sg64
(lp2644
g987
asbasbasbag57
(g73
g59
NtRp2645
(dp2646
g62
(dp2647
sg71
g2494
sg64
(lp2648
g57
(g78
g59
NtRp2649
(dp2650
g62
(dp2651
g82
g83
ssg71
g2645
sg64
(lp2652
S'HTTP_HOST'
p2653
asbag57
(g78
g59
NtRp2654
(dp2655
g62
(dp2656
g89
g90
ssg71
g2645
sg64
(lp2657
S':'
asbag57
(g78
g59
NtRp2658
(dp2659
g62
(dp2660
sg71
g2645
sg64
(lp2661
g57
(g58
g59
NtRp2662
(dp2663
g62
(dp2664
g70
I3
ssg71
g2658
sg64
(lp2665
g1009
asbasbasbag57
(g73
g59
NtRp2666
(dp2667
g62
(dp2668
sg71
g2494
sg64
(lp2669
g57
(g78
g59
NtRp2670
(dp2671
g62
(dp2672
g82
g83
ssg71
g2666
sg64
(lp2673
S'HTTP_REFERER'
p2674
asbag57
(g78
g59
NtRp2675
(dp2676
g62
(dp2677
g89
g90
ssg71
g2666
sg64
(lp2678
S':'
asbag57
(g78
g59
NtRp2679
(dp2680
g62
(dp2681
sg71
g2666
sg64
(lp2682
g57
(g58
g59
NtRp2683
(dp2684
g62
(dp2685
g70
I3
ssg71
g2679
sg64
(lp2686
g1031
asbasbasbag57
(g73
g59
NtRp2687
(dp2688
g62
(dp2689
sg71
g2494
sg64
(lp2690
g57
(g78
g59
NtRp2691
(dp2692
g62
(dp2693
g82
g83
ssg71
g2687
sg64
(lp2694
S'HTTP_USER_AGENT'
p2695
asbag57
(g78
g59
NtRp2696
(dp2697
g62
(dp2698
g89
g90
ssg71
g2687
sg64
(lp2699
S':'
asbag57
(g78
g59
NtRp2700
(dp2701
g62
(dp2702
sg71
g2687
sg64
(lp2703
g57
(g58
g59
NtRp2704
(dp2705
g62
(dp2706
g70
I3
ssg71
g2700
sg64
(lp2707
g1053
asbasbasbag57
(g73
g59
NtRp2708
(dp2709
g62
(dp2710
sg71
g2494
sg64
(lp2711
g57
(g78
g59
NtRp2712
(dp2713
g62
(dp2714
g82
g83
ssg71
g2708
sg64
(lp2715
S'PATH_INFO'
p2716
asbag57
(g78
g59
NtRp2717
(dp2718
g62
(dp2719
g89
g90
ssg71
g2708
sg64
(lp2720
S':'
asbag57
(g78
g59
NtRp2721
(dp2722
g62
(dp2723
sg71
g2708
sg64
(lp2724
g57
(g58
g59
NtRp2725
(dp2726
g62
(dp2727
g70
I3
ssg71
g2721
sg64
(lp2728
g1207
asbasbasbag57
(g73
g59
NtRp2729
(dp2730
g62
(dp2731
sg71
g2494
sg64
(lp2732
g57
(g78
g59
NtRp2733
(dp2734
g62
(dp2735
g82
g83
ssg71
g2729
sg64
(lp2736
S'QUERY_STRING'
p2737
asbag57
(g78
g59
NtRp2738
(dp2739
g62
(dp2740
g89
g90
ssg71
g2729
sg64
(lp2741
S':'
asbag57
(g78
g59
NtRp2742
(dp2743
g62
(dp2744
sg71
g2729
sg64
(lp2745
g57
(g58
g59
NtRp2746
(dp2747
g62
(dp2748
g70
I3
ssg71
g2742
sg64
(lp2749
S''
asbasbasbag57
(g73
g59
NtRp2750
(dp2751
g62
(dp2752
sg71
g2494
sg64
(lp2753
g57
(g78
g59
NtRp2754
(dp2755
g62
(dp2756
g82
g83
ssg71
g2750
sg64
(lp2757
S'REMOTE_ADDR'
p2758
asbag57
(g78
g59
NtRp2759
(dp2760
g62
(dp2761
g89
g90
ssg71
g2750
sg64
(lp2762
S':'
asbag57
(g78
g59
NtRp2763
(dp2764
g62
(dp2765
sg71
g2750
sg64
(lp2766
g57
(g58
g59
NtRp2767
(dp2768
g62
(dp2769
g70
I3
ssg71
g2763
sg64
(lp2770
g225
asbasbasbag57
(g73
g59
NtRp2771
(dp2772
g62
(dp2773
sg71
g2494
sg64
(lp2774
g57
(g78
g59
NtRp2775
(dp2776
g62
(dp2777
g82
g83
ssg71
g2771
sg64
(lp2778
S'REMOTE_PORT'
p2779
asbag57
(g78
g59
NtRp2780
(dp2781
g62
(dp2782
g89
g90
ssg71
g2771
sg64
(lp2783
S':'
asbag57
(g78
g59
NtRp2784
(dp2785
g62
(dp2786
sg71
g2771
sg64
(lp2787
g57
(g58
g59
NtRp2788
(dp2789
g62
(dp2790
g70
I3
ssg71
g2784
sg64
(lp2791
g1271
asbasbasbag57
(g73
g59
NtRp2792
(dp2793
g62
(dp2794
sg71
g2494
sg64
(lp2795
g57
(g78
g59
NtRp2796
(dp2797
g62
(dp2798
g82
g83
ssg71
g2792
sg64
(lp2799
S'REQUEST_METHOD'
p2800
asbag57
(g78
g59
NtRp2801
(dp2802
g62
(dp2803
g89
g90
ssg71
g2792
sg64
(lp2804
S':'
asbag57
(g78
g59
NtRp2805
(dp2806
g62
(dp2807
sg71
g2792
sg64
(lp2808
g57
(g58
g59
NtRp2809
(dp2810
g62
(dp2811
g70
I3
ssg71
g2805
sg64
(lp2812
g1293
asbasbasbag57
(g73
g59
NtRp2813
(dp2814
g62
(dp2815
sg71
g2494
sg64
(lp2816
g57
(g78
g59
NtRp2817
(dp2818
g62
(dp2819
g82
g83
ssg71
g2813
sg64
(lp2820
S'REQUEST_URI'
p2821
asbag57
(g78
g59
NtRp2822
(dp2823
g62
(dp2824
g89
g90
ssg71
g2813
sg64
(lp2825
S':'
asbag57
(g78
g59
NtRp2826
(dp2827
g62
(dp2828
sg71
g2813
sg64
(lp2829
g57
(g58
g59
NtRp2830
(dp2831
g62
(dp2832
g70
I3
ssg71
g2826
sg64
(lp2833
g1207
asbasbasbag57
(g73
g59
NtRp2834
(dp2835
g62
(dp2836
sg71
g2494
sg64
(lp2837
g57
(g78
g59
NtRp2838
(dp2839
g62
(dp2840
g82
g83
ssg71
g2834
sg64
(lp2841
S'SCRIPT_NAME'
p2842
asbag57
(g78
g59
NtRp2843
(dp2844
g62
(dp2845
g89
g90
ssg71
g2834
sg64
(lp2846
S':'
asbag57
(g78
g59
NtRp2847
(dp2848
g62
(dp2849
sg71
g2834
sg64
(lp2850
g57
(g58
g59
NtRp2851
(dp2852
g62
(dp2853
g70
I3
ssg71
g2847
sg64
(lp2854
S''
asbasbasbag57
(g73
g59
NtRp2855
(dp2856
g62
(dp2857
sg71
g2494
sg64
(lp2858
g57
(g78
g59
NtRp2859
(dp2860
g62
(dp2861
g82
g83
ssg71
g2855
sg64
(lp2862
S'SERVER_NAME'
p2863
asbag57
(g78
g59
NtRp2864
(dp2865
g62
(dp2866
g89
g90
ssg71
g2855
sg64
(lp2867
S':'
asbag57
(g78
g59
NtRp2868
(dp2869
g62
(dp2870
sg71
g2855
sg64
(lp2871
g57
(g58
g59
NtRp2872
(dp2873
g62
(dp2874
g70
I3
ssg71
g2868
sg64
(lp2875
g1357
asbasbasbag57
(g73
g59
NtRp2876
(dp2877
g62
(dp2878
sg71
g2494
sg64
(lp2879
g57
(g78
g59
NtRp2880
(dp2881
g62
(dp2882
g82
g83
ssg71
g2876
sg64
(lp2883
S'SERVER_PORT'
p2884
asbag57
(g78
g59
NtRp2885
(dp2886
g62
(dp2887
g89
g90
ssg71
g2876
sg64
(lp2888
S':'
asbag57
(g78
g59
NtRp2889
(dp2890
g62
(dp2891
sg71
g2876
sg64
(lp2892
g57
(g58
g59
NtRp2893
(dp2894
g62
(dp2895
g70
I3
ssg71
g2889
sg64
(lp2896
g1379
asbasbasbag57
(g73
g59
NtRp2897
(dp2898
g62
(dp2899
sg71
g2494
sg64
(lp2900
g57
(g78
g59
NtRp2901
(dp2902
g62
(dp2903
g82
g83
ssg71
g2897
sg64
(lp2904
S'SERVER_PROTOCOL'
p2905
asbag57
(g78
g59
NtRp2906
(dp2907
g62
(dp2908
g89
g90
ssg71
g2897
sg64
(lp2909
S':'
asbag57
(g78
g59
NtRp2910
(dp2911
g62
(dp2912
sg71
g2897
sg64
(lp2913
g57
(g58
g59
NtRp2914
(dp2915
g62
(dp2916
g70
I3
ssg71
g2910
sg64
(lp2917
g1401
asbasbasbag57
(g73
g59
NtRp2918
(dp2919
g62
(dp2920
sg71
g2494
sg64
(lp2921
g57
(g78
g59
NtRp2922
(dp2923
g62
(dp2924
g82
g83
ssg71
g2918
sg64
(lp2925
S'SERVER_SOFTWARE'
p2926
asbag57
(g78
g59
NtRp2927
(dp2928
g62
(dp2929
g89
g90
ssg71
g2918
sg64
(lp2930
S':'
asbag57
(g78
g59
NtRp2931
(dp2932
g62
(dp2933
sg71
g2918
sg64
(lp2934
g57
(g58
g59
NtRp2935
(dp2936
g62
(dp2937
g70
I3
ssg71
g2931
sg64
(lp2938
g1423
asbasbasbag57
(g73
g59
NtRp2939
(dp2940
g62
(dp2941
sg71
g2494
sg64
(lp2942
g57
(g78
g59
NtRp2943
(dp2944
g62
(dp2945
g82
g83
ssg71
g2939
sg64
(lp2946
S'wsgi.errors'
p2947
asbag57
(g78
g59
NtRp2948
(dp2949
g62
(dp2950
g89
g90
ssg71
g2939
sg64
(lp2951
S':'
asbag57
(g78
g59
NtRp2952
(dp2953
g62
(dp2954
sg71
g2939
sg64
(lp2955
g57
(g58
g59
NtRp2956
(dp2957
g62
(dp2958
g70
I3
ssg71
g2952
sg64
(lp2959
S"<open file '<stderr>', mode 'w' at 0x7fbe13edc270>"
p2960
asbasbasbag57
(g73
g59
NtRp2961
(dp2962
g62
(dp2963
sg71
g2494
sg64
(lp2964
g57
(g78
g59
NtRp2965
(dp2966
g62
(dp2967
g82
g83
ssg71
g2961
sg64
(lp2968
S'wsgi.file_wrapper'
p2969
asbag57
(g78
g59
NtRp2970
(dp2971
g62
(dp2972
g89
g90
ssg71
g2961
sg64
(lp2973
S':'
asbag57
(g78
g59
NtRp2974
(dp2975
g62
(dp2976
sg71
g2961
sg64
(lp2977
g57
(g58
g59
NtRp2978
(dp2979
g62
(dp2980
g70
I3
ssg71
g2974
sg64
(lp2981
S'<class wsgiref.util.FileWrapper at 0x2b3d738>'
p2982
asbasbasbag57
(g73
g59
NtRp2983
(dp2984
g62
(dp2985
sg71
g2494
sg64
(lp2986
g57
(g78
g59
NtRp2987
(dp2988
g62
(dp2989
g82
g83
ssg71
g2983
sg64
(lp2990
S'wsgi.input'
p2991
asbag57
(g78
g59
NtRp2992
(dp2993
g62
(dp2994
g89
g90
ssg71
g2983
sg64
(lp2995
S':'
asbag57
(g78
g59
NtRp2996
(dp2997
g62
(dp2998
sg71
g2983
sg64
(lp2999
g57
(g58
g59
NtRp3000
(dp3001
g62
(dp3002
g70
I3
ssg71
g2996
sg64
(lp3003
S'<cStringIO.StringO object at 0x7fbde4509c70>'
p3004
asbasbasbag57
(g73
g59
NtRp3005
(dp3006
g62
(dp3007
sg71
g2494
sg64
(lp3008
g57
(g78
g59
NtRp3009
(dp3010
g62
(dp3011
g82
g83
ssg71
g3005
sg64
(lp3012
S'wsgi.multiprocess'
p3013
asbag57
(g78
g59
NtRp3014
(dp3015
g62
(dp3016
g89
g90
ssg71
g3005
sg64
(lp3017
S':'
asbag57
(g78
g59
NtRp3018
(dp3019
g62
(dp3020
sg71
g3005
sg64
(lp3021
g57
(g58
g59
NtRp3022
(dp3023
g62
(dp3024
g70
I3
ssg71
g3018
sg64
(lp3025
g100
asbasbasbag57
(g73
g59
NtRp3026
(dp3027
g62
(dp3028
sg71
g2494
sg64
(lp3029
g57
(g78
g59
NtRp3030
(dp3031
g62
(dp3032
g82
g83
ssg71
g3026
sg64
(lp3033
S'wsgi.multithread'
p3034
asbag57
(g78
g59
NtRp3035
(dp3036
g62
(dp3037
g89
g90
ssg71
g3026
sg64
(lp3038
S':'
asbag57
(g78
g59
NtRp3039
(dp3040
g62
(dp3041
sg71
g3026
sg64
(lp3042
g57
(g58
g59
NtRp3043
(dp3044
g62
(dp3045
g70
I3
ssg71
g3039
sg64
(lp3046
g1640
asbasbasbag57
(g73
g59
NtRp3047
(dp3048
g62
(dp3049
sg71
g2494
sg64
(lp3050
g57
(g78
g59
NtRp3051
(dp3052
g62
(dp3053
g82
g83
ssg71
g3047
sg64
(lp3054
S'wsgi.run_once'
p3055
asbag57
(g78
g59
NtRp3056
(dp3057
g62
(dp3058
g89
g90
ssg71
g3047
sg64
(lp3059
S':'
asbag57
(g78
g59
NtRp3060
(dp3061
g62
(dp3062
sg71
g3047
sg64
(lp3063
g57
(g58
g59
NtRp3064
(dp3065
g62
(dp3066
g70
I3
ssg71
g3060
sg64
(lp3067
g100
asbasbasbag57
(g73
g59
NtRp3068
(dp3069
g62
(dp3070
sg71
g2494
sg64
(lp3071
g57
(g78
g59
NtRp3072
(dp3073
g62
(dp3074
g82
g83
ssg71
g3068
sg64
(lp3075
S'wsgi.url_scheme'
p3076
asbag57
(g78
g59
NtRp3077
(dp3078
g62
(dp3079
g89
g90
ssg71
g3068
sg64
(lp3080
S':'
asbag57
(g78
g59
NtRp3081
(dp3082
g62
(dp3083
sg71
g3068
sg64
(lp3084
g57
(g58
g59
NtRp3085
(dp3086
g62
(dp3087
g70
I3
ssg71
g3081
sg64
(lp3088
g1683
asbasbasbag57
(g73
g59
NtRp3089
(dp3090
g62
(dp3091
sg71
g2494
sg64
(lp3092
g57
(g78
g59
NtRp3093
(dp3094
g62
(dp3095
g82
g83
ssg71
g3089
sg64
(lp3096
S'wsgi.version'
p3097
asbag57
(g78
g59
NtRp3098
(dp3099
g62
(dp3100
g89
g90
ssg71
g3089
sg64
(lp3101
S':'
asbag57
(g78
g59
NtRp3102
(dp3103
g62
(dp3104
sg71
g3089
sg64
(lp3105
g57
(g58
g59
NtRp3106
(dp3107
g62
(dp3108
g70
I3
ssg71
g3102
sg64
(lp3109
S'1'
asbasbasbasbasbasbasbasbasbasbasbasbasbsS'frames'
p3110
(lp3111
(dp3112
S'file'
p3113
S'/home/diego/web2py/gluon/restricted.py'
p3114
sS'dump'
p3115
(dp3116
S'environment'
p3117
S"{'A': <class 'gluon.html.A'>, 'Auth': <class 'gluon.tools.Auth'>, 'B': <class 'gluon.html.B'>, 'BEAUTIFY': <class 'gluon.html.BEAUTIFY'>, 'BODY': <class 'gluon.html.BODY'>, 'BR': <class 'gluon.html.BR'>, 'BUTTON': <class 'gluon.html.BUTTON'>, 'CAT': <class 'gluon.html.CAT'>, 'CENTER': <class 'gluon.html.CENTER'>, 'CLEANUP': <class 'gluon.validators.CLEANUP'>, ...}"
p3118
sS'ccode'
p3119
S'<code object <module> at 0x7fbde450c030, file "/...cations/irecycle/controllers/default.py", line 1>'
p3120
ssS'lnum'
p3121
I212
sS'lines'
p3122
(dp3123
I207
S'    try:'
p3124
sI208
S'        if isinstance(code, types.CodeType):'
p3125
sI209
S'            ccode = code'
p3126
sI210
S'        else:'
p3127
sI211
S'            ccode = compile2(code, layer)'
p3128
sI212
S'        exec ccode in environment'
p3129
sI213
S'    except HTTP:'
p3130
sI214
S'        raise'
p3131
sI215
S'    except RestrictedError:'
p3132
sI216
S'        # do not encapsulate (obfuscate) the original RestrictedError'
p3133
ssS'call'
p3134
S"(code='from gluon.storage import Storage\\n\\ndef origin():...form=form)\\nresponse._vars=response._caller(home)\\n', environment={'A': <class 'gluon.html.A'>, 'Auth': <class 'gluon.tools.Auth'>, 'B': <class 'gluon.html.B'>, 'BEAUTIFY': <class 'gluon.html.BEAUTIFY'>, 'BODY': <class 'gluon.html.BODY'>, 'BR': <class 'gluon.html.BR'>, 'BUTTON': <class 'gluon.html.BUTTON'>, 'CAT': <class 'gluon.html.CAT'>, 'CENTER': <class 'gluon.html.CENTER'>, 'CLEANUP': <class 'gluon.validators.CLEANUP'>, ...}, layer='/home/diego/web2py/applications/irecycle/controllers/default.py')"
p3135
sS'func'
p3136
S'restricted'
p3137
sa(dp3138
g3113
S'/home/diego/web2py/applications/irecycle/controllers/default.py'
p3139
sg3115
(dp3140
sg3121
I141
sg3122
(dp3141
I131
S'\t\t# deny an existing friendship request'
p3142
sI132
S'\t\tdb(Link.target==me)(Link.fonte==a1).delete()'
p3143
sI133
S"\telif a0 == 'remove':"
p3144
sI134
S'\t\t# delete a previous friendship request'
p3145
sI135
S'\t\tdb(Link.fonte==me)(Link.target==a1).delete()'
p3146
sI136
S''
sI137
S''
sI138
S'def address():'
p3147
sI139
S'\tform = SQLFORM(UserAddress)'
p3148
sI140
S'\treturn dict(form=form)'
p3149
ssg3134
S'()'
p3150
sg3136
S'<module>'
p3151
sa(dp3152
g3113
S'/home/diego/web2py/gluon/globals.py'
p3153
sg3115
(dp3154
S'self'
p3155
S'undefined'
p3156
sS'f'
S'<function home>'
p3157
ssg3121
I193
sg3122
(dp3158
I192
S'        self._vars = None'
p3159
sI193
S'        self._caller = lambda f: f()'
p3160
sI194
S'        self._view_environment = None'
p3161
sI195
S'        self._custom_commit = None'
p3162
sI196
S'        self._custom_rollback = None'
p3163
sI197
S''
sI188
S'        self.menu = []             # used by the default view layout'
p3164
sI189
S'        self.files = []            # used by web2py_ajax.html'
p3165
sI190
S'        self.generic_patterns = []  # patterns to allow generic views'
p3166
sI191
S"        self.delimiters = ('{{', '}}')"
p3167
ssg3134
S'(f=<function home>)'
p3168
sg3136
S'<lambda>'
p3169
sa(dp3170
g3113
S'/home/diego/web2py/gluon/tools.py'
p3171
sg3115
(dp3172
S'action'
p3173
S'<function home>'
p3174
sS'a'
S'()'
p3175
sS'b'
g45
ssg3121
I2929
sg3122
(dp3176
I2924
S'                    flag = condition'
p3177
sI2925
S'                if not flag:'
p3178
sI2926
S'                    current.session.flash = self.messages.access_denied'
p3179
sI2927
S'                    return call_or_redirect('
p3180
sI2928
S'                        self.settings.on_failed_authorization)'
p3181
sI2929
S'                return action(*a, **b)'
p3182
sI2930
S'            f.__doc__ = action.__doc__'
p3183
sI2931
S'            f.__name__ = action.__name__'
p3184
sI2932
S'            f.__dict__.update(action.__dict__)'
p3185
sI2933
S'            return f'
p3186
ssg3134
S'(*a=(), **b={})'
p3187
sg3136
S'f'
sa(dp3188
g3113
S'/home/diego/web2py/applications/irecycle/controllers/default.py'
p3189
sg3115
(dp3190
S'post_user'
p3191
g3156
sS'global auth'
p3192
S'<gluon.tools.Auth object>'
p3193
sS').select'
p3194
g3156
ssg3121
I77
sg3122
(dp3195
I72
S'\tcrud.settings.formstyle = "divs"'
p3196
sI73
S'\tform = crud.create(Post)'
p3197
sI74
S'\tfriends = [me]+[row.target for row in myfriends.select(Link.target)]'
p3198
sI75
S'\tposts = db(Post.posted_by.belongs(friends)).select(orderby=~Post.posted_on,'
p3199
sI76
S'\t\tlimitby=(0,100))'
p3200
sI77
S'\tpost_user = auth().select()'
p3201
sI78
S'\t# name_welcome = SQLFORM(post_user)'
p3202
sI79
S'\treturn locals()'
p3203
sI80
S''
sI81
S'# our wall will show our profile and our own posts'
p3204
ssg3134
S'()'
p3205
sg3136
S'home'
p3206
sasS'pyver'
p3207
S'Python 2.7.3: /usr/bin/python'
p3208
sS'session'
p3209
g57
(g58
g59
NtRp3210
(dp3211
g62
(dp3212
sg64
(lp3213
g57
(g66
g59
NtRp3214
(dp3215
g62
(dp3216
g70
I5
ssg71
Nsg64
(lp3217
g57
(g73
g59
NtRp3218
(dp3219
g62
(dp3220
sg71
g3214
sg64
(lp3221
g57
(g78
g59
NtRp3222
(dp3223
g62
(dp3224
g82
g83
ssg71
g3218
sg64
(lp3225
S'auth'
p3226
asbag57
(g78
g59
NtRp3227
(dp3228
g62
(dp3229
g89
g90
ssg71
g3218
sg64
(lp3230
S':'
asbag57
(g78
g59
NtRp3231
(dp3232
g62
(dp3233
sg71
g3218
sg64
(lp3234
g57
(g58
g59
NtRp3235
(dp3236
g62
(dp3237
g70
I5
ssg71
g3231
sg64
(lp3238
g57
(g66
g59
NtRp3239
(dp3240
g62
(dp3241
g70
I4
ssg71
Nsg64
(lp3242
g57
(g73
g59
NtRp3243
(dp3244
g62
(dp3245
sg71
g3239
sg64
(lp3246
g57
(g78
g59
NtRp3247
(dp3248
g62
(dp3249
g82
g83
ssg71
g3243
sg64
(lp3250
S'expiration'
p3251
asbag57
(g78
g59
NtRp3252
(dp3253
g62
(dp3254
g89
g90
ssg71
g3243
sg64
(lp3255
S':'
asbag57
(g78
g59
NtRp3256
(dp3257
g62
(dp3258
sg71
g3243
sg64
(lp3259
g57
(g58
g59
NtRp3260
(dp3261
g62
(dp3262
g70
I4
ssg71
g3256
sg64
(lp3263
S'3600'
p3264
asbasbasbag57
(g73
g59
NtRp3265
(dp3266
g62
(dp3267
sg71
g3239
sg64
(lp3268
g57
(g78
g59
NtRp3269
(dp3270
g62
(dp3271
g82
g83
ssg71
g3265
sg64
(lp3272
S'hmac_key'
p3273
asbag57
(g78
g59
NtRp3274
(dp3275
g62
(dp3276
g89
g90
ssg71
g3265
sg64
(lp3277
S':'
asbag57
(g78
g59
NtRp3278
(dp3279
g62
(dp3280
sg71
g3265
sg64
(lp3281
g57
(g58
g59
NtRp3282
(dp3283
g62
(dp3284
g70
I4
ssg71
g3278
sg64
(lp3285
S'e92ef018-9459-4821-a5a5-469b557cdc63'
p3286
asbasbasbag57
(g73
g59
NtRp3287
(dp3288
g62
(dp3289
sg71
g3239
sg64
(lp3290
g57
(g78
g59
NtRp3291
(dp3292
g62
(dp3293
g82
g83
ssg71
g3287
sg64
(lp3294
S'last_visit'
p3295
asbag57
(g78
g59
NtRp3296
(dp3297
g62
(dp3298
g89
g90
ssg71
g3287
sg64
(lp3299
S':'
asbag57
(g78
g59
NtRp3300
(dp3301
g62
(dp3302
sg71
g3287
sg64
(lp3303
g57
(g58
g59
NtRp3304
(dp3305
g62
(dp3306
g70
I4
ssg71
g3300
sg64
(lp3307
S'datetime.datetime(2013, 1, 31, 13, 46, 0, 729073)'
p3308
asbasbasbag57
(g73
g59
NtRp3309
(dp3310
g62
(dp3311
sg71
g3239
sg64
(lp3312
g57
(g78
g59
NtRp3313
(dp3314
g62
(dp3315
g82
g83
ssg71
g3309
sg64
(lp3316
S'remember'
p3317
asbag57
(g78
g59
NtRp3318
(dp3319
g62
(dp3320
g89
g90
ssg71
g3309
sg64
(lp3321
S':'
asbag57
(g78
g59
NtRp3322
(dp3323
g62
(dp3324
sg71
g3309
sg64
(lp3325
g57
(g58
g59
NtRp3326
(dp3327
g62
(dp3328
g70
I4
ssg71
g3322
sg64
(lp3329
g100
asbasbasbag57
(g73
g59
NtRp3330
(dp3331
g62
(dp3332
sg71
g3239
sg64
(lp3333
g57
(g78
g59
NtRp3334
(dp3335
g62
(dp3336
g82
g83
ssg71
g3330
sg64
(lp3337
S'user'
p3338
asbag57
(g78
g59
NtRp3339
(dp3340
g62
(dp3341
g89
g90
ssg71
g3330
sg64
(lp3342
S':'
asbag57
(g78
g59
NtRp3343
(dp3344
g62
(dp3345
sg71
g3330
sg64
(lp3346
g57
(g58
g59
NtRp3347
(dp3348
g62
(dp3349
g70
I4
ssg71
g3343
sg64
(lp3350
g57
(g66
g59
NtRp3351
(dp3352
g62
(dp3353
g70
I3
ssg71
Nsg64
(lp3354
g57
(g73
g59
NtRp3355
(dp3356
g62
(dp3357
sg71
g3351
sg64
(lp3358
g57
(g78
g59
NtRp3359
(dp3360
g62
(dp3361
g82
g83
ssg71
g3355
sg64
(lp3362
S'avatar'
p3363
asbag57
(g78
g59
NtRp3364
(dp3365
g62
(dp3366
g89
g90
ssg71
g3355
sg64
(lp3367
S':'
asbag57
(g78
g59
NtRp3368
(dp3369
g62
(dp3370
sg71
g3355
sg64
(lp3371
g57
(g58
g59
NtRp3372
(dp3373
g62
(dp3374
g70
I3
ssg71
g3368
sg64
(lp3375
S''
asbasbasbag57
(g73
g59
NtRp3376
(dp3377
g62
(dp3378
sg71
g3351
sg64
(lp3379
g57
(g78
g59
NtRp3380
(dp3381
g62
(dp3382
g82
g83
ssg71
g3376
sg64
(lp3383
S'email'
p3384
asbag57
(g78
g59
NtRp3385
(dp3386
g62
(dp3387
g89
g90
ssg71
g3376
sg64
(lp3388
S':'
asbag57
(g78
g59
NtRp3389
(dp3390
g62
(dp3391
sg71
g3376
sg64
(lp3392
g57
(g58
g59
NtRp3393
(dp3394
g62
(dp3395
g70
I3
ssg71
g3389
sg64
(lp3396
S'diego@teste.com'
p3397
asbasbasbag57
(g73
g59
NtRp3398
(dp3399
g62
(dp3400
sg71
g3351
sg64
(lp3401
g57
(g78
g59
NtRp3402
(dp3403
g62
(dp3404
g82
g83
ssg71
g3398
sg64
(lp3405
S'first_name'
p3406
asbag57
(g78
g59
NtRp3407
(dp3408
g62
(dp3409
g89
g90
ssg71
g3398
sg64
(lp3410
S':'
asbag57
(g78
g59
NtRp3411
(dp3412
g62
(dp3413
sg71
g3398
sg64
(lp3414
g57
(g58
g59
NtRp3415
(dp3416
g62
(dp3417
g70
I3
ssg71
g3411
sg64
(lp3418
S'diego'
p3419
asbasbasbag57
(g73
g59
NtRp3420
(dp3421
g62
(dp3422
sg71
g3351
sg64
(lp3423
g57
(g78
g59
NtRp3424
(dp3425
g62
(dp3426
g82
g83
ssg71
g3420
sg64
(lp3427
S'id'
p3428
asbag57
(g78
g59
NtRp3429
(dp3430
g62
(dp3431
g89
g90
ssg71
g3420
sg64
(lp3432
S':'
asbag57
(g78
g59
NtRp3433
(dp3434
g62
(dp3435
sg71
g3420
sg64
(lp3436
g57
(g58
g59
NtRp3437
(dp3438
g62
(dp3439
g70
I3
ssg71
g3433
sg64
(lp3440
S'1'
asbasbasbag57
(g73
g59
NtRp3441
(dp3442
g62
(dp3443
sg71
g3351
sg64
(lp3444
g57
(g78
g59
NtRp3445
(dp3446
g62
(dp3447
g82
g83
ssg71
g3441
sg64
(lp3448
S'last_name'
p3449
asbag57
(g78
g59
NtRp3450
(dp3451
g62
(dp3452
g89
g90
ssg71
g3441
sg64
(lp3453
S':'
asbag57
(g78
g59
NtRp3454
(dp3455
g62
(dp3456
sg71
g3441
sg64
(lp3457
g57
(g58
g59
NtRp3458
(dp3459
g62
(dp3460
g70
I3
ssg71
g3454
sg64
(lp3461
S'miranda'
p3462
asbasbasbag57
(g73
g59
NtRp3463
(dp3464
g62
(dp3465
sg71
g3351
sg64
(lp3466
g57
(g78
g59
NtRp3467
(dp3468
g62
(dp3469
g82
g83
ssg71
g3463
sg64
(lp3470
S'registration_id'
p3471
asbag57
(g78
g59
NtRp3472
(dp3473
g62
(dp3474
g89
g90
ssg71
g3463
sg64
(lp3475
S':'
asbag57
(g78
g59
NtRp3476
(dp3477
g62
(dp3478
sg71
g3463
sg64
(lp3479
g57
(g58
g59
NtRp3480
(dp3481
g62
(dp3482
g70
I3
ssg71
g3476
sg64
(lp3483
S''
asbasbasbag57
(g73
g59
NtRp3484
(dp3485
g62
(dp3486
sg71
g3351
sg64
(lp3487
g57
(g78
g59
NtRp3488
(dp3489
g62
(dp3490
g82
g83
ssg71
g3484
sg64
(lp3491
S'registration_key'
p3492
asbag57
(g78
g59
NtRp3493
(dp3494
g62
(dp3495
g89
g90
ssg71
g3484
sg64
(lp3496
S':'
asbag57
(g78
g59
NtRp3497
(dp3498
g62
(dp3499
sg71
g3484
sg64
(lp3500
g57
(g58
g59
NtRp3501
(dp3502
g62
(dp3503
g70
I3
ssg71
g3497
sg64
(lp3504
S''
asbasbasbag57
(g73
g59
NtRp3505
(dp3506
g62
(dp3507
sg71
g3351
sg64
(lp3508
g57
(g78
g59
NtRp3509
(dp3510
g62
(dp3511
g82
g83
ssg71
g3505
sg64
(lp3512
S'reset_password_key'
p3513
asbag57
(g78
g59
NtRp3514
(dp3515
g62
(dp3516
g89
g90
ssg71
g3505
sg64
(lp3517
S':'
asbag57
(g78
g59
NtRp3518
(dp3519
g62
(dp3520
sg71
g3505
sg64
(lp3521
g57
(g58
g59
NtRp3522
(dp3523
g62
(dp3524
g70
I3
ssg71
g3518
sg64
(lp3525
S''
asbasbasbag57
(g73
g59
NtRp3526
(dp3527
g62
(dp3528
sg71
g3351
sg64
(lp3529
g57
(g78
g59
NtRp3530
(dp3531
g62
(dp3532
g82
g83
ssg71
g3526
sg64
(lp3533
S'thumbnail'
p3534
asbag57
(g78
g59
NtRp3535
(dp3536
g62
(dp3537
g89
g90
ssg71
g3526
sg64
(lp3538
S':'
asbag57
(g78
g59
NtRp3539
(dp3540
g62
(dp3541
sg71
g3526
sg64
(lp3542
g57
(g58
g59
NtRp3543
(dp3544
g62
(dp3545
g70
I3
ssg71
g3539
sg64
(lp3546
S''
asbasbasbasbasbasbasbag57
(g73
g59
NtRp3547
(dp3548
g62
(dp3549
sg71
g3239
sg64
(lp3550
g57
(g78
g59
NtRp3551
(dp3552
g62
(dp3553
g82
g83
ssg71
g3547
sg64
(lp3554
S'user_groups'
p3555
asbag57
(g78
g59
NtRp3556
(dp3557
g62
(dp3558
g89
g90
ssg71
g3547
sg64
(lp3559
S':'
asbag57
(g78
g59
NtRp3560
(dp3561
g62
(dp3562
sg71
g3547
sg64
(lp3563
g57
(g58
g59
NtRp3564
(dp3565
g62
(dp3566
g70
I4
ssg71
g3560
sg64
(lp3567
g57
(g66
g59
NtRp3568
(dp3569
g62
(dp3570
g70
I3
ssg71
Nsg64
(lp3571
sbasbasbasbasbasbasbasbag57
(g73
g59
NtRp3572
(dp3573
g62
(dp3574
sg71
g3214
sg64
(lp3575
g57
(g78
g59
NtRp3576
(dp3577
g62
(dp3578
g82
g83
ssg71
g3572
sg64
(lp3579
S'flash'
p3580
asbag57
(g78
g59
NtRp3581
(dp3582
g62
(dp3583
g89
g90
ssg71
g3572
sg64
(lp3584
S':'
asbag57
(g78
g59
NtRp3585
(dp3586
g62
(dp3587
sg71
g3572
sg64
(lp3588
g57
(g58
g59
NtRp3589
(dp3590
g62
(dp3591
g70
I5
ssg71
g3585
sg64
(lp3592
S'None'
p3593
asbasbasbasbasbsS'etype'
p3594
S"<type 'exceptions.AttributeError'>"
p3595
sS'date'
p3596
S'Thu Jan 31 13:51:02 2013'
p3597
sS'response'
p3598
g57
(g58
g59
NtRp3599
(dp3600
g62
(dp3601
sg64
(lp3602
g57
(g66
g59
NtRp3603
(dp3604
g62
(dp3605
g70
I5
ssg71
Nsg64
(lp3606
g57
(g73
g59
NtRp3607
(dp3608
g62
(dp3609
sg71
g3603
sg64
(lp3610
g57
(g78
g59
NtRp3611
(dp3612
g62
(dp3613
g82
g83
ssg71
g3607
sg64
(lp3614
g168
asbag57
(g78
g59
NtRp3615
(dp3616
g62
(dp3617
g89
g90
ssg71
g3607
sg64
(lp3618
S':'
asbag57
(g78
g59
NtRp3619
(dp3620
g62
(dp3621
sg71
g3607
sg64
(lp3622
g57
(g58
g59
NtRp3623
(dp3624
g62
(dp3625
g70
I5
ssg71
g3619
sg64
(lp3626
S'<cStringIO.StringO object at 0x7fbde4509880>'
p3627
asbasbasbag57
(g73
g59
NtRp3628
(dp3629
g62
(dp3630
sg71
g3603
sg64
(lp3631
g57
(g78
g59
NtRp3632
(dp3633
g62
(dp3634
g82
g83
ssg71
g3628
sg64
(lp3635
g256
asbag57
(g78
g59
NtRp3636
(dp3637
g62
(dp3638
g89
g90
ssg71
g3628
sg64
(lp3639
S':'
asbag57
(g78
g59
NtRp3640
(dp3641
g62
(dp3642
sg71
g3628
sg64
(lp3643
g57
(g58
g59
NtRp3644
(dp3645
g62
(dp3646
g70
I5
ssg71
g3640
sg64
(lp3647
g57
(g66
g59
NtRp3648
(dp3649
g62
(dp3650
g70
I4
ssg71
Nsg64
(lp3651
g57
(g73
g59
NtRp3652
(dp3653
g62
(dp3654
sg71
g3648
sg64
(lp3655
g57
(g78
g59
NtRp3656
(dp3657
g62
(dp3658
g82
g83
ssg71
g3652
sg64
(lp3659
S'session_id_irecycle'
p3660
asbag57
(g78
g59
NtRp3661
(dp3662
g62
(dp3663
g89
g90
ssg71
g3652
sg64
(lp3664
S':'
asbag57
(g78
g59
NtRp3665
(dp3666
g62
(dp3667
sg71
g3652
sg64
(lp3668
g57
(g58
g59
NtRp3669
(dp3670
g62
(dp3671
g70
I4
ssg71
g3665
sg64
(lp3672
g488
ag57
(g66
g59
NtRp3673
(dp3674
g62
(dp3675
g70
I3
ssg71
Nsg64
(lp3676
g57
(g73
g59
NtRp3677
(dp3678
g62
(dp3679
sg71
g3673
sg64
(lp3680
g57
(g78
g59
NtRp3681
(dp3682
g62
(dp3683
g82
g83
ssg71
g3677
sg64
(lp3684
g307
asbag57
(g78
g59
NtRp3685
(dp3686
g62
(dp3687
g89
g90
ssg71
g3677
sg64
(lp3688
S':'
asbag57
(g78
g59
NtRp3689
(dp3690
g62
(dp3691
sg71
g3677
sg64
(lp3692
g57
(g58
g59
NtRp3693
(dp3694
g62
(dp3695
g70
I3
ssg71
g3689
sg64
(lp3696
S''
asbasbasbag57
(g73
g59
NtRp3697
(dp3698
g62
(dp3699
sg71
g3673
sg64
(lp3700
g57
(g78
g59
NtRp3701
(dp3702
g62
(dp3703
g82
g83
ssg71
g3697
sg64
(lp3704
g328
asbag57
(g78
g59
NtRp3705
(dp3706
g62
(dp3707
g89
g90
ssg71
g3697
sg64
(lp3708
S':'
asbag57
(g78
g59
NtRp3709
(dp3710
g62
(dp3711
sg71
g3697
sg64
(lp3712
g57
(g58
g59
NtRp3713
(dp3714
g62
(dp3715
g70
I3
ssg71
g3709
sg64
(lp3716
S''
asbasbasbag57
(g73
g59
NtRp3717
(dp3718
g62
(dp3719
sg71
g3673
sg64
(lp3720
g57
(g78
g59
NtRp3721
(dp3722
g62
(dp3723
g82
g83
ssg71
g3717
sg64
(lp3724
g349
asbag57
(g78
g59
NtRp3725
(dp3726
g62
(dp3727
g89
g90
ssg71
g3717
sg64
(lp3728
S':'
asbag57
(g78
g59
NtRp3729
(dp3730
g62
(dp3731
sg71
g3717
sg64
(lp3732
g57
(g58
g59
NtRp3733
(dp3734
g62
(dp3735
g70
I3
ssg71
g3729
sg64
(lp3736
S''
asbasbasbag57
(g73
g59
NtRp3737
(dp3738
g62
(dp3739
sg71
g3673
sg64
(lp3740
g57
(g78
g59
NtRp3741
(dp3742
g62
(dp3743
g82
g83
ssg71
g3737
sg64
(lp3744
g370
asbag57
(g78
g59
NtRp3745
(dp3746
g62
(dp3747
g89
g90
ssg71
g3737
sg64
(lp3748
S':'
asbag57
(g78
g59
NtRp3749
(dp3750
g62
(dp3751
sg71
g3737
sg64
(lp3752
g57
(g58
g59
NtRp3753
(dp3754
g62
(dp3755
g70
I3
ssg71
g3749
sg64
(lp3756
S''
asbasbasbag57
(g73
g59
NtRp3757
(dp3758
g62
(dp3759
sg71
g3673
sg64
(lp3760
g57
(g78
g59
NtRp3761
(dp3762
g62
(dp3763
g82
g83
ssg71
g3757
sg64
(lp3764
g391
asbag57
(g78
g59
NtRp3765
(dp3766
g62
(dp3767
g89
g90
ssg71
g3757
sg64
(lp3768
S':'
asbag57
(g78
g59
NtRp3769
(dp3770
g62
(dp3771
sg71
g3757
sg64
(lp3772
g57
(g58
g59
NtRp3773
(dp3774
g62
(dp3775
g70
I3
ssg71
g3769
sg64
(lp3776
S''
asbasbasbag57
(g73
g59
NtRp3777
(dp3778
g62
(dp3779
sg71
g3673
sg64
(lp3780
g57
(g78
g59
NtRp3781
(dp3782
g62
(dp3783
g82
g83
ssg71
g3777
sg64
(lp3784
g412
asbag57
(g78
g59
NtRp3785
(dp3786
g62
(dp3787
g89
g90
ssg71
g3777
sg64
(lp3788
S':'
asbag57
(g78
g59
NtRp3789
(dp3790
g62
(dp3791
sg71
g3777
sg64
(lp3792
g57
(g58
g59
NtRp3793
(dp3794
g62
(dp3795
g70
I3
ssg71
g3789
sg64
(lp3796
S'/'
asbasbasbag57
(g73
g59
NtRp3797
(dp3798
g62
(dp3799
sg71
g3673
sg64
(lp3800
g57
(g78
g59
NtRp3801
(dp3802
g62
(dp3803
g82
g83
ssg71
g3797
sg64
(lp3804
g433
asbag57
(g78
g59
NtRp3805
(dp3806
g62
(dp3807
g89
g90
ssg71
g3797
sg64
(lp3808
S':'
asbag57
(g78
g59
NtRp3809
(dp3810
g62
(dp3811
sg71
g3797
sg64
(lp3812
g57
(g58
g59
NtRp3813
(dp3814
g62
(dp3815
g70
I3
ssg71
g3809
sg64
(lp3816
S''
asbasbasbag57
(g73
g59
NtRp3817
(dp3818
g62
(dp3819
sg71
g3673
sg64
(lp3820
g57
(g78
g59
NtRp3821
(dp3822
g62
(dp3823
g82
g83
ssg71
g3817
sg64
(lp3824
g454
asbag57
(g78
g59
NtRp3825
(dp3826
g62
(dp3827
g89
g90
ssg71
g3817
sg64
(lp3828
S':'
asbag57
(g78
g59
NtRp3829
(dp3830
g62
(dp3831
sg71
g3817
sg64
(lp3832
g57
(g58
g59
NtRp3833
(dp3834
g62
(dp3835
g70
I3
ssg71
g3829
sg64
(lp3836
S''
asbasbasbasbasbasbasbasbasbasbasbag57
(g73
g59
NtRp3837
(dp3838
g62
(dp3839
sg71
g3603
sg64
(lp3840
g57
(g78
g59
NtRp3841
(dp3842
g62
(dp3843
g82
g83
ssg71
g3837
sg64
(lp3844
S'delimiters'
p3845
asbag57
(g78
g59
NtRp3846
(dp3847
g62
(dp3848
g89
g90
ssg71
g3837
sg64
(lp3849
S':'
asbag57
(g78
g59
NtRp3850
(dp3851
g62
(dp3852
sg71
g3837
sg64
(lp3853
g57
(g58
g59
NtRp3854
(dp3855
g62
(dp3856
g70
I5
ssg71
g3850
sg64
(lp3857
g57
(g66
g59
NtRp3858
(dp3859
g62
(dp3860
g70
I4
ssg71
Nsg64
(lp3861
g57
(g73
g59
NtRp3862
(dp3863
g62
(dp3864
sg71
g3858
sg64
(lp3865
g57
(g78
g59
NtRp3866
(dp3867
g62
(dp3868
sg71
g3862
sg64
(lp3869
g57
(g58
g59
NtRp3870
(dp3871
g62
(dp3872
g70
I4
ssg71
g3866
sg64
(lp3873
S'{{'
p3874
asbasbasbag57
(g73
g59
NtRp3875
(dp3876
g62
(dp3877
sg71
g3858
sg64
(lp3878
g57
(g78
g59
NtRp3879
(dp3880
g62
(dp3881
sg71
g3875
sg64
(lp3882
g57
(g58
g59
NtRp3883
(dp3884
g62
(dp3885
g70
I4
ssg71
g3879
sg64
(lp3886
S'}}'
p3887
asbasbasbasbasbasbasbag57
(g73
g59
NtRp3888
(dp3889
g62
(dp3890
sg71
g3603
sg64
(lp3891
g57
(g78
g59
NtRp3892
(dp3893
g62
(dp3894
g82
g83
ssg71
g3888
sg64
(lp3895
S'files'
p3896
asbag57
(g78
g59
NtRp3897
(dp3898
g62
(dp3899
g89
g90
ssg71
g3888
sg64
(lp3900
S':'
asbag57
(g78
g59
NtRp3901
(dp3902
g62
(dp3903
sg71
g3888
sg64
(lp3904
g57
(g58
g59
NtRp3905
(dp3906
g62
(dp3907
g70
I5
ssg71
g3901
sg64
(lp3908
g57
(g66
g59
NtRp3909
(dp3910
g62
(dp3911
g70
I4
ssg71
Nsg64
(lp3912
sbasbasbasbag57
(g73
g59
NtRp3913
(dp3914
g62
(dp3915
sg71
g3603
sg64
(lp3916
g57
(g78
g59
NtRp3917
(dp3918
g62
(dp3919
g82
g83
ssg71
g3913
sg64
(lp3920
S'flash'
p3921
asbag57
(g78
g59
NtRp3922
(dp3923
g62
(dp3924
g89
g90
ssg71
g3913
sg64
(lp3925
S':'
asbag57
(g78
g59
NtRp3926
(dp3927
g62
(dp3928
sg71
g3913
sg64
(lp3929
g57
(g58
g59
NtRp3930
(dp3931
g62
(dp3932
g70
I5
ssg71
g3926
sg64
(lp3933
S''
asbasbasbag57
(g73
g59
NtRp3934
(dp3935
g62
(dp3936
sg71
g3603
sg64
(lp3937
g57
(g78
g59
NtRp3938
(dp3939
g62
(dp3940
g82
g83
ssg71
g3934
sg64
(lp3941
S'generic_patterns'
p3942
asbag57
(g78
g59
NtRp3943
(dp3944
g62
(dp3945
g89
g90
ssg71
g3934
sg64
(lp3946
S':'
asbag57
(g78
g59
NtRp3947
(dp3948
g62
(dp3949
sg71
g3934
sg64
(lp3950
g57
(g58
g59
NtRp3951
(dp3952
g62
(dp3953
g70
I5
ssg71
g3947
sg64
(lp3954
g57
(g66
g59
NtRp3955
(dp3956
g62
(dp3957
g70
I4
ssg71
Nsg64
(lp3958
g57
(g73
g59
NtRp3959
(dp3960
g62
(dp3961
sg71
g3955
sg64
(lp3962
g57
(g78
g59
NtRp3963
(dp3964
g62
(dp3965
sg71
g3959
sg64
(lp3966
g57
(g58
g59
NtRp3967
(dp3968
g62
(dp3969
g70
I4
ssg71
g3963
sg64
(lp3970
S'*'
asbasbasbasbasbasbasbag57
(g73
g59
NtRp3971
(dp3972
g62
(dp3973
sg71
g3603
sg64
(lp3974
g57
(g78
g59
NtRp3975
(dp3976
g62
(dp3977
g82
g83
ssg71
g3971
sg64
(lp3978
S'headers'
p3979
asbag57
(g78
g59
NtRp3980
(dp3981
g62
(dp3982
g89
g90
ssg71
g3971
sg64
(lp3983
S':'
asbag57
(g78
g59
NtRp3984
(dp3985
g62
(dp3986
sg71
g3971
sg64
(lp3987
g57
(g58
g59
NtRp3988
(dp3989
g62
(dp3990
g70
I5
ssg71
g3984
sg64
(lp3991
g57
(g66
g59
NtRp3992
(dp3993
g62
(dp3994
g70
I4
ssg71
Nsg64
(lp3995
g57
(g73
g59
NtRp3996
(dp3997
g62
(dp3998
sg71
g3992
sg64
(lp3999
g57
(g78
g59
NtRp4000
(dp4001
g62
(dp4002
g82
g83
ssg71
g3996
sg64
(lp4003
S'X-Powered-By'
p4004
asbag57
(g78
g59
NtRp4005
(dp4006
g62
(dp4007
g89
g90
ssg71
g3996
sg64
(lp4008
S':'
asbag57
(g78
g59
NtRp4009
(dp4010
g62
(dp4011
sg71
g3996
sg64
(lp4012
g57
(g58
g59
NtRp4013
(dp4014
g62
(dp4015
g70
I4
ssg71
g4009
sg64
(lp4016
S'web2py'
p4017
asbasbasbasbasbasbasbag57
(g73
g59
NtRp4018
(dp4019
g62
(dp4020
sg71
g3603
sg64
(lp4021
g57
(g78
g59
NtRp4022
(dp4023
g62
(dp4024
g82
g83
ssg71
g4018
sg64
(lp4025
S'menu'
p4026
asbag57
(g78
g59
NtRp4027
(dp4028
g62
(dp4029
g89
g90
ssg71
g4018
sg64
(lp4030
S':'
asbag57
(g78
g59
NtRp4031
(dp4032
g62
(dp4033
sg71
g4018
sg64
(lp4034
g57
(g58
g59
NtRp4035
(dp4036
g62
(dp4037
g70
I5
ssg71
g4031
sg64
(lp4038
g57
(g66
g59
NtRp4039
(dp4040
g62
(dp4041
g70
I4
ssg71
Nsg64
(lp4042
g57
(g73
g59
NtRp4043
(dp4044
g62
(dp4045
sg71
g4039
sg64
(lp4046
g57
(g78
g59
NtRp4047
(dp4048
g62
(dp4049
sg71
g4043
sg64
(lp4050
g57
(g58
g59
NtRp4051
(dp4052
g62
(dp4053
g70
I4
ssg71
g4047
sg64
(lp4054
g57
(g66
g59
NtRp4055
(dp4056
g62
(dp4057
g70
I3
ssg71
Nsg64
(lp4058
g57
(g73
g59
NtRp4059
(dp4060
g62
(dp4061
sg71
g4055
sg64
(lp4062
g57
(g78
g59
NtRp4063
(dp4064
g62
(dp4065
sg71
g4059
sg64
(lp4066
g57
(g58
g59
NtRp4067
(dp4068
g62
(dp4069
g70
I3
ssg71
g4063
sg64
(lp4070
cgluon.languages
lazyT_unpickle
p4071
(S't\x04\x00\x00\x00Home'
tRp4072
asbasbasbag57
(g73
g59
NtRp4073
(dp4074
g62
(dp4075
sg71
g4055
sg64
(lp4076
g57
(g78
g59
NtRp4077
(dp4078
g62
(dp4079
sg71
g4073
sg64
(lp4080
g57
(g58
g59
NtRp4081
(dp4082
g62
(dp4083
g70
I3
ssg71
g4077
sg64
(lp4084
g100
asbasbasbag57
(g73
g59
NtRp4085
(dp4086
g62
(dp4087
sg71
g4055
sg64
(lp4088
g57
(g78
g59
NtRp4089
(dp4090
g62
(dp4091
sg71
g4085
sg64
(lp4092
g57
(g58
g59
NtRp4093
(dp4094
g62
(dp4095
g70
I3
ssg71
g4089
sg64
(lp4096
S'/irecycle/default/home'
p4097
asbasbasbasbasbasbasbag57
(g73
g59
NtRp4098
(dp4099
g62
(dp4100
sg71
g4039
sg64
(lp4101
g57
(g78
g59
NtRp4102
(dp4103
g62
(dp4104
sg71
g4098
sg64
(lp4105
g57
(g58
g59
NtRp4106
(dp4107
g62
(dp4108
g70
I4
ssg71
g4102
sg64
(lp4109
g57
(g66
g59
NtRp4110
(dp4111
g62
(dp4112
g70
I3
ssg71
Nsg64
(lp4113
g57
(g73
g59
NtRp4114
(dp4115
g62
(dp4116
sg71
g4110
sg64
(lp4117
g57
(g78
g59
NtRp4118
(dp4119
g62
(dp4120
sg71
g4114
sg64
(lp4121
g57
(g58
g59
NtRp4122
(dp4123
g62
(dp4124
g70
I3
ssg71
g4118
sg64
(lp4125
g4071
(S't\x04\x00\x00\x00Wall'
tRp4126
asbasbasbag57
(g73
g59
NtRp4127
(dp4128
g62
(dp4129
sg71
g4110
sg64
(lp4130
g57
(g78
g59
NtRp4131
(dp4132
g62
(dp4133
sg71
g4127
sg64
(lp4134
g57
(g58
g59
NtRp4135
(dp4136
g62
(dp4137
g70
I3
ssg71
g4131
sg64
(lp4138
g100
asbasbasbag57
(g73
g59
NtRp4139
(dp4140
g62
(dp4141
sg71
g4110
sg64
(lp4142
g57
(g78
g59
NtRp4143
(dp4144
g62
(dp4145
sg71
g4139
sg64
(lp4146
g57
(g58
g59
NtRp4147
(dp4148
g62
(dp4149
g70
I3
ssg71
g4143
sg64
(lp4150
S'/irecycle/default/wall'
p4151
asbasbasbasbasbasbasbag57
(g73
g59
NtRp4152
(dp4153
g62
(dp4154
sg71
g4039
sg64
(lp4155
g57
(g78
g59
NtRp4156
(dp4157
g62
(dp4158
sg71
g4152
sg64
(lp4159
g57
(g58
g59
NtRp4160
(dp4161
g62
(dp4162
g70
I4
ssg71
g4156
sg64
(lp4163
g57
(g66
g59
NtRp4164
(dp4165
g62
(dp4166
g70
I3
ssg71
Nsg64
(lp4167
g57
(g73
g59
NtRp4168
(dp4169
g62
(dp4170
sg71
g4164
sg64
(lp4171
g57
(g78
g59
NtRp4172
(dp4173
g62
(dp4174
sg71
g4168
sg64
(lp4175
g57
(g58
g59
NtRp4176
(dp4177
g62
(dp4178
g70
I3
ssg71
g4172
sg64
(lp4179
g4071
(S't\x07\x00\x00\x00Friends'
tRp4180
asbasbasbag57
(g73
g59
NtRp4181
(dp4182
g62
(dp4183
sg71
g4164
sg64
(lp4184
g57
(g78
g59
NtRp4185
(dp4186
g62
(dp4187
sg71
g4181
sg64
(lp4188
g57
(g58
g59
NtRp4189
(dp4190
g62
(dp4191
g70
I3
ssg71
g4185
sg64
(lp4192
g100
asbasbasbag57
(g73
g59
NtRp4193
(dp4194
g62
(dp4195
sg71
g4164
sg64
(lp4196
g57
(g78
g59
NtRp4197
(dp4198
g62
(dp4199
sg71
g4193
sg64
(lp4200
g57
(g58
g59
NtRp4201
(dp4202
g62
(dp4203
g70
I3
ssg71
g4197
sg64
(lp4204
S'/irecycle/default/friends'
p4205
asbasbasbasbasbasbasbag57
(g73
g59
NtRp4206
(dp4207
g62
(dp4208
sg71
g4039
sg64
(lp4209
g57
(g78
g59
NtRp4210
(dp4211
g62
(dp4212
sg71
g4206
sg64
(lp4213
g57
(g58
g59
NtRp4214
(dp4215
g62
(dp4216
g70
I4
ssg71
g4210
sg64
(lp4217
g57
(g66
g59
NtRp4218
(dp4219
g62
(dp4220
g70
I3
ssg71
Nsg64
(lp4221
g57
(g73
g59
NtRp4222
(dp4223
g62
(dp4224
sg71
g4218
sg64
(lp4225
g57
(g78
g59
NtRp4226
(dp4227
g62
(dp4228
sg71
g4222
sg64
(lp4229
g57
(g58
g59
NtRp4230
(dp4231
g62
(dp4232
g70
I3
ssg71
g4226
sg64
(lp4233
g4071
(S't\x06\x00\x00\x00Search'
tRp4234
asbasbasbag57
(g73
g59
NtRp4235
(dp4236
g62
(dp4237
sg71
g4218
sg64
(lp4238
g57
(g78
g59
NtRp4239
(dp4240
g62
(dp4241
sg71
g4235
sg64
(lp4242
g57
(g58
g59
NtRp4243
(dp4244
g62
(dp4245
g70
I3
ssg71
g4239
sg64
(lp4246
g100
asbasbasbag57
(g73
g59
NtRp4247
(dp4248
g62
(dp4249
sg71
g4218
sg64
(lp4250
g57
(g78
g59
NtRp4251
(dp4252
g62
(dp4253
sg71
g4247
sg64
(lp4254
g57
(g58
g59
NtRp4255
(dp4256
g62
(dp4257
g70
I3
ssg71
g4251
sg64
(lp4258
S'/irecycle/default/search'
p4259
asbasbasbasbasbasbasbasbasbasbasbag57
(g73
g59
NtRp4260
(dp4261
g62
(dp4262
sg71
g3603
sg64
(lp4263
g57
(g78
g59
NtRp4264
(dp4265
g62
(dp4266
g82
g83
ssg71
g4260
sg64
(lp4267
S'meta'
p4268
asbag57
(g78
g59
NtRp4269
(dp4270
g62
(dp4271
g89
g90
ssg71
g4260
sg64
(lp4272
S':'
asbag57
(g78
g59
NtRp4273
(dp4274
g62
(dp4275
sg71
g4260
sg64
(lp4276
g57
(g58
g59
NtRp4277
(dp4278
g62
(dp4279
g70
I5
ssg71
g4273
sg64
(lp4280
g57
(g66
g59
NtRp4281
(dp4282
g62
(dp4283
g70
I4
ssg71
Nsg64
(lp4284
g57
(g73
g59
NtRp4285
(dp4286
g62
(dp4287
sg71
g4281
sg64
(lp4288
g57
(g78
g59
NtRp4289
(dp4290
g62
(dp4291
g82
g83
ssg71
g4285
sg64
(lp4292
S'author'
p4293
asbag57
(g78
g59
NtRp4294
(dp4295
g62
(dp4296
g89
g90
ssg71
g4285
sg64
(lp4297
S':'
asbag57
(g78
g59
NtRp4298
(dp4299
g62
(dp4300
sg71
g4285
sg64
(lp4301
g57
(g58
g59
NtRp4302
(dp4303
g62
(dp4304
g70
I4
ssg71
g4298
sg64
(lp4305
S'Diego Miranda'
p4306
asbasbasbag57
(g73
g59
NtRp4307
(dp4308
g62
(dp4309
sg71
g4281
sg64
(lp4310
g57
(g78
g59
NtRp4311
(dp4312
g62
(dp4313
g82
g83
ssg71
g4307
sg64
(lp4314
S'copyright'
p4315
asbag57
(g78
g59
NtRp4316
(dp4317
g62
(dp4318
g89
g90
ssg71
g4307
sg64
(lp4319
S':'
asbag57
(g78
g59
NtRp4320
(dp4321
g62
(dp4322
sg71
g4307
sg64
(lp4323
g57
(g58
g59
NtRp4324
(dp4325
g62
(dp4326
g70
I4
ssg71
g4320
sg64
(lp4327
S'DSMTech Copyright 2012'
p4328
asbasbasbag57
(g73
g59
NtRp4329
(dp4330
g62
(dp4331
sg71
g4281
sg64
(lp4332
g57
(g78
g59
NtRp4333
(dp4334
g62
(dp4335
g82
g83
ssg71
g4329
sg64
(lp4336
S'description'
p4337
asbag57
(g78
g59
NtRp4338
(dp4339
g62
(dp4340
g89
g90
ssg71
g4329
sg64
(lp4341
S':'
asbag57
(g78
g59
NtRp4342
(dp4343
g62
(dp4344
sg71
g4329
sg64
(lp4345
g57
(g58
g59
NtRp4346
(dp4347
g62
(dp4348
g70
I4
ssg71
g4342
sg64
(lp4349
S'App for recycling trash'
p4350
asbasbasbag57
(g73
g59
NtRp4351
(dp4352
g62
(dp4353
sg71
g4281
sg64
(lp4354
g57
(g78
g59
NtRp4355
(dp4356
g62
(dp4357
g82
g83
ssg71
g4351
sg64
(lp4358
S'generator'
p4359
asbag57
(g78
g59
NtRp4360
(dp4361
g62
(dp4362
g89
g90
ssg71
g4351
sg64
(lp4363
S':'
asbag57
(g78
g59
NtRp4364
(dp4365
g62
(dp4366
sg71
g4351
sg64
(lp4367
g57
(g58
g59
NtRp4368
(dp4369
g62
(dp4370
g70
I4
ssg71
g4364
sg64
(lp4371
S'web2py web framework'
p4372
asbasbasbag57
(g73
g59
NtRp4373
(dp4374
g62
(dp4375
sg71
g4281
sg64
(lp4376
g57
(g78
g59
NtRp4377
(dp4378
g62
(dp4379
g82
g83
ssg71
g4373
sg64
(lp4380
S'keywords'
p4381
asbag57
(g78
g59
NtRp4382
(dp4383
g62
(dp4384
g89
g90
ssg71
g4373
sg64
(lp4385
S':'
asbag57
(g78
g59
NtRp4386
(dp4387
g62
(dp4388
sg71
g4373
sg64
(lp4389
g57
(g58
g59
NtRp4390
(dp4391
g62
(dp4392
g70
I4
ssg71
g4386
sg64
(lp4393
S'web2py, python framework'
p4394
asbasbasbasbasbasbasbag57
(g73
g59
NtRp4395
(dp4396
g62
(dp4397
sg71
g3603
sg64
(lp4398
g57
(g78
g59
NtRp4399
(dp4400
g62
(dp4401
g82
g83
ssg71
g4395
sg64
(lp4402
S'models_to_run'
p4403
asbag57
(g78
g59
NtRp4404
(dp4405
g62
(dp4406
g89
g90
ssg71
g4395
sg64
(lp4407
S':'
asbag57
(g78
g59
NtRp4408
(dp4409
g62
(dp4410
sg71
g4395
sg64
(lp4411
g57
(g58
g59
NtRp4412
(dp4413
g62
(dp4414
g70
I5
ssg71
g4408
sg64
(lp4415
g57
(g66
g59
NtRp4416
(dp4417
g62
(dp4418
g70
I4
ssg71
Nsg64
(lp4419
g57
(g73
g59
NtRp4420
(dp4421
g62
(dp4422
sg71
g4416
sg64
(lp4423
g57
(g78
g59
NtRp4424
(dp4425
g62
(dp4426
sg71
g4420
sg64
(lp4427
g57
(g58
g59
NtRp4428
(dp4429
g62
(dp4430
g70
I4
ssg71
g4424
sg64
(lp4431
S'^\\w+\\.py$'
p4432
asbasbasbag57
(g73
g59
NtRp4433
(dp4434
g62
(dp4435
sg71
g4416
sg64
(lp4436
g57
(g78
g59
NtRp4437
(dp4438
g62
(dp4439
sg71
g4433
sg64
(lp4440
g57
(g58
g59
NtRp4441
(dp4442
g62
(dp4443
g70
I4
ssg71
g4437
sg64
(lp4444
S'^default/\\w+\\.py$'
p4445
asbasbasbag57
(g73
g59
NtRp4446
(dp4447
g62
(dp4448
sg71
g4416
sg64
(lp4449
g57
(g78
g59
NtRp4450
(dp4451
g62
(dp4452
sg71
g4446
sg64
(lp4453
g57
(g58
g59
NtRp4454
(dp4455
g62
(dp4456
g70
I4
ssg71
g4450
sg64
(lp4457
S'^default/home/\\w+\\.py$'
p4458
asbasbasbasbasbasbasbag57
(g73
g59
NtRp4459
(dp4460
g62
(dp4461
sg71
g3603
sg64
(lp4462
g57
(g78
g59
NtRp4463
(dp4464
g62
(dp4465
g82
g83
ssg71
g4459
sg64
(lp4466
S'postprocessing'
p4467
asbag57
(g78
g59
NtRp4468
(dp4469
g62
(dp4470
g89
g90
ssg71
g4459
sg64
(lp4471
S':'
asbag57
(g78
g59
NtRp4472
(dp4473
g62
(dp4474
sg71
g4459
sg64
(lp4475
g57
(g58
g59
NtRp4476
(dp4477
g62
(dp4478
g70
I5
ssg71
g4472
sg64
(lp4479
g57
(g66
g59
NtRp4480
(dp4481
g62
(dp4482
g70
I4
ssg71
Nsg64
(lp4483
sbasbasbasbag57
(g73
g59
NtRp4484
(dp4485
g62
(dp4486
sg71
g3603
sg64
(lp4487
g57
(g78
g59
NtRp4488
(dp4489
g62
(dp4490
g82
g83
ssg71
g4484
sg64
(lp4491
S'session_cookie_expires'
p4492
asbag57
(g78
g59
NtRp4493
(dp4494
g62
(dp4495
g89
g90
ssg71
g4484
sg64
(lp4496
S':'
asbag57
(g78
g59
NtRp4497
(dp4498
g62
(dp4499
sg71
g4484
sg64
(lp4500
g57
(g58
g59
NtRp4501
(dp4502
g62
(dp4503
g70
I5
ssg71
g4497
sg64
(lp4504
S'None'
p4505
asbasbasbag57
(g73
g59
NtRp4506
(dp4507
g62
(dp4508
sg71
g3603
sg64
(lp4509
g57
(g78
g59
NtRp4510
(dp4511
g62
(dp4512
g82
g83
ssg71
g4506
sg64
(lp4513
S'session_data_name'
p4514
asbag57
(g78
g59
NtRp4515
(dp4516
g62
(dp4517
g89
g90
ssg71
g4506
sg64
(lp4518
S':'
asbag57
(g78
g59
NtRp4519
(dp4520
g62
(dp4521
sg71
g4506
sg64
(lp4522
g57
(g58
g59
NtRp4523
(dp4524
g62
(dp4525
g70
I5
ssg71
g4519
sg64
(lp4526
S'session_data_irecycle'
p4527
asbasbasbag57
(g73
g59
NtRp4528
(dp4529
g62
(dp4530
sg71
g3603
sg64
(lp4531
g57
(g78
g59
NtRp4532
(dp4533
g62
(dp4534
g82
g83
ssg71
g4528
sg64
(lp4535
S'session_file'
p4536
asbag57
(g78
g59
NtRp4537
(dp4538
g62
(dp4539
g89
g90
ssg71
g4528
sg64
(lp4540
S':'
asbag57
(g78
g59
NtRp4541
(dp4542
g62
(dp4543
sg71
g4528
sg64
(lp4544
g57
(g58
g59
NtRp4545
(dp4546
g62
(dp4547
g70
I5
ssg71
g4541
sg64
(lp4548
S"<open file '/home/diego/web2py/applications/irecycle/sessions/127.0.0.1-10f67e0b-8b95-4045-9f3c-2e1e4dff1c83', mode 'rb+' at 0x7fbe0073e300>"
p4549
asbasbasbag57
(g73
g59
NtRp4550
(dp4551
g62
(dp4552
sg71
g3603
sg64
(lp4553
g57
(g78
g59
NtRp4554
(dp4555
g62
(dp4556
g82
g83
ssg71
g4550
sg64
(lp4557
S'session_filename'
p4558
asbag57
(g78
g59
NtRp4559
(dp4560
g62
(dp4561
g89
g90
ssg71
g4550
sg64
(lp4562
S':'
asbag57
(g78
g59
NtRp4563
(dp4564
g62
(dp4565
sg71
g4550
sg64
(lp4566
g57
(g58
g59
NtRp4567
(dp4568
g62
(dp4569
g70
I5
ssg71
g4563
sg64
(lp4570
S'/home/diego/web2py/applications/irecycle/sessions/127.0.0.1-10f67e0b-8b95-4045-9f3c-2e1e4dff1c83'
p4571
asbasbasbag57
(g73
g59
NtRp4572
(dp4573
g62
(dp4574
sg71
g3603
sg64
(lp4575
g57
(g78
g59
NtRp4576
(dp4577
g62
(dp4578
g82
g83
ssg71
g4572
sg64
(lp4579
S'session_id'
p4580
asbag57
(g78
g59
NtRp4581
(dp4582
g62
(dp4583
g89
g90
ssg71
g4572
sg64
(lp4584
S':'
asbag57
(g78
g59
NtRp4585
(dp4586
g62
(dp4587
sg71
g4572
sg64
(lp4588
g57
(g58
g59
NtRp4589
(dp4590
g62
(dp4591
g70
I5
ssg71
g4585
sg64
(lp4592
g488
asbasbasbag57
(g73
g59
NtRp4593
(dp4594
g62
(dp4595
sg71
g3603
sg64
(lp4596
g57
(g78
g59
NtRp4597
(dp4598
g62
(dp4599
g82
g83
ssg71
g4593
sg64
(lp4600
S'session_id_name'
p4601
asbag57
(g78
g59
NtRp4602
(dp4603
g62
(dp4604
g89
g90
ssg71
g4593
sg64
(lp4605
S':'
asbag57
(g78
g59
NtRp4606
(dp4607
g62
(dp4608
sg71
g4593
sg64
(lp4609
g57
(g58
g59
NtRp4610
(dp4611
g62
(dp4612
g70
I5
ssg71
g4606
sg64
(lp4613
g3660
asbasbasbag57
(g73
g59
NtRp4614
(dp4615
g62
(dp4616
sg71
g3603
sg64
(lp4617
g57
(g78
g59
NtRp4618
(dp4619
g62
(dp4620
g82
g83
ssg71
g4614
sg64
(lp4621
S'session_locked'
p4622
asbag57
(g78
g59
NtRp4623
(dp4624
g62
(dp4625
g89
g90
ssg71
g4614
sg64
(lp4626
S':'
asbag57
(g78
g59
NtRp4627
(dp4628
g62
(dp4629
sg71
g4614
sg64
(lp4630
g57
(g58
g59
NtRp4631
(dp4632
g62
(dp4633
g70
I5
ssg71
g4627
sg64
(lp4634
g1640
asbasbasbag57
(g73
g59
NtRp4635
(dp4636
g62
(dp4637
sg71
g3603
sg64
(lp4638
g57
(g78
g59
NtRp4639
(dp4640
g62
(dp4641
g82
g83
ssg71
g4635
sg64
(lp4642
S'session_new'
p4643
asbag57
(g78
g59
NtRp4644
(dp4645
g62
(dp4646
g89
g90
ssg71
g4635
sg64
(lp4647
S':'
asbag57
(g78
g59
NtRp4648
(dp4649
g62
(dp4650
sg71
g4635
sg64
(lp4651
g57
(g58
g59
NtRp4652
(dp4653
g62
(dp4654
g70
I5
ssg71
g4648
sg64
(lp4655
g100
asbasbasbag57
(g73
g59
NtRp4656
(dp4657
g62
(dp4658
sg71
g3603
sg64
(lp4659
g57
(g78
g59
NtRp4660
(dp4661
g62
(dp4662
g82
g83
ssg71
g4656
sg64
(lp4663
S'session_storage_type'
p4664
asbag57
(g78
g59
NtRp4665
(dp4666
g62
(dp4667
g89
g90
ssg71
g4656
sg64
(lp4668
S':'
asbag57
(g78
g59
NtRp4669
(dp4670
g62
(dp4671
sg71
g4656
sg64
(lp4672
g57
(g58
g59
NtRp4673
(dp4674
g62
(dp4675
g70
I5
ssg71
g4669
sg64
(lp4676
g3113
asbasbasbag57
(g73
g59
NtRp4677
(dp4678
g62
(dp4679
sg71
g3603
sg64
(lp4680
g57
(g78
g59
NtRp4681
(dp4682
g62
(dp4683
g82
g83
ssg71
g4677
sg64
(lp4684
S'status'
p4685
asbag57
(g78
g59
NtRp4686
(dp4687
g62
(dp4688
g89
g90
ssg71
g4677
sg64
(lp4689
S':'
asbag57
(g78
g59
NtRp4690
(dp4691
g62
(dp4692
sg71
g4677
sg64
(lp4693
g57
(g58
g59
NtRp4694
(dp4695
g62
(dp4696
g70
I5
ssg71
g4690
sg64
(lp4697
S'200'
p4698
asbasbasbag57
(g73
g59
NtRp4699
(dp4700
g62
(dp4701
sg71
g3603
sg64
(lp4702
g57
(g78
g59
NtRp4703
(dp4704
g62
(dp4705
g82
g83
ssg71
g4699
sg64
(lp4706
S'subtitle'
p4707
asbag57
(g78
g59
NtRp4708
(dp4709
g62
(dp4710
g89
g90
ssg71
g4699
sg64
(lp4711
S':'
asbag57
(g78
g59
NtRp4712
(dp4713
g62
(dp4714
sg71
g4699
sg64
(lp4715
g57
(g58
g59
NtRp4716
(dp4717
g62
(dp4718
g70
I5
ssg71
g4712
sg64
(lp4719
g4071
(S't\t\x00\x00\x00EuReciclo'
tRp4720
asbasbasbag57
(g73
g59
NtRp4721
(dp4722
g62
(dp4723
sg71
g3603
sg64
(lp4724
g57
(g78
g59
NtRp4725
(dp4726
g62
(dp4727
g82
g83
ssg71
g4721
sg64
(lp4728
S'title'
p4729
asbag57
(g78
g59
NtRp4730
(dp4731
g62
(dp4732
g89
g90
ssg71
g4721
sg64
(lp4733
S':'
asbag57
(g78
g59
NtRp4734
(dp4735
g62
(dp4736
sg71
g4721
sg64
(lp4737
g57
(g58
g59
NtRp4738
(dp4739
g62
(dp4740
g70
I5
ssg71
g4734
sg64
(lp4741
S'EuReciclo'
p4742
asbasbasbag57
(g73
g59
NtRp4743
(dp4744
g62
(dp4745
sg71
g3603
sg64
(lp4746
g57
(g78
g59
NtRp4747
(dp4748
g62
(dp4749
g82
g83
ssg71
g4743
sg64
(lp4750
S'view'
p4751
asbag57
(g78
g59
NtRp4752
(dp4753
g62
(dp4754
g89
g90
ssg71
g4743
sg64
(lp4755
S':'
asbag57
(g78
g59
NtRp4756
(dp4757
g62
(dp4758
sg71
g4743
sg64
(lp4759
g57
(g58
g59
NtRp4760
(dp4761
g62
(dp4762
g70
I5
ssg71
g4756
sg64
(lp4763
S'default/home.html'
p4764
asbasbasbasbasbsS'locals'
p4765
(dp4766
S'posts'
p4767
S'<Rows (1)>'
p4768
sS'friends'
p4769
S'[1]'
p4770
sS'form'
p4771
S'<gluon.sqlhtml.SQLFORM object>'
p4772
sssS'traceback'
p4773
S'Traceback (most recent call last):\n  File "/home/diego/web2py/gluon/restricted.py", line 212, in restricted\n    exec ccode in environment\n  File "/home/diego/web2py/applications/irecycle/controllers/default.py", line 141, in <module>\n  File "/home/diego/web2py/gluon/globals.py", line 193, in <lambda>\n    self._caller = lambda f: f()\n  File "/home/diego/web2py/gluon/tools.py", line 2929, in f\n    return action(*a, **b)\n  File "/home/diego/web2py/applications/irecycle/controllers/default.py", line 77, in home\n    post_user = auth().select()\nAttributeError: \'SQLFORM\' object has no attribute \'select\'\n'
p4774
s.