(dp1
S'output'
p2
S"<type 'exceptions.TypeError'> 'function' object is not iterable"
p3
sS'layer'
p4
S'/home/diego/web2py/applications/irecycle/controllers/default.py'
p5
sS'code'
p6
S'from gluon.storage import Storage\n\ndef origin():\n\t\treturn dict()\n\ndef index():\n\tif auth.user:\n\t\tredirect(URL(\'home\'))\n\treturn locals()\n\n# @auth.requires_login()\ndef login():\n\t# lg = auth.login()\n\t# te = db.logn(request.args(0)) or redirect(URL(\'index\',\'index\'))\n\t# form = SQLFORM(Login, FORM(\'E-mail:\',\n\t# \tINPUT(_type=\'text\', _placeholder=\'\', _class=\'input-block-level\',\n\t# \t\trequires=IS_NOT_EMPTY()),\'password:\',\n\t# \tINPUT(_type=\'Password\', _placeholder=\'password\', _class=\'input-block-level\',\n\t# \t\trequires=IS_NOT_EMPTY()),\n\t# \tINPUT(_type=\'Submit\', _class=\'btn btn-large btn-primary\', _value=\'Sing in\', \n\t# \t\t_onclick="")))\n\t# form = SQLFORM(db.logn, formstyle="divs", \n\t# \tsubmit_button="sing in").process()\n\t# inputname = form.elements(_type="submit")\n\t# inputname["_class"] = "btn btn-large btn-primary"\n\t# if request.args in Userr == True:\n\t# \tresponse.flash="success"\n\t# \tredirect(URL(\'index\',\'index\'))\n\t# elif lg.errors:\n\t# \tresponse.flash="try again"\n\t# else:\n\t# \tresponse.flash = "please fill the form"\n\treturn dict(lg=auth.login())\n\ndef contact():\n\tcont = SQLFORM(db.contacts).process()\n\treturn dict(cont=cont)\n\ndef user():\n\tobjects = Storage()\n\tif request.args(0) in [\'login\',\'register\']:\n\t\tobjects.login = auth.login()\n\t\tobjects.register = auth.register()\n\telse:\n\t\tobjects.form = auth()\n\treturn dict(objects=objects)\n# \treturn dict(objects=auth())\n\ndef register():\n\treturn dict(form=auth.register())\n\n\ndef download():\n\treturn response.download(request, db)\n\ndef call():\n\tsession.forget()\n\treturn service()\n\ndef data():\n\treturn dict(form=crud())\n\n# our home page, will show our posts and posts by friends\n\n@auth.requires_login()\ndef home():\n\tPost.posted_by.default = me\n\tPost.posted_on.default = request.now\n\tcrud.settings.formstyle = "divs"\n\tform = crud.create(Post)\n\tfriends = [me]+[row.target for row in myfriends.select(Link.target)]\n\tposts = db(Post.posted_by.belongs(friends)).select(orderby=~Post.posted_on,\n\t\tlimitby=(0,100))\n\tfor post in user:\n\t\tpost_user = \'%(first_name)s %(last_name)s\' % user\n\treturn locals()\n\n# our wall will show our profile and our own posts\n\n@auth.requires_login()\ndef wall():\n\tuser = User(a0 or me)\n\tif not user or not (user.id==me or \\\n\t\tmyfriends(Link.target==user.id).count()):\n\t\tredirect(URL(\'home\'))\n\tposts = db(Post.posted_by==user.id).select(orderby=~Post.posted_on,\n\t\tlimitby=(0,100))\n\treturn locals()\n\n\n# a page for searching friends and requesting friendship\n@auth.requires_login()\ndef search():\n\tform = SQLFORM.factory(Field(\'name\', requires=IS_NOT_EMPTY()))\n\tif form.accepts(request):\n\t\ttokens = form.vars.name.split()\n\t\tquery = reduce(lambda a,b:a&b,\n\t\t\t[User.first_name.contains(k) | User.last_name.contains(k)\\\n\t\t\tfor k in tokens])\n\t\tpeople = db(query).select(orderby=alphabetical)\n\telse:\n\t\tpeople = []\n\n\treturn locals()\n\n\n# a page for accepting and denying friendship requests\n@auth.requires_login()\ndef friends():\n\tfriends = db(User.id==Link.fonte)(Link.target==me).select(orderby==alphabetical)\n\trequests = db(User.id==Link.target)(Link.fonte==me).select(orderby==alphabetical)\n\treturn locals()\n\n# this is the Ajax callback\n@auth.requires_login()\ndef friendship():\n\t"""Ajax callback"""\n\tif request.env.request_method != \'POST\': raise HTTP(400)\n\tif a0 == \'request\' and not Link(fonte=a1, target=me):\n\t\t# insert a new friendship request\n\t\tLink.insert(fonte=me, target=a1)\n\telif a0 == \'accept\':\n\t\t# accept an existing friendship request\n\t\tdb(Link.target==me)(Link.fonte==a1).update(accepted=True)\n\tif not db(Link.fonte==me)(Link.target==a1).count():\n\t\tLink.insert(fonte=me, target=a1)\n\telif a0 == \'deny\':\n\t\t# deny an existing friendship request\n\t\tdb(Link.target==me)(Link.fonte==a1).delete()\n\telif a0 == \'remove\':\n\t\t# delete a previous friendship request\n\t\tdb(Link.fonte==me)(Link.target==a1).delete()\n\n\ndef user_pos_login():\n\tname_full = "%s %s" % db(auth_user.first_name, last_name)\n\treturn dict(name_full=name_full)\nresponse._vars=response._caller(home)\n'
p7
sS'snapshot'
p8
(dp9
S'exception'
p10
(dp11
S'__hash__'
p12
S"<method-wrapper '__hash__' of exceptions.TypeError object>"
p13
sS'__setattr__'
p14
S"<method-wrapper '__setattr__' of exceptions.TypeError object>"
p15
sS'__reduce_ex__'
p16
S'<built-in method __reduce_ex__ of exceptions.TypeError object>'
p17
sS'__getslice__'
p18
S"<method-wrapper '__getslice__' of exceptions.TypeError object>"
p19
sS'__getitem__'
p20
S"<method-wrapper '__getitem__' of exceptions.TypeError object>"
p21
sS'__setstate__'
p22
S'<built-in method __setstate__ of exceptions.TypeError object>'
p23
sS'args'
p24
S'("\'function\' object is not iterable",)'
p25
sS'__reduce__'
p26
S'<built-in method __reduce__ of exceptions.TypeError object>'
p27
sS'__str__'
p28
S"<method-wrapper '__str__' of exceptions.TypeError object>"
p29
sS'__format__'
p30
S'<built-in method __format__ of exceptions.TypeError object>'
p31
sS'__getattribute__'
p32
S"<method-wrapper '__getattribute__' of exceptions.TypeError object>"
p33
sS'__class__'
p34
S"<type 'exceptions.TypeError'>"
p35
sS'__unicode__'
p36
S'<built-in method __unicode__ of exceptions.TypeError object>'
p37
sS'__delattr__'
p38
S"<method-wrapper '__delattr__' of exceptions.TypeError object>"
p39
sS'__subclasshook__'
p40
S'<built-in method __subclasshook__ of type object>'
p41
sS'__repr__'
p42
S"<method-wrapper '__repr__' of exceptions.TypeError object>"
p43
sS'__dict__'
p44
S'{}'
p45
sS'__sizeof__'
p46
S'<built-in method __sizeof__ of exceptions.TypeError object>'
p47
sS'__doc__'
p48
S"'Inappropriate argument type.'"
p49
sS'__init__'
p50
S"<method-wrapper '__init__' of exceptions.TypeError object>"
p51
sS'__new__'
p52
S'<built-in method __new__ of type object>'
p53
ssS'evalue'
p54
S"'function' object is not iterable"
p55
sS'request'
p56
ccopy_reg
_reconstructor
p57
(cgluon.html
BEAUTIFY
p58
c__builtin__
object
p59
NtRp60
(dp61
S'attributes'
p62
(dp63
sS'components'
p64
(lp65
g57
(cgluon.html
TABLE
p66
g59
NtRp67
(dp68
g62
(dp69
S'level'
p70
I5
ssS'parent'
p71
Nsg64
(lp72
g57
(cgluon.html
TR
p73
g59
NtRp74
(dp75
g62
(dp76
sg71
g67
sg64
(lp77
g57
(cgluon.html
TD
p78
g59
NtRp79
(dp80
g62
(dp81
S'_style'
p82
S'font-weight:bold;vertical-align:top'
p83
ssg71
g74
sg64
(lp84
S'ajax'
p85
asbag57
(g78
g59
NtRp86
(dp87
g62
(dp88
S'_valign'
p89
S'top'
p90
ssg71
g74
sg64
(lp91
S':'
asbag57
(g78
g59
NtRp92
(dp93
g62
(dp94
sg71
g74
sg64
(lp95
g57
(g58
g59
NtRp96
(dp97
g62
(dp98
g70
I5
ssg71
g92
sg64
(lp99
S'False'
p100
asbasbasbag57
(g73
g59
NtRp101
(dp102
g62
(dp103
sg71
g67
sg64
(lp104
g57
(g78
g59
NtRp105
(dp106
g62
(dp107
g82
g83
ssg71
g101
sg64
(lp108
S'application'
p109
asbag57
(g78
g59
NtRp110
(dp111
g62
(dp112
g89
g90
ssg71
g101
sg64
(lp113
S':'
asbag57
(g78
g59
NtRp114
(dp115
g62
(dp116
sg71
g101
sg64
(lp117
g57
(g58
g59
NtRp118
(dp119
g62
(dp120
g70
I5
ssg71
g114
sg64
(lp121
S'irecycle'
p122
asbasbasbag57
(g73
g59
NtRp123
(dp124
g62
(dp125
sg71
g67
sg64
(lp126
g57
(g78
g59
NtRp127
(dp128
g62
(dp129
g82
g83
ssg71
g123
sg64
(lp130
g24
asbag57
(g78
g59
NtRp131
(dp132
g62
(dp133
g89
g90
ssg71
g123
sg64
(lp134
S':'
asbag57
(g78
g59
NtRp135
(dp136
g62
(dp137
sg71
g123
sg64
(lp138
g57
(g58
g59
NtRp139
(dp140
g62
(dp141
g70
I5
ssg71
g135
sg64
(lp142
g57
(g66
g59
NtRp143
(dp144
g62
(dp145
g70
I4
ssg71
Nsg64
(lp146
sbasbasbasbag57
(g73
g59
NtRp147
(dp148
g62
(dp149
sg71
g67
sg64
(lp150
g57
(g78
g59
NtRp151
(dp152
g62
(dp153
g82
g83
ssg71
g147
sg64
(lp154
S'body'
p155
asbag57
(g78
g59
NtRp156
(dp157
g62
(dp158
g89
g90
ssg71
g147
sg64
(lp159
S':'
asbag57
(g78
g59
NtRp160
(dp161
g62
(dp162
sg71
g147
sg64
(lp163
g57
(g58
g59
NtRp164
(dp165
g62
(dp166
g70
I5
ssg71
g160
sg64
(lp167
S'<cStringIO.StringO object at 0x7f02f4132ca8>'
p168
asbasbasbag57
(g73
g59
NtRp169
(dp170
g62
(dp171
sg71
g67
sg64
(lp172
g57
(g78
g59
NtRp173
(dp174
g62
(dp175
g82
g83
ssg71
g169
sg64
(lp176
S'cid'
p177
asbag57
(g78
g59
NtRp178
(dp179
g62
(dp180
g89
g90
ssg71
g169
sg64
(lp181
S':'
asbag57
(g78
g59
NtRp182
(dp183
g62
(dp184
sg71
g169
sg64
(lp185
g57
(g58
g59
NtRp186
(dp187
g62
(dp188
g70
I5
ssg71
g182
sg64
(lp189
S'None'
p190
asbasbasbag57
(g73
g59
NtRp191
(dp192
g62
(dp193
sg71
g67
sg64
(lp194
g57
(g78
g59
NtRp195
(dp196
g62
(dp197
g82
g83
ssg71
g191
sg64
(lp198
S'client'
p199
asbag57
(g78
g59
NtRp200
(dp201
g62
(dp202
g89
g90
ssg71
g191
sg64
(lp203
S':'
asbag57
(g78
g59
NtRp204
(dp205
g62
(dp206
sg71
g191
sg64
(lp207
g57
(g58
g59
NtRp208
(dp209
g62
(dp210
g70
I5
ssg71
g204
sg64
(lp211
S'127.0.0.1'
p212
asbasbasbag57
(g73
g59
NtRp213
(dp214
g62
(dp215
sg71
g67
sg64
(lp216
g57
(g78
g59
NtRp217
(dp218
g62
(dp219
g82
g83
ssg71
g213
sg64
(lp220
S'controller'
p221
asbag57
(g78
g59
NtRp222
(dp223
g62
(dp224
g89
g90
ssg71
g213
sg64
(lp225
S':'
asbag57
(g78
g59
NtRp226
(dp227
g62
(dp228
sg71
g213
sg64
(lp229
g57
(g58
g59
NtRp230
(dp231
g62
(dp232
g70
I5
ssg71
g226
sg64
(lp233
S'default'
p234
asbasbasbag57
(g73
g59
NtRp235
(dp236
g62
(dp237
sg71
g67
sg64
(lp238
g57
(g78
g59
NtRp239
(dp240
g62
(dp241
g82
g83
ssg71
g235
sg64
(lp242
S'cookies'
p243
asbag57
(g78
g59
NtRp244
(dp245
g62
(dp246
g89
g90
ssg71
g235
sg64
(lp247
S':'
asbag57
(g78
g59
NtRp248
(dp249
g62
(dp250
sg71
g235
sg64
(lp251
g57
(g58
g59
NtRp252
(dp253
g62
(dp254
g70
I5
ssg71
g248
sg64
(lp255
g57
(g66
g59
NtRp256
(dp257
g62
(dp258
g70
I4
ssg71
Nsg64
(lp259
g57
(g73
g59
NtRp260
(dp261
g62
(dp262
sg71
g256
sg64
(lp263
g57
(g78
g59
NtRp264
(dp265
g62
(dp266
g82
g83
ssg71
g260
sg64
(lp267
S'session_id_admin'
p268
asbag57
(g78
g59
NtRp269
(dp270
g62
(dp271
g89
g90
ssg71
g260
sg64
(lp272
S':'
asbag57
(g78
g59
NtRp273
(dp274
g62
(dp275
sg71
g260
sg64
(lp276
g57
(g58
g59
NtRp277
(dp278
g62
(dp279
g70
I4
ssg71
g273
sg64
(lp280
S'127.0.0.1-1178fb15-8635-4562-92ac-0bdfeed62f9a'
p281
ag57
(g66
g59
NtRp282
(dp283
g62
(dp284
g70
I3
ssg71
Nsg64
(lp285
g57
(g73
g59
NtRp286
(dp287
g62
(dp288
sg71
g282
sg64
(lp289
g57
(g78
g59
NtRp290
(dp291
g62
(dp292
g82
g83
ssg71
g286
sg64
(lp293
S'comment'
p294
asbag57
(g78
g59
NtRp295
(dp296
g62
(dp297
g89
g90
ssg71
g286
sg64
(lp298
S':'
asbag57
(g78
g59
NtRp299
(dp300
g62
(dp301
sg71
g286
sg64
(lp302
g57
(g58
g59
NtRp303
(dp304
g62
(dp305
g70
I3
ssg71
g299
sg64
(lp306
S''
asbasbasbag57
(g73
g59
NtRp307
(dp308
g62
(dp309
sg71
g282
sg64
(lp310
g57
(g78
g59
NtRp311
(dp312
g62
(dp313
g82
g83
ssg71
g307
sg64
(lp314
S'domain'
p315
asbag57
(g78
g59
NtRp316
(dp317
g62
(dp318
g89
g90
ssg71
g307
sg64
(lp319
S':'
asbag57
(g78
g59
NtRp320
(dp321
g62
(dp322
sg71
g307
sg64
(lp323
g57
(g58
g59
NtRp324
(dp325
g62
(dp326
g70
I3
ssg71
g320
sg64
(lp327
S''
asbasbasbag57
(g73
g59
NtRp328
(dp329
g62
(dp330
sg71
g282
sg64
(lp331
g57
(g78
g59
NtRp332
(dp333
g62
(dp334
g82
g83
ssg71
g328
sg64
(lp335
S'expires'
p336
asbag57
(g78
g59
NtRp337
(dp338
g62
(dp339
g89
g90
ssg71
g328
sg64
(lp340
S':'
asbag57
(g78
g59
NtRp341
(dp342
g62
(dp343
sg71
g328
sg64
(lp344
g57
(g58
g59
NtRp345
(dp346
g62
(dp347
g70
I3
ssg71
g341
sg64
(lp348
S''
asbasbasbag57
(g73
g59
NtRp349
(dp350
g62
(dp351
sg71
g282
sg64
(lp352
g57
(g78
g59
NtRp353
(dp354
g62
(dp355
g82
g83
ssg71
g349
sg64
(lp356
S'httponly'
p357
asbag57
(g78
g59
NtRp358
(dp359
g62
(dp360
g89
g90
ssg71
g349
sg64
(lp361
S':'
asbag57
(g78
g59
NtRp362
(dp363
g62
(dp364
sg71
g349
sg64
(lp365
g57
(g58
g59
NtRp366
(dp367
g62
(dp368
g70
I3
ssg71
g362
sg64
(lp369
S''
asbasbasbag57
(g73
g59
NtRp370
(dp371
g62
(dp372
sg71
g282
sg64
(lp373
g57
(g78
g59
NtRp374
(dp375
g62
(dp376
g82
g83
ssg71
g370
sg64
(lp377
S'max-age'
p378
asbag57
(g78
g59
NtRp379
(dp380
g62
(dp381
g89
g90
ssg71
g370
sg64
(lp382
S':'
asbag57
(g78
g59
NtRp383
(dp384
g62
(dp385
sg71
g370
sg64
(lp386
g57
(g58
g59
NtRp387
(dp388
g62
(dp389
g70
I3
ssg71
g383
sg64
(lp390
S''
asbasbasbag57
(g73
g59
NtRp391
(dp392
g62
(dp393
sg71
g282
sg64
(lp394
g57
(g78
g59
NtRp395
(dp396
g62
(dp397
g82
g83
ssg71
g391
sg64
(lp398
S'path'
p399
asbag57
(g78
g59
NtRp400
(dp401
g62
(dp402
g89
g90
ssg71
g391
sg64
(lp403
S':'
asbag57
(g78
g59
NtRp404
(dp405
g62
(dp406
sg71
g391
sg64
(lp407
g57
(g58
g59
NtRp408
(dp409
g62
(dp410
g70
I3
ssg71
g404
sg64
(lp411
S''
asbasbasbag57
(g73
g59
NtRp412
(dp413
g62
(dp414
sg71
g282
sg64
(lp415
g57
(g78
g59
NtRp416
(dp417
g62
(dp418
g82
g83
ssg71
g412
sg64
(lp419
S'secure'
p420
asbag57
(g78
g59
NtRp421
(dp422
g62
(dp423
g89
g90
ssg71
g412
sg64
(lp424
S':'
asbag57
(g78
g59
NtRp425
(dp426
g62
(dp427
sg71
g412
sg64
(lp428
g57
(g58
g59
NtRp429
(dp430
g62
(dp431
g70
I3
ssg71
g425
sg64
(lp432
S''
asbasbasbag57
(g73
g59
NtRp433
(dp434
g62
(dp435
sg71
g282
sg64
(lp436
g57
(g78
g59
NtRp437
(dp438
g62
(dp439
g82
g83
ssg71
g433
sg64
(lp440
S'version'
p441
asbag57
(g78
g59
NtRp442
(dp443
g62
(dp444
g89
g90
ssg71
g433
sg64
(lp445
S':'
asbag57
(g78
g59
NtRp446
(dp447
g62
(dp448
sg71
g433
sg64
(lp449
g57
(g58
g59
NtRp450
(dp451
g62
(dp452
g70
I3
ssg71
g446
sg64
(lp453
S''
asbasbasbasbasbasbasbag57
(g73
g59
NtRp454
(dp455
g62
(dp456
sg71
g256
sg64
(lp457
g57
(g78
g59
NtRp458
(dp459
g62
(dp460
g82
g83
ssg71
g454
sg64
(lp461
S'session_id_irecycle'
p462
asbag57
(g78
g59
NtRp463
(dp464
g62
(dp465
g89
g90
ssg71
g454
sg64
(lp466
S':'
asbag57
(g78
g59
NtRp467
(dp468
g62
(dp469
sg71
g454
sg64
(lp470
g57
(g58
g59
NtRp471
(dp472
g62
(dp473
g70
I4
ssg71
g467
sg64
(lp474
S'127.0.0.1-52497e39-155c-423e-8fad-ac44f096ff04'
p475
ag57
(g66
g59
NtRp476
(dp477
g62
(dp478
g70
I3
ssg71
Nsg64
(lp479
g57
(g73
g59
NtRp480
(dp481
g62
(dp482
sg71
g476
sg64
(lp483
g57
(g78
g59
NtRp484
(dp485
g62
(dp486
g82
g83
ssg71
g480
sg64
(lp487
g294
asbag57
(g78
g59
NtRp488
(dp489
g62
(dp490
g89
g90
ssg71
g480
sg64
(lp491
S':'
asbag57
(g78
g59
NtRp492
(dp493
g62
(dp494
sg71
g480
sg64
(lp495
g57
(g58
g59
NtRp496
(dp497
g62
(dp498
g70
I3
ssg71
g492
sg64
(lp499
S''
asbasbasbag57
(g73
g59
NtRp500
(dp501
g62
(dp502
sg71
g476
sg64
(lp503
g57
(g78
g59
NtRp504
(dp505
g62
(dp506
g82
g83
ssg71
g500
sg64
(lp507
g315
asbag57
(g78
g59
NtRp508
(dp509
g62
(dp510
g89
g90
ssg71
g500
sg64
(lp511
S':'
asbag57
(g78
g59
NtRp512
(dp513
g62
(dp514
sg71
g500
sg64
(lp515
g57
(g58
g59
NtRp516
(dp517
g62
(dp518
g70
I3
ssg71
g512
sg64
(lp519
S''
asbasbasbag57
(g73
g59
NtRp520
(dp521
g62
(dp522
sg71
g476
sg64
(lp523
g57
(g78
g59
NtRp524
(dp525
g62
(dp526
g82
g83
ssg71
g520
sg64
(lp527
g336
asbag57
(g78
g59
NtRp528
(dp529
g62
(dp530
g89
g90
ssg71
g520
sg64
(lp531
S':'
asbag57
(g78
g59
NtRp532
(dp533
g62
(dp534
sg71
g520
sg64
(lp535
g57
(g58
g59
NtRp536
(dp537
g62
(dp538
g70
I3
ssg71
g532
sg64
(lp539
S''
asbasbasbag57
(g73
g59
NtRp540
(dp541
g62
(dp542
sg71
g476
sg64
(lp543
g57
(g78
g59
NtRp544
(dp545
g62
(dp546
g82
g83
ssg71
g540
sg64
(lp547
g357
asbag57
(g78
g59
NtRp548
(dp549
g62
(dp550
g89
g90
ssg71
g540
sg64
(lp551
S':'
asbag57
(g78
g59
NtRp552
(dp553
g62
(dp554
sg71
g540
sg64
(lp555
g57
(g58
g59
NtRp556
(dp557
g62
(dp558
g70
I3
ssg71
g552
sg64
(lp559
S''
asbasbasbag57
(g73
g59
NtRp560
(dp561
g62
(dp562
sg71
g476
sg64
(lp563
g57
(g78
g59
NtRp564
(dp565
g62
(dp566
g82
g83
ssg71
g560
sg64
(lp567
g378
asbag57
(g78
g59
NtRp568
(dp569
g62
(dp570
g89
g90
ssg71
g560
sg64
(lp571
S':'
asbag57
(g78
g59
NtRp572
(dp573
g62
(dp574
sg71
g560
sg64
(lp575
g57
(g58
g59
NtRp576
(dp577
g62
(dp578
g70
I3
ssg71
g572
sg64
(lp579
S''
asbasbasbag57
(g73
g59
NtRp580
(dp581
g62
(dp582
sg71
g476
sg64
(lp583
g57
(g78
g59
NtRp584
(dp585
g62
(dp586
g82
g83
ssg71
g580
sg64
(lp587
g399
asbag57
(g78
g59
NtRp588
(dp589
g62
(dp590
g89
g90
ssg71
g580
sg64
(lp591
S':'
asbag57
(g78
g59
NtRp592
(dp593
g62
(dp594
sg71
g580
sg64
(lp595
g57
(g58
g59
NtRp596
(dp597
g62
(dp598
g70
I3
ssg71
g592
sg64
(lp599
S''
asbasbasbag57
(g73
g59
NtRp600
(dp601
g62
(dp602
sg71
g476
sg64
(lp603
g57
(g78
g59
NtRp604
(dp605
g62
(dp606
g82
g83
ssg71
g600
sg64
(lp607
g420
asbag57
(g78
g59
NtRp608
(dp609
g62
(dp610
g89
g90
ssg71
g600
sg64
(lp611
S':'
asbag57
(g78
g59
NtRp612
(dp613
g62
(dp614
sg71
g600
sg64
(lp615
g57
(g58
g59
NtRp616
(dp617
g62
(dp618
g70
I3
ssg71
g612
sg64
(lp619
S''
asbasbasbag57
(g73
g59
NtRp620
(dp621
g62
(dp622
sg71
g476
sg64
(lp623
g57
(g78
g59
NtRp624
(dp625
g62
(dp626
g82
g83
ssg71
g620
sg64
(lp627
g441
asbag57
(g78
g59
NtRp628
(dp629
g62
(dp630
g89
g90
ssg71
g620
sg64
(lp631
S':'
asbag57
(g78
g59
NtRp632
(dp633
g62
(dp634
sg71
g620
sg64
(lp635
g57
(g58
g59
NtRp636
(dp637
g62
(dp638
g70
I3
ssg71
g632
sg64
(lp639
S''
asbasbasbasbasbasbasbasbasbasbasbag57
(g73
g59
NtRp640
(dp641
g62
(dp642
sg71
g67
sg64
(lp643
g57
(g78
g59
NtRp644
(dp645
g62
(dp646
g82
g83
ssg71
g640
sg64
(lp647
S'env'
p648
asbag57
(g78
g59
NtRp649
(dp650
g62
(dp651
g89
g90
ssg71
g640
sg64
(lp652
S':'
asbag57
(g78
g59
NtRp653
(dp654
g62
(dp655
sg71
g640
sg64
(lp656
g57
(g58
g59
NtRp657
(dp658
g62
(dp659
g70
I5
ssg71
g653
sg64
(lp660
g57
(g66
g59
NtRp661
(dp662
g62
(dp663
g70
I4
ssg71
Nsg64
(lp664
g57
(g73
g59
NtRp665
(dp666
g62
(dp667
sg71
g661
sg64
(lp668
g57
(g78
g59
NtRp669
(dp670
g62
(dp671
g82
g83
ssg71
g665
sg64
(lp672
S'app_folders'
p673
asbag57
(g78
g59
NtRp674
(dp675
g62
(dp676
g89
g90
ssg71
g665
sg64
(lp677
S':'
asbag57
(g78
g59
NtRp678
(dp679
g62
(dp680
sg71
g665
sg64
(lp681
g57
(g58
g59
NtRp682
(dp683
g62
(dp684
g70
I4
ssg71
g678
sg64
(lp685
S"set(['/home/diego/web2py/applications/irecycle/', '/home/diego/web2py/applications/admin/'])"
p686
asbasbasbag57
(g73
g59
NtRp687
(dp688
g62
(dp689
sg71
g661
sg64
(lp690
g57
(g78
g59
NtRp691
(dp692
g62
(dp693
g82
g83
ssg71
g687
sg64
(lp694
S'applications_parent'
p695
asbag57
(g78
g59
NtRp696
(dp697
g62
(dp698
g89
g90
ssg71
g687
sg64
(lp699
S':'
asbag57
(g78
g59
NtRp700
(dp701
g62
(dp702
sg71
g687
sg64
(lp703
g57
(g58
g59
NtRp704
(dp705
g62
(dp706
g70
I4
ssg71
g700
sg64
(lp707
S'/home/diego/web2py'
p708
asbasbasbag57
(g73
g59
NtRp709
(dp710
g62
(dp711
sg71
g661
sg64
(lp712
g57
(g78
g59
NtRp713
(dp714
g62
(dp715
g82
g83
ssg71
g709
sg64
(lp716
S'cmd_args'
p717
asbag57
(g78
g59
NtRp718
(dp719
g62
(dp720
g89
g90
ssg71
g709
sg64
(lp721
S':'
asbag57
(g78
g59
NtRp722
(dp723
g62
(dp724
sg71
g709
sg64
(lp725
g57
(g58
g59
NtRp726
(dp727
g62
(dp728
g70
I4
ssg71
g722
sg64
(lp729
g57
(g66
g59
NtRp730
(dp731
g62
(dp732
g70
I3
ssg71
Nsg64
(lp733
sbasbasbasbag57
(g73
g59
NtRp734
(dp735
g62
(dp736
sg71
g661
sg64
(lp737
g57
(g78
g59
NtRp738
(dp739
g62
(dp740
g82
g83
ssg71
g734
sg64
(lp741
S'cmd_options'
p742
asbag57
(g78
g59
NtRp743
(dp744
g62
(dp745
g89
g90
ssg71
g734
sg64
(lp746
S':'
asbag57
(g78
g59
NtRp747
(dp748
g62
(dp749
sg71
g734
sg64
(lp750
g57
(g58
g59
NtRp751
(dp752
g62
(dp753
g70
I4
ssg71
g747
sg64
(lp754
S"<Values at 0x20d5488: {'verbose': False, 'ip': '127.0.0.1', 'with_scheduler': False, 'ips': ['172.30.6.210'], 'shutdown_timeout': 5, 'taskbar': False, 'port': 8000, 'maxthreads': None, 'softcron': False, 'server_name': 'madagascar', 'bpython': False, 'nogui': False, 'pid_filename': 'httpserver.pid', 'extcron': False, 'runcron': False, 'run_system_tests': False, 'test': None, 'folder': '/home/diego/web2py', 'config': '', 'minthreads': None, 'winservice': '', 'shell': None, 'run': '', 'log_filename': 'httpserver.log', 'debuglevel': 30, 'args': [''], 'socket_timeout': 5, 'ssl_ca_certificate': None, 'scheduler': None, 'profiler_filename': None, 'ssl_private_key': '', 'scheduler_groups': None, 'password': '1234', 'request_queue_size': 5, 'ssl_certificate': '', 'cronjob': False, 'numthreads': None, 'quiet': False, 'interfaces': None, 'import_models': False, 'timeout': 10, 'plain': False, 'nobanner': False}>"
p755
asbasbasbag57
(g73
g59
NtRp756
(dp757
g62
(dp758
sg71
g661
sg64
(lp759
g57
(g78
g59
NtRp760
(dp761
g62
(dp762
g82
g83
ssg71
g756
sg64
(lp763
S'db_sessions'
p764
asbag57
(g78
g59
NtRp765
(dp766
g62
(dp767
g89
g90
ssg71
g756
sg64
(lp768
S':'
asbag57
(g78
g59
NtRp769
(dp770
g62
(dp771
sg71
g756
sg64
(lp772
g57
(g58
g59
NtRp773
(dp774
g62
(dp775
g70
I4
ssg71
g769
sg64
(lp776
S'set([])'
p777
asbasbasbag57
(g73
g59
NtRp778
(dp779
g62
(dp780
sg71
g661
sg64
(lp781
g57
(g78
g59
NtRp782
(dp783
g62
(dp784
g82
g83
ssg71
g778
sg64
(lp785
S'debugging'
p786
asbag57
(g78
g59
NtRp787
(dp788
g62
(dp789
g89
g90
ssg71
g778
sg64
(lp790
S':'
asbag57
(g78
g59
NtRp791
(dp792
g62
(dp793
sg71
g778
sg64
(lp794
g57
(g58
g59
NtRp795
(dp796
g62
(dp797
g70
I4
ssg71
g791
sg64
(lp798
g100
asbasbasbag57
(g73
g59
NtRp799
(dp800
g62
(dp801
sg71
g661
sg64
(lp802
g57
(g78
g59
NtRp803
(dp804
g62
(dp805
g82
g83
ssg71
g799
sg64
(lp806
S'gluon_parent'
p807
asbag57
(g78
g59
NtRp808
(dp809
g62
(dp810
g89
g90
ssg71
g799
sg64
(lp811
S':'
asbag57
(g78
g59
NtRp812
(dp813
g62
(dp814
sg71
g799
sg64
(lp815
g57
(g58
g59
NtRp816
(dp817
g62
(dp818
g70
I4
ssg71
g812
sg64
(lp819
S'/home/diego/web2py'
p820
asbasbasbag57
(g73
g59
NtRp821
(dp822
g62
(dp823
sg71
g661
sg64
(lp824
g57
(g78
g59
NtRp825
(dp826
g62
(dp827
g82
g83
ssg71
g821
sg64
(lp828
S'http_accept'
p829
asbag57
(g78
g59
NtRp830
(dp831
g62
(dp832
g89
g90
ssg71
g821
sg64
(lp833
S':'
asbag57
(g78
g59
NtRp834
(dp835
g62
(dp836
sg71
g821
sg64
(lp837
g57
(g58
g59
NtRp838
(dp839
g62
(dp840
g70
I4
ssg71
g834
sg64
(lp841
S'text/html,application/xhtml+xml,application/xml;q=0.9,*/*;q=0.8'
p842
asbasbasbag57
(g73
g59
NtRp843
(dp844
g62
(dp845
sg71
g661
sg64
(lp846
g57
(g78
g59
NtRp847
(dp848
g62
(dp849
g82
g83
ssg71
g843
sg64
(lp850
S'http_accept_charset'
p851
asbag57
(g78
g59
NtRp852
(dp853
g62
(dp854
g89
g90
ssg71
g843
sg64
(lp855
S':'
asbag57
(g78
g59
NtRp856
(dp857
g62
(dp858
sg71
g843
sg64
(lp859
g57
(g58
g59
NtRp860
(dp861
g62
(dp862
g70
I4
ssg71
g856
sg64
(lp863
S'ISO-8859-1,utf-8;q=0.7,*;q=0.3'
p864
asbasbasbag57
(g73
g59
NtRp865
(dp866
g62
(dp867
sg71
g661
sg64
(lp868
g57
(g78
g59
NtRp869
(dp870
g62
(dp871
g82
g83
ssg71
g865
sg64
(lp872
S'http_accept_encoding'
p873
asbag57
(g78
g59
NtRp874
(dp875
g62
(dp876
g89
g90
ssg71
g865
sg64
(lp877
S':'
asbag57
(g78
g59
NtRp878
(dp879
g62
(dp880
sg71
g865
sg64
(lp881
g57
(g58
g59
NtRp882
(dp883
g62
(dp884
g70
I4
ssg71
g878
sg64
(lp885
S'gzip,deflate,sdch'
p886
asbasbasbag57
(g73
g59
NtRp887
(dp888
g62
(dp889
sg71
g661
sg64
(lp890
g57
(g78
g59
NtRp891
(dp892
g62
(dp893
g82
g83
ssg71
g887
sg64
(lp894
S'http_accept_language'
p895
asbag57
(g78
g59
NtRp896
(dp897
g62
(dp898
g89
g90
ssg71
g887
sg64
(lp899
S':'
asbag57
(g78
g59
NtRp900
(dp901
g62
(dp902
sg71
g887
sg64
(lp903
g57
(g58
g59
NtRp904
(dp905
g62
(dp906
g70
I4
ssg71
g900
sg64
(lp907
S'pt-BR,pt;q=0.8,en-US;q=0.6,en;q=0.4'
p908
asbasbasbag57
(g73
g59
NtRp909
(dp910
g62
(dp911
sg71
g661
sg64
(lp912
g57
(g78
g59
NtRp913
(dp914
g62
(dp915
g82
g83
ssg71
g909
sg64
(lp916
S'http_cache_control'
p917
asbag57
(g78
g59
NtRp918
(dp919
g62
(dp920
g89
g90
ssg71
g909
sg64
(lp921
S':'
asbag57
(g78
g59
NtRp922
(dp923
g62
(dp924
sg71
g909
sg64
(lp925
g57
(g58
g59
NtRp926
(dp927
g62
(dp928
g70
I4
ssg71
g922
sg64
(lp929
S'max-age=0'
p930
asbasbasbag57
(g73
g59
NtRp931
(dp932
g62
(dp933
sg71
g661
sg64
(lp934
g57
(g78
g59
NtRp935
(dp936
g62
(dp937
g82
g83
ssg71
g931
sg64
(lp938
S'http_connection'
p939
asbag57
(g78
g59
NtRp940
(dp941
g62
(dp942
g89
g90
ssg71
g931
sg64
(lp943
S':'
asbag57
(g78
g59
NtRp944
(dp945
g62
(dp946
sg71
g931
sg64
(lp947
g57
(g58
g59
NtRp948
(dp949
g62
(dp950
g70
I4
ssg71
g944
sg64
(lp951
S'keep-alive'
p952
asbasbasbag57
(g73
g59
NtRp953
(dp954
g62
(dp955
sg71
g661
sg64
(lp956
g57
(g78
g59
NtRp957
(dp958
g62
(dp959
g82
g83
ssg71
g953
sg64
(lp960
S'http_cookie'
p961
asbag57
(g78
g59
NtRp962
(dp963
g62
(dp964
g89
g90
ssg71
g953
sg64
(lp965
S':'
asbag57
(g78
g59
NtRp966
(dp967
g62
(dp968
sg71
g953
sg64
(lp969
g57
(g58
g59
NtRp970
(dp971
g62
(dp972
g70
I4
ssg71
g966
sg64
(lp973
S'session_id_irecycle=127.0.0.1-52497e39-155c-423e-8fad-ac44f096ff04; session_id_admin=127.0.0.1-1178fb15-8635-4562-92ac-0bdfeed62f9a'
p974
asbasbasbag57
(g73
g59
NtRp975
(dp976
g62
(dp977
sg71
g661
sg64
(lp978
g57
(g78
g59
NtRp979
(dp980
g62
(dp981
g82
g83
ssg71
g975
sg64
(lp982
S'http_host'
p983
asbag57
(g78
g59
NtRp984
(dp985
g62
(dp986
g89
g90
ssg71
g975
sg64
(lp987
S':'
asbag57
(g78
g59
NtRp988
(dp989
g62
(dp990
sg71
g975
sg64
(lp991
g57
(g58
g59
NtRp992
(dp993
g62
(dp994
g70
I4
ssg71
g988
sg64
(lp995
S'localhost:8000'
p996
asbasbasbag57
(g73
g59
NtRp997
(dp998
g62
(dp999
sg71
g661
sg64
(lp1000
g57
(g78
g59
NtRp1001
(dp1002
g62
(dp1003
g82
g83
ssg71
g997
sg64
(lp1004
S'http_referer'
p1005
asbag57
(g78
g59
NtRp1006
(dp1007
g62
(dp1008
g89
g90
ssg71
g997
sg64
(lp1009
S':'
asbag57
(g78
g59
NtRp1010
(dp1011
g62
(dp1012
sg71
g997
sg64
(lp1013
g57
(g58
g59
NtRp1014
(dp1015
g62
(dp1016
g70
I4
ssg71
g1010
sg64
(lp1017
S'http://localhost:8000/irecycle/default/user/login?_next=/irecycle/default/index'
p1018
asbasbasbag57
(g73
g59
NtRp1019
(dp1020
g62
(dp1021
sg71
g661
sg64
(lp1022
g57
(g78
g59
NtRp1023
(dp1024
g62
(dp1025
g82
g83
ssg71
g1019
sg64
(lp1026
S'http_user_agent'
p1027
asbag57
(g78
g59
NtRp1028
(dp1029
g62
(dp1030
g89
g90
ssg71
g1019
sg64
(lp1031
S':'
asbag57
(g78
g59
NtRp1032
(dp1033
g62
(dp1034
sg71
g1019
sg64
(lp1035
g57
(g58
g59
NtRp1036
(dp1037
g62
(dp1038
g70
I4
ssg71
g1032
sg64
(lp1039
S'Mozilla/5.0 (X11; Linux x86_64) AppleWebKit/537.17 (KHTML, like Gecko) Chrome/24.0.1312.52 Safari/537.17'
p1040
asbasbasbag57
(g73
g59
NtRp1041
(dp1042
g62
(dp1043
sg71
g661
sg64
(lp1044
g57
(g78
g59
NtRp1045
(dp1046
g62
(dp1047
g82
g83
ssg71
g1041
sg64
(lp1048
S'is_jython'
p1049
asbag57
(g78
g59
NtRp1050
(dp1051
g62
(dp1052
g89
g90
ssg71
g1041
sg64
(lp1053
S':'
asbag57
(g78
g59
NtRp1054
(dp1055
g62
(dp1056
sg71
g1041
sg64
(lp1057
g57
(g58
g59
NtRp1058
(dp1059
g62
(dp1060
g70
I4
ssg71
g1054
sg64
(lp1061
g100
asbasbasbag57
(g73
g59
NtRp1062
(dp1063
g62
(dp1064
sg71
g661
sg64
(lp1065
g57
(g78
g59
NtRp1066
(dp1067
g62
(dp1068
g82
g83
ssg71
g1062
sg64
(lp1069
S'is_pypy'
p1070
asbag57
(g78
g59
NtRp1071
(dp1072
g62
(dp1073
g89
g90
ssg71
g1062
sg64
(lp1074
S':'
asbag57
(g78
g59
NtRp1075
(dp1076
g62
(dp1077
sg71
g1062
sg64
(lp1078
g57
(g58
g59
NtRp1079
(dp1080
g62
(dp1081
g70
I4
ssg71
g1075
sg64
(lp1082
g100
asbasbasbag57
(g73
g59
NtRp1083
(dp1084
g62
(dp1085
sg71
g661
sg64
(lp1086
g57
(g78
g59
NtRp1087
(dp1088
g62
(dp1089
g82
g83
ssg71
g1083
sg64
(lp1090
S'local_hosts'
p1091
asbag57
(g78
g59
NtRp1092
(dp1093
g62
(dp1094
g89
g90
ssg71
g1083
sg64
(lp1095
S':'
asbag57
(g78
g59
NtRp1096
(dp1097
g62
(dp1098
sg71
g1083
sg64
(lp1099
g57
(g58
g59
NtRp1100
(dp1101
g62
(dp1102
g70
I4
ssg71
g1096
sg64
(lp1103
g57
(g66
g59
NtRp1104
(dp1105
g62
(dp1106
g70
I3
ssg71
Nsg64
(lp1107
g57
(g73
g59
NtRp1108
(dp1109
g62
(dp1110
sg71
g1104
sg64
(lp1111
g57
(g78
g59
NtRp1112
(dp1113
g62
(dp1114
sg71
g1108
sg64
(lp1115
g57
(g58
g59
NtRp1116
(dp1117
g62
(dp1118
g70
I3
ssg71
g1112
sg64
(lp1119
S'::1'
p1120
asbasbasbag57
(g73
g59
NtRp1121
(dp1122
g62
(dp1123
sg71
g1104
sg64
(lp1124
g57
(g78
g59
NtRp1125
(dp1126
g62
(dp1127
sg71
g1121
sg64
(lp1128
g57
(g58
g59
NtRp1129
(dp1130
g62
(dp1131
g70
I3
ssg71
g1125
sg64
(lp1132
S'madagascar'
p1133
asbasbasbag57
(g73
g59
NtRp1134
(dp1135
g62
(dp1136
sg71
g1104
sg64
(lp1137
g57
(g78
g59
NtRp1138
(dp1139
g62
(dp1140
sg71
g1134
sg64
(lp1141
g57
(g58
g59
NtRp1142
(dp1143
g62
(dp1144
g70
I3
ssg71
g1138
sg64
(lp1145
S'::ffff:127.0.0.1'
p1146
asbasbasbag57
(g73
g59
NtRp1147
(dp1148
g62
(dp1149
sg71
g1104
sg64
(lp1150
g57
(g78
g59
NtRp1151
(dp1152
g62
(dp1153
sg71
g1147
sg64
(lp1154
g57
(g58
g59
NtRp1155
(dp1156
g62
(dp1157
g70
I3
ssg71
g1151
sg64
(lp1158
S'127.0.0.1'
p1159
asbasbasbag57
(g73
g59
NtRp1160
(dp1161
g62
(dp1162
sg71
g1104
sg64
(lp1163
g57
(g78
g59
NtRp1164
(dp1165
g62
(dp1166
sg71
g1160
sg64
(lp1167
g57
(g58
g59
NtRp1168
(dp1169
g62
(dp1170
g70
I3
ssg71
g1164
sg64
(lp1171
S'172.30.6.210'
p1172
asbasbasbasbasbasbasbag57
(g73
g59
NtRp1173
(dp1174
g62
(dp1175
sg71
g661
sg64
(lp1176
g57
(g78
g59
NtRp1177
(dp1178
g62
(dp1179
g82
g83
ssg71
g1173
sg64
(lp1180
S'path_info'
p1181
asbag57
(g78
g59
NtRp1182
(dp1183
g62
(dp1184
g89
g90
ssg71
g1173
sg64
(lp1185
S':'
asbag57
(g78
g59
NtRp1186
(dp1187
g62
(dp1188
sg71
g1173
sg64
(lp1189
g57
(g58
g59
NtRp1190
(dp1191
g62
(dp1192
g70
I4
ssg71
g1186
sg64
(lp1193
S'/irecycle/default/home'
p1194
asbasbasbag57
(g73
g59
NtRp1195
(dp1196
g62
(dp1197
sg71
g661
sg64
(lp1198
g57
(g78
g59
NtRp1199
(dp1200
g62
(dp1201
g82
g83
ssg71
g1195
sg64
(lp1202
S'query_string'
p1203
asbag57
(g78
g59
NtRp1204
(dp1205
g62
(dp1206
g89
g90
ssg71
g1195
sg64
(lp1207
S':'
asbag57
(g78
g59
NtRp1208
(dp1209
g62
(dp1210
sg71
g1195
sg64
(lp1211
g57
(g58
g59
NtRp1212
(dp1213
g62
(dp1214
g70
I4
ssg71
g1208
sg64
(lp1215
S''
asbasbasbag57
(g73
g59
NtRp1216
(dp1217
g62
(dp1218
sg71
g661
sg64
(lp1219
g57
(g78
g59
NtRp1220
(dp1221
g62
(dp1222
g82
g83
ssg71
g1216
sg64
(lp1223
S'remote_addr'
p1224
asbag57
(g78
g59
NtRp1225
(dp1226
g62
(dp1227
g89
g90
ssg71
g1216
sg64
(lp1228
S':'
asbag57
(g78
g59
NtRp1229
(dp1230
g62
(dp1231
sg71
g1216
sg64
(lp1232
g57
(g58
g59
NtRp1233
(dp1234
g62
(dp1235
g70
I4
ssg71
g1229
sg64
(lp1236
g212
asbasbasbag57
(g73
g59
NtRp1237
(dp1238
g62
(dp1239
sg71
g661
sg64
(lp1240
g57
(g78
g59
NtRp1241
(dp1242
g62
(dp1243
g82
g83
ssg71
g1237
sg64
(lp1244
S'remote_port'
p1245
asbag57
(g78
g59
NtRp1246
(dp1247
g62
(dp1248
g89
g90
ssg71
g1237
sg64
(lp1249
S':'
asbag57
(g78
g59
NtRp1250
(dp1251
g62
(dp1252
sg71
g1237
sg64
(lp1253
g57
(g58
g59
NtRp1254
(dp1255
g62
(dp1256
g70
I4
ssg71
g1250
sg64
(lp1257
S'49275'
p1258
asbasbasbag57
(g73
g59
NtRp1259
(dp1260
g62
(dp1261
sg71
g661
sg64
(lp1262
g57
(g78
g59
NtRp1263
(dp1264
g62
(dp1265
g82
g83
ssg71
g1259
sg64
(lp1266
S'request_method'
p1267
asbag57
(g78
g59
NtRp1268
(dp1269
g62
(dp1270
g89
g90
ssg71
g1259
sg64
(lp1271
S':'
asbag57
(g78
g59
NtRp1272
(dp1273
g62
(dp1274
sg71
g1259
sg64
(lp1275
g57
(g58
g59
NtRp1276
(dp1277
g62
(dp1278
g70
I4
ssg71
g1272
sg64
(lp1279
S'GET'
p1280
asbasbasbag57
(g73
g59
NtRp1281
(dp1282
g62
(dp1283
sg71
g661
sg64
(lp1284
g57
(g78
g59
NtRp1285
(dp1286
g62
(dp1287
g82
g83
ssg71
g1281
sg64
(lp1288
S'request_uri'
p1289
asbag57
(g78
g59
NtRp1290
(dp1291
g62
(dp1292
g89
g90
ssg71
g1281
sg64
(lp1293
S':'
asbag57
(g78
g59
NtRp1294
(dp1295
g62
(dp1296
sg71
g1281
sg64
(lp1297
g57
(g58
g59
NtRp1298
(dp1299
g62
(dp1300
g70
I4
ssg71
g1294
sg64
(lp1301
g1194
asbasbasbag57
(g73
g59
NtRp1302
(dp1303
g62
(dp1304
sg71
g661
sg64
(lp1305
g57
(g78
g59
NtRp1306
(dp1307
g62
(dp1308
g82
g83
ssg71
g1302
sg64
(lp1309
S'script_name'
p1310
asbag57
(g78
g59
NtRp1311
(dp1312
g62
(dp1313
g89
g90
ssg71
g1302
sg64
(lp1314
S':'
asbag57
(g78
g59
NtRp1315
(dp1316
g62
(dp1317
sg71
g1302
sg64
(lp1318
g57
(g58
g59
NtRp1319
(dp1320
g62
(dp1321
g70
I4
ssg71
g1315
sg64
(lp1322
S''
asbasbasbag57
(g73
g59
NtRp1323
(dp1324
g62
(dp1325
sg71
g661
sg64
(lp1326
g57
(g78
g59
NtRp1327
(dp1328
g62
(dp1329
g82
g83
ssg71
g1323
sg64
(lp1330
S'server_name'
p1331
asbag57
(g78
g59
NtRp1332
(dp1333
g62
(dp1334
g89
g90
ssg71
g1323
sg64
(lp1335
S':'
asbag57
(g78
g59
NtRp1336
(dp1337
g62
(dp1338
sg71
g1323
sg64
(lp1339
g57
(g58
g59
NtRp1340
(dp1341
g62
(dp1342
g70
I4
ssg71
g1336
sg64
(lp1343
S'madagascar'
p1344
asbasbasbag57
(g73
g59
NtRp1345
(dp1346
g62
(dp1347
sg71
g661
sg64
(lp1348
g57
(g78
g59
NtRp1349
(dp1350
g62
(dp1351
g82
g83
ssg71
g1345
sg64
(lp1352
S'server_port'
p1353
asbag57
(g78
g59
NtRp1354
(dp1355
g62
(dp1356
g89
g90
ssg71
g1345
sg64
(lp1357
S':'
asbag57
(g78
g59
NtRp1358
(dp1359
g62
(dp1360
sg71
g1345
sg64
(lp1361
g57
(g58
g59
NtRp1362
(dp1363
g62
(dp1364
g70
I4
ssg71
g1358
sg64
(lp1365
S'8000'
p1366
asbasbasbag57
(g73
g59
NtRp1367
(dp1368
g62
(dp1369
sg71
g661
sg64
(lp1370
g57
(g78
g59
NtRp1371
(dp1372
g62
(dp1373
g82
g83
ssg71
g1367
sg64
(lp1374
S'server_protocol'
p1375
asbag57
(g78
g59
NtRp1376
(dp1377
g62
(dp1378
g89
g90
ssg71
g1367
sg64
(lp1379
S':'
asbag57
(g78
g59
NtRp1380
(dp1381
g62
(dp1382
sg71
g1367
sg64
(lp1383
g57
(g58
g59
NtRp1384
(dp1385
g62
(dp1386
g70
I4
ssg71
g1380
sg64
(lp1387
S'HTTP/1.1'
p1388
asbasbasbag57
(g73
g59
NtRp1389
(dp1390
g62
(dp1391
sg71
g661
sg64
(lp1392
g57
(g78
g59
NtRp1393
(dp1394
g62
(dp1395
g82
g83
ssg71
g1389
sg64
(lp1396
S'server_software'
p1397
asbag57
(g78
g59
NtRp1398
(dp1399
g62
(dp1400
g89
g90
ssg71
g1389
sg64
(lp1401
S':'
asbag57
(g78
g59
NtRp1402
(dp1403
g62
(dp1404
sg71
g1389
sg64
(lp1405
g57
(g58
g59
NtRp1406
(dp1407
g62
(dp1408
g70
I4
ssg71
g1402
sg64
(lp1409
S'Rocket 1.2.6'
p1410
asbasbasbag57
(g73
g59
NtRp1411
(dp1412
g62
(dp1413
sg71
g661
sg64
(lp1414
g57
(g78
g59
NtRp1415
(dp1416
g62
(dp1417
g82
g83
ssg71
g1411
sg64
(lp1418
S'web2py_path'
p1419
asbag57
(g78
g59
NtRp1420
(dp1421
g62
(dp1422
g89
g90
ssg71
g1411
sg64
(lp1423
S':'
asbag57
(g78
g59
NtRp1424
(dp1425
g62
(dp1426
sg71
g1411
sg64
(lp1427
g57
(g58
g59
NtRp1428
(dp1429
g62
(dp1430
g70
I4
ssg71
g1424
sg64
(lp1431
g708
asbasbasbag57
(g73
g59
NtRp1432
(dp1433
g62
(dp1434
sg71
g661
sg64
(lp1435
g57
(g78
g59
NtRp1436
(dp1437
g62
(dp1438
g82
g83
ssg71
g1432
sg64
(lp1439
S'web2py_version'
p1440
asbag57
(g78
g59
NtRp1441
(dp1442
g62
(dp1443
g89
g90
ssg71
g1432
sg64
(lp1444
S':'
asbag57
(g78
g59
NtRp1445
(dp1446
g62
(dp1447
sg71
g1432
sg64
(lp1448
g57
(g58
g59
NtRp1449
(dp1450
g62
(dp1451
g70
I4
ssg71
g1445
sg64
(lp1452
g57
(g66
g59
NtRp1453
(dp1454
g62
(dp1455
g70
I3
ssg71
Nsg64
(lp1456
g57
(g73
g59
NtRp1457
(dp1458
g62
(dp1459
sg71
g1453
sg64
(lp1460
g57
(g78
g59
NtRp1461
(dp1462
g62
(dp1463
sg71
g1457
sg64
(lp1464
g57
(g58
g59
NtRp1465
(dp1466
g62
(dp1467
g70
I3
ssg71
g1461
sg64
(lp1468
S'2'
asbasbasbag57
(g73
g59
NtRp1469
(dp1470
g62
(dp1471
sg71
g1453
sg64
(lp1472
g57
(g78
g59
NtRp1473
(dp1474
g62
(dp1475
sg71
g1469
sg64
(lp1476
g57
(g58
g59
NtRp1477
(dp1478
g62
(dp1479
g70
I3
ssg71
g1473
sg64
(lp1480
S'3'
asbasbasbag57
(g73
g59
NtRp1481
(dp1482
g62
(dp1483
sg71
g1453
sg64
(lp1484
g57
(g78
g59
NtRp1485
(dp1486
g62
(dp1487
sg71
g1481
sg64
(lp1488
g57
(g58
g59
NtRp1489
(dp1490
g62
(dp1491
g70
I3
ssg71
g1485
sg64
(lp1492
S'2'
asbasbasbag57
(g73
g59
NtRp1493
(dp1494
g62
(dp1495
sg71
g1453
sg64
(lp1496
g57
(g78
g59
NtRp1497
(dp1498
g62
(dp1499
sg71
g1493
sg64
(lp1500
g57
(g58
g59
NtRp1501
(dp1502
g62
(dp1503
g70
I3
ssg71
g1497
sg64
(lp1504
S'datetime.datetime(2012, 12, 17, 15, 3, 30)'
p1505
asbasbasbag57
(g73
g59
NtRp1506
(dp1507
g62
(dp1508
sg71
g1453
sg64
(lp1509
g57
(g78
g59
NtRp1510
(dp1511
g62
(dp1512
sg71
g1506
sg64
(lp1513
g57
(g58
g59
NtRp1514
(dp1515
g62
(dp1516
g70
I3
ssg71
g1510
sg64
(lp1517
S'stable'
p1518
asbasbasbasbasbasbasbag57
(g73
g59
NtRp1519
(dp1520
g62
(dp1521
sg71
g661
sg64
(lp1522
g57
(g78
g59
NtRp1523
(dp1524
g62
(dp1525
g82
g83
ssg71
g1519
sg64
(lp1526
S'wsgi_errors'
p1527
asbag57
(g78
g59
NtRp1528
(dp1529
g62
(dp1530
g89
g90
ssg71
g1519
sg64
(lp1531
S':'
asbag57
(g78
g59
NtRp1532
(dp1533
g62
(dp1534
sg71
g1519
sg64
(lp1535
g57
(g58
g59
NtRp1536
(dp1537
g62
(dp1538
g70
I4
ssg71
g1532
sg64
(lp1539
S"<open file '<stderr>', mode 'w' at 0x7f02ff32a270>"
p1540
asbasbasbag57
(g73
g59
NtRp1541
(dp1542
g62
(dp1543
sg71
g661
sg64
(lp1544
g57
(g78
g59
NtRp1545
(dp1546
g62
(dp1547
g82
g83
ssg71
g1541
sg64
(lp1548
S'wsgi_file_wrapper'
p1549
asbag57
(g78
g59
NtRp1550
(dp1551
g62
(dp1552
g89
g90
ssg71
g1541
sg64
(lp1553
S':'
asbag57
(g78
g59
NtRp1554
(dp1555
g62
(dp1556
sg71
g1541
sg64
(lp1557
g57
(g58
g59
NtRp1558
(dp1559
g62
(dp1560
g70
I4
ssg71
g1554
sg64
(lp1561
S'<class wsgiref.util.FileWrapper at 0x20347a0>'
p1562
asbasbasbag57
(g73
g59
NtRp1563
(dp1564
g62
(dp1565
sg71
g661
sg64
(lp1566
g57
(g78
g59
NtRp1567
(dp1568
g62
(dp1569
g82
g83
ssg71
g1563
sg64
(lp1570
S'wsgi_input'
p1571
asbag57
(g78
g59
NtRp1572
(dp1573
g62
(dp1574
g89
g90
ssg71
g1563
sg64
(lp1575
S':'
asbag57
(g78
g59
NtRp1576
(dp1577
g62
(dp1578
sg71
g1563
sg64
(lp1579
g57
(g58
g59
NtRp1580
(dp1581
g62
(dp1582
g70
I4
ssg71
g1576
sg64
(lp1583
S'<socket._fileobject object at 0x7f02f4865250>'
p1584
asbasbasbag57
(g73
g59
NtRp1585
(dp1586
g62
(dp1587
sg71
g661
sg64
(lp1588
g57
(g78
g59
NtRp1589
(dp1590
g62
(dp1591
g82
g83
ssg71
g1585
sg64
(lp1592
S'wsgi_multiprocess'
p1593
asbag57
(g78
g59
NtRp1594
(dp1595
g62
(dp1596
g89
g90
ssg71
g1585
sg64
(lp1597
S':'
asbag57
(g78
g59
NtRp1598
(dp1599
g62
(dp1600
sg71
g1585
sg64
(lp1601
g57
(g58
g59
NtRp1602
(dp1603
g62
(dp1604
g70
I4
ssg71
g1598
sg64
(lp1605
g100
asbasbasbag57
(g73
g59
NtRp1606
(dp1607
g62
(dp1608
sg71
g661
sg64
(lp1609
g57
(g78
g59
NtRp1610
(dp1611
g62
(dp1612
g82
g83
ssg71
g1606
sg64
(lp1613
S'wsgi_multithread'
p1614
asbag57
(g78
g59
NtRp1615
(dp1616
g62
(dp1617
g89
g90
ssg71
g1606
sg64
(lp1618
S':'
asbag57
(g78
g59
NtRp1619
(dp1620
g62
(dp1621
sg71
g1606
sg64
(lp1622
g57
(g58
g59
NtRp1623
(dp1624
g62
(dp1625
g70
I4
ssg71
g1619
sg64
(lp1626
S'True'
p1627
asbasbasbag57
(g73
g59
NtRp1628
(dp1629
g62
(dp1630
sg71
g661
sg64
(lp1631
g57
(g78
g59
NtRp1632
(dp1633
g62
(dp1634
g82
g83
ssg71
g1628
sg64
(lp1635
S'wsgi_run_once'
p1636
asbag57
(g78
g59
NtRp1637
(dp1638
g62
(dp1639
g89
g90
ssg71
g1628
sg64
(lp1640
S':'
asbag57
(g78
g59
NtRp1641
(dp1642
g62
(dp1643
sg71
g1628
sg64
(lp1644
g57
(g58
g59
NtRp1645
(dp1646
g62
(dp1647
g70
I4
ssg71
g1641
sg64
(lp1648
g100
asbasbasbag57
(g73
g59
NtRp1649
(dp1650
g62
(dp1651
sg71
g661
sg64
(lp1652
g57
(g78
g59
NtRp1653
(dp1654
g62
(dp1655
g82
g83
ssg71
g1649
sg64
(lp1656
S'wsgi_url_scheme'
p1657
asbag57
(g78
g59
NtRp1658
(dp1659
g62
(dp1660
g89
g90
ssg71
g1649
sg64
(lp1661
S':'
asbag57
(g78
g59
NtRp1662
(dp1663
g62
(dp1664
sg71
g1649
sg64
(lp1665
g57
(g58
g59
NtRp1666
(dp1667
g62
(dp1668
g70
I4
ssg71
g1662
sg64
(lp1669
S'http'
p1670
asbasbasbag57
(g73
g59
NtRp1671
(dp1672
g62
(dp1673
sg71
g661
sg64
(lp1674
g57
(g78
g59
NtRp1675
(dp1676
g62
(dp1677
g82
g83
ssg71
g1671
sg64
(lp1678
S'wsgi_version'
p1679
asbag57
(g78
g59
NtRp1680
(dp1681
g62
(dp1682
g89
g90
ssg71
g1671
sg64
(lp1683
S':'
asbag57
(g78
g59
NtRp1684
(dp1685
g62
(dp1686
sg71
g1671
sg64
(lp1687
g57
(g58
g59
NtRp1688
(dp1689
g62
(dp1690
g70
I4
ssg71
g1684
sg64
(lp1691
g57
(g66
g59
NtRp1692
(dp1693
g62
(dp1694
g70
I3
ssg71
Nsg64
(lp1695
g57
(g73
g59
NtRp1696
(dp1697
g62
(dp1698
sg71
g1692
sg64
(lp1699
g57
(g78
g59
NtRp1700
(dp1701
g62
(dp1702
sg71
g1696
sg64
(lp1703
g57
(g58
g59
NtRp1704
(dp1705
g62
(dp1706
g70
I3
ssg71
g1700
sg64
(lp1707
S'1'
asbasbasbag57
(g73
g59
NtRp1708
(dp1709
g62
(dp1710
sg71
g1692
sg64
(lp1711
g57
(g78
g59
NtRp1712
(dp1713
g62
(dp1714
sg71
g1708
sg64
(lp1715
g57
(g58
g59
NtRp1716
(dp1717
g62
(dp1718
g70
I3
ssg71
g1712
sg64
(lp1719
S'0'
asbasbasbasbasbasbasbasbasbasbasbag57
(g73
g59
NtRp1720
(dp1721
g62
(dp1722
sg71
g67
sg64
(lp1723
g57
(g78
g59
NtRp1724
(dp1725
g62
(dp1726
g82
g83
ssg71
g1720
sg64
(lp1727
S'extension'
p1728
asbag57
(g78
g59
NtRp1729
(dp1730
g62
(dp1731
g89
g90
ssg71
g1720
sg64
(lp1732
S':'
asbag57
(g78
g59
NtRp1733
(dp1734
g62
(dp1735
sg71
g1720
sg64
(lp1736
g57
(g58
g59
NtRp1737
(dp1738
g62
(dp1739
g70
I5
ssg71
g1733
sg64
(lp1740
S'html'
p1741
asbasbasbag57
(g73
g59
NtRp1742
(dp1743
g62
(dp1744
sg71
g67
sg64
(lp1745
g57
(g78
g59
NtRp1746
(dp1747
g62
(dp1748
g82
g83
ssg71
g1742
sg64
(lp1749
S'folder'
p1750
asbag57
(g78
g59
NtRp1751
(dp1752
g62
(dp1753
g89
g90
ssg71
g1742
sg64
(lp1754
S':'
asbag57
(g78
g59
NtRp1755
(dp1756
g62
(dp1757
sg71
g1742
sg64
(lp1758
g57
(g58
g59
NtRp1759
(dp1760
g62
(dp1761
g70
I5
ssg71
g1755
sg64
(lp1762
S'/home/diego/web2py/applications/irecycle/'
p1763
asbasbasbag57
(g73
g59
NtRp1764
(dp1765
g62
(dp1766
sg71
g67
sg64
(lp1767
g57
(g78
g59
NtRp1768
(dp1769
g62
(dp1770
g82
g83
ssg71
g1764
sg64
(lp1771
S'function'
p1772
asbag57
(g78
g59
NtRp1773
(dp1774
g62
(dp1775
g89
g90
ssg71
g1764
sg64
(lp1776
S':'
asbag57
(g78
g59
NtRp1777
(dp1778
g62
(dp1779
sg71
g1764
sg64
(lp1780
g57
(g58
g59
NtRp1781
(dp1782
g62
(dp1783
g70
I5
ssg71
g1777
sg64
(lp1784
S'home'
p1785
asbasbasbag57
(g73
g59
NtRp1786
(dp1787
g62
(dp1788
sg71
g67
sg64
(lp1789
g57
(g78
g59
NtRp1790
(dp1791
g62
(dp1792
g82
g83
ssg71
g1786
sg64
(lp1793
S'get_vars'
p1794
asbag57
(g78
g59
NtRp1795
(dp1796
g62
(dp1797
g89
g90
ssg71
g1786
sg64
(lp1798
S':'
asbag57
(g78
g59
NtRp1799
(dp1800
g62
(dp1801
sg71
g1786
sg64
(lp1802
g57
(g58
g59
NtRp1803
(dp1804
g62
(dp1805
g70
I5
ssg71
g1799
sg64
(lp1806
g57
(g66
g59
NtRp1807
(dp1808
g62
(dp1809
g70
I4
ssg71
Nsg64
(lp1810
sbasbasbasbag57
(g73
g59
NtRp1811
(dp1812
g62
(dp1813
sg71
g67
sg64
(lp1814
g57
(g78
g59
NtRp1815
(dp1816
g62
(dp1817
g82
g83
ssg71
g1811
sg64
(lp1818
S'global_settings'
p1819
asbag57
(g78
g59
NtRp1820
(dp1821
g62
(dp1822
g89
g90
ssg71
g1811
sg64
(lp1823
S':'
asbag57
(g78
g59
NtRp1824
(dp1825
g62
(dp1826
sg71
g1811
sg64
(lp1827
g57
(g58
g59
NtRp1828
(dp1829
g62
(dp1830
g70
I5
ssg71
g1824
sg64
(lp1831
g57
(g66
g59
NtRp1832
(dp1833
g62
(dp1834
g70
I4
ssg71
Nsg64
(lp1835
g57
(g73
g59
NtRp1836
(dp1837
g62
(dp1838
sg71
g1832
sg64
(lp1839
g57
(g78
g59
NtRp1840
(dp1841
g62
(dp1842
g82
g83
ssg71
g1836
sg64
(lp1843
g673
asbag57
(g78
g59
NtRp1844
(dp1845
g62
(dp1846
g89
g90
ssg71
g1836
sg64
(lp1847
S':'
asbag57
(g78
g59
NtRp1848
(dp1849
g62
(dp1850
sg71
g1836
sg64
(lp1851
g57
(g58
g59
NtRp1852
(dp1853
g62
(dp1854
g70
I4
ssg71
g1848
sg64
(lp1855
S"set(['/home/diego/web2py/applications/irecycle/', '/home/diego/web2py/applications/admin/'])"
p1856
asbasbasbag57
(g73
g59
NtRp1857
(dp1858
g62
(dp1859
sg71
g1832
sg64
(lp1860
g57
(g78
g59
NtRp1861
(dp1862
g62
(dp1863
g82
g83
ssg71
g1857
sg64
(lp1864
g695
asbag57
(g78
g59
NtRp1865
(dp1866
g62
(dp1867
g89
g90
ssg71
g1857
sg64
(lp1868
S':'
asbag57
(g78
g59
NtRp1869
(dp1870
g62
(dp1871
sg71
g1857
sg64
(lp1872
g57
(g58
g59
NtRp1873
(dp1874
g62
(dp1875
g70
I4
ssg71
g1869
sg64
(lp1876
g708
asbasbasbag57
(g73
g59
NtRp1877
(dp1878
g62
(dp1879
sg71
g1832
sg64
(lp1880
g57
(g78
g59
NtRp1881
(dp1882
g62
(dp1883
g82
g83
ssg71
g1877
sg64
(lp1884
g717
asbag57
(g78
g59
NtRp1885
(dp1886
g62
(dp1887
g89
g90
ssg71
g1877
sg64
(lp1888
S':'
asbag57
(g78
g59
NtRp1889
(dp1890
g62
(dp1891
sg71
g1877
sg64
(lp1892
g57
(g58
g59
NtRp1893
(dp1894
g62
(dp1895
g70
I4
ssg71
g1889
sg64
(lp1896
g57
(g66
g59
NtRp1897
(dp1898
g62
(dp1899
g70
I3
ssg71
Nsg64
(lp1900
sbasbasbasbag57
(g73
g59
NtRp1901
(dp1902
g62
(dp1903
sg71
g1832
sg64
(lp1904
g57
(g78
g59
NtRp1905
(dp1906
g62
(dp1907
g82
g83
ssg71
g1901
sg64
(lp1908
g742
asbag57
(g78
g59
NtRp1909
(dp1910
g62
(dp1911
g89
g90
ssg71
g1901
sg64
(lp1912
S':'
asbag57
(g78
g59
NtRp1913
(dp1914
g62
(dp1915
sg71
g1901
sg64
(lp1916
g57
(g58
g59
NtRp1917
(dp1918
g62
(dp1919
g70
I4
ssg71
g1913
sg64
(lp1920
S"<Values at 0x20d5488: {'verbose': False, 'ip': '127.0.0.1', 'with_scheduler': False, 'ips': ['172.30.6.210'], 'shutdown_timeout': 5, 'taskbar': False, 'port': 8000, 'maxthreads': None, 'softcron': False, 'server_name': 'madagascar', 'bpython': False, 'nogui': False, 'pid_filename': 'httpserver.pid', 'extcron': False, 'runcron': False, 'run_system_tests': False, 'test': None, 'folder': '/home/diego/web2py', 'config': '', 'minthreads': None, 'winservice': '', 'shell': None, 'run': '', 'log_filename': 'httpserver.log', 'debuglevel': 30, 'args': [''], 'socket_timeout': 5, 'ssl_ca_certificate': None, 'scheduler': None, 'profiler_filename': None, 'ssl_private_key': '', 'scheduler_groups': None, 'password': '1234', 'request_queue_size': 5, 'ssl_certificate': '', 'cronjob': False, 'numthreads': None, 'quiet': False, 'interfaces': None, 'import_models': False, 'timeout': 10, 'plain': False, 'nobanner': False}>"
p1921
asbasbasbag57
(g73
g59
NtRp1922
(dp1923
g62
(dp1924
sg71
g1832
sg64
(lp1925
g57
(g78
g59
NtRp1926
(dp1927
g62
(dp1928
g82
g83
ssg71
g1922
sg64
(lp1929
g764
asbag57
(g78
g59
NtRp1930
(dp1931
g62
(dp1932
g89
g90
ssg71
g1922
sg64
(lp1933
S':'
asbag57
(g78
g59
NtRp1934
(dp1935
g62
(dp1936
sg71
g1922
sg64
(lp1937
g57
(g58
g59
NtRp1938
(dp1939
g62
(dp1940
g70
I4
ssg71
g1934
sg64
(lp1941
S'set([])'
p1942
asbasbasbag57
(g73
g59
NtRp1943
(dp1944
g62
(dp1945
sg71
g1832
sg64
(lp1946
g57
(g78
g59
NtRp1947
(dp1948
g62
(dp1949
g82
g83
ssg71
g1943
sg64
(lp1950
g786
asbag57
(g78
g59
NtRp1951
(dp1952
g62
(dp1953
g89
g90
ssg71
g1943
sg64
(lp1954
S':'
asbag57
(g78
g59
NtRp1955
(dp1956
g62
(dp1957
sg71
g1943
sg64
(lp1958
g57
(g58
g59
NtRp1959
(dp1960
g62
(dp1961
g70
I4
ssg71
g1955
sg64
(lp1962
g100
asbasbasbag57
(g73
g59
NtRp1963
(dp1964
g62
(dp1965
sg71
g1832
sg64
(lp1966
g57
(g78
g59
NtRp1967
(dp1968
g62
(dp1969
g82
g83
ssg71
g1963
sg64
(lp1970
g807
asbag57
(g78
g59
NtRp1971
(dp1972
g62
(dp1973
g89
g90
ssg71
g1963
sg64
(lp1974
S':'
asbag57
(g78
g59
NtRp1975
(dp1976
g62
(dp1977
sg71
g1963
sg64
(lp1978
g57
(g58
g59
NtRp1979
(dp1980
g62
(dp1981
g70
I4
ssg71
g1975
sg64
(lp1982
g820
asbasbasbag57
(g73
g59
NtRp1983
(dp1984
g62
(dp1985
sg71
g1832
sg64
(lp1986
g57
(g78
g59
NtRp1987
(dp1988
g62
(dp1989
g82
g83
ssg71
g1983
sg64
(lp1990
g1049
asbag57
(g78
g59
NtRp1991
(dp1992
g62
(dp1993
g89
g90
ssg71
g1983
sg64
(lp1994
S':'
asbag57
(g78
g59
NtRp1995
(dp1996
g62
(dp1997
sg71
g1983
sg64
(lp1998
g57
(g58
g59
NtRp1999
(dp2000
g62
(dp2001
g70
I4
ssg71
g1995
sg64
(lp2002
g100
asbasbasbag57
(g73
g59
NtRp2003
(dp2004
g62
(dp2005
sg71
g1832
sg64
(lp2006
g57
(g78
g59
NtRp2007
(dp2008
g62
(dp2009
g82
g83
ssg71
g2003
sg64
(lp2010
g1070
asbag57
(g78
g59
NtRp2011
(dp2012
g62
(dp2013
g89
g90
ssg71
g2003
sg64
(lp2014
S':'
asbag57
(g78
g59
NtRp2015
(dp2016
g62
(dp2017
sg71
g2003
sg64
(lp2018
g57
(g58
g59
NtRp2019
(dp2020
g62
(dp2021
g70
I4
ssg71
g2015
sg64
(lp2022
g100
asbasbasbag57
(g73
g59
NtRp2023
(dp2024
g62
(dp2025
sg71
g1832
sg64
(lp2026
g57
(g78
g59
NtRp2027
(dp2028
g62
(dp2029
g82
g83
ssg71
g2023
sg64
(lp2030
g1091
asbag57
(g78
g59
NtRp2031
(dp2032
g62
(dp2033
g89
g90
ssg71
g2023
sg64
(lp2034
S':'
asbag57
(g78
g59
NtRp2035
(dp2036
g62
(dp2037
sg71
g2023
sg64
(lp2038
g57
(g58
g59
NtRp2039
(dp2040
g62
(dp2041
g70
I4
ssg71
g2035
sg64
(lp2042
g57
(g66
g59
NtRp2043
(dp2044
g62
(dp2045
g70
I3
ssg71
Nsg64
(lp2046
g57
(g73
g59
NtRp2047
(dp2048
g62
(dp2049
sg71
g2043
sg64
(lp2050
g57
(g78
g59
NtRp2051
(dp2052
g62
(dp2053
sg71
g2047
sg64
(lp2054
g57
(g58
g59
NtRp2055
(dp2056
g62
(dp2057
g70
I3
ssg71
g2051
sg64
(lp2058
g1120
asbasbasbag57
(g73
g59
NtRp2059
(dp2060
g62
(dp2061
sg71
g2043
sg64
(lp2062
g57
(g78
g59
NtRp2063
(dp2064
g62
(dp2065
sg71
g2059
sg64
(lp2066
g57
(g58
g59
NtRp2067
(dp2068
g62
(dp2069
g70
I3
ssg71
g2063
sg64
(lp2070
g1133
asbasbasbag57
(g73
g59
NtRp2071
(dp2072
g62
(dp2073
sg71
g2043
sg64
(lp2074
g57
(g78
g59
NtRp2075
(dp2076
g62
(dp2077
sg71
g2071
sg64
(lp2078
g57
(g58
g59
NtRp2079
(dp2080
g62
(dp2081
g70
I3
ssg71
g2075
sg64
(lp2082
g1146
asbasbasbag57
(g73
g59
NtRp2083
(dp2084
g62
(dp2085
sg71
g2043
sg64
(lp2086
g57
(g78
g59
NtRp2087
(dp2088
g62
(dp2089
sg71
g2083
sg64
(lp2090
g57
(g58
g59
NtRp2091
(dp2092
g62
(dp2093
g70
I3
ssg71
g2087
sg64
(lp2094
g1159
asbasbasbag57
(g73
g59
NtRp2095
(dp2096
g62
(dp2097
sg71
g2043
sg64
(lp2098
g57
(g78
g59
NtRp2099
(dp2100
g62
(dp2101
sg71
g2095
sg64
(lp2102
g57
(g58
g59
NtRp2103
(dp2104
g62
(dp2105
g70
I3
ssg71
g2099
sg64
(lp2106
g1172
asbasbasbasbasbasbasbag57
(g73
g59
NtRp2107
(dp2108
g62
(dp2109
sg71
g1832
sg64
(lp2110
g57
(g78
g59
NtRp2111
(dp2112
g62
(dp2113
g82
g83
ssg71
g2107
sg64
(lp2114
g1440
asbag57
(g78
g59
NtRp2115
(dp2116
g62
(dp2117
g89
g90
ssg71
g2107
sg64
(lp2118
S':'
asbag57
(g78
g59
NtRp2119
(dp2120
g62
(dp2121
sg71
g2107
sg64
(lp2122
g57
(g58
g59
NtRp2123
(dp2124
g62
(dp2125
g70
I4
ssg71
g2119
sg64
(lp2126
g57
(g66
g59
NtRp2127
(dp2128
g62
(dp2129
g70
I3
ssg71
Nsg64
(lp2130
g57
(g73
g59
NtRp2131
(dp2132
g62
(dp2133
sg71
g2127
sg64
(lp2134
g57
(g78
g59
NtRp2135
(dp2136
g62
(dp2137
sg71
g2131
sg64
(lp2138
g57
(g58
g59
NtRp2139
(dp2140
g62
(dp2141
g70
I3
ssg71
g2135
sg64
(lp2142
S'2'
asbasbasbag57
(g73
g59
NtRp2143
(dp2144
g62
(dp2145
sg71
g2127
sg64
(lp2146
g57
(g78
g59
NtRp2147
(dp2148
g62
(dp2149
sg71
g2143
sg64
(lp2150
g57
(g58
g59
NtRp2151
(dp2152
g62
(dp2153
g70
I3
ssg71
g2147
sg64
(lp2154
S'3'
asbasbasbag57
(g73
g59
NtRp2155
(dp2156
g62
(dp2157
sg71
g2127
sg64
(lp2158
g57
(g78
g59
NtRp2159
(dp2160
g62
(dp2161
sg71
g2155
sg64
(lp2162
g57
(g58
g59
NtRp2163
(dp2164
g62
(dp2165
g70
I3
ssg71
g2159
sg64
(lp2166
S'2'
asbasbasbag57
(g73
g59
NtRp2167
(dp2168
g62
(dp2169
sg71
g2127
sg64
(lp2170
g57
(g78
g59
NtRp2171
(dp2172
g62
(dp2173
sg71
g2167
sg64
(lp2174
g57
(g58
g59
NtRp2175
(dp2176
g62
(dp2177
g70
I3
ssg71
g2171
sg64
(lp2178
S'datetime.datetime(2012, 12, 17, 15, 3, 30)'
p2179
asbasbasbag57
(g73
g59
NtRp2180
(dp2181
g62
(dp2182
sg71
g2127
sg64
(lp2183
g57
(g78
g59
NtRp2184
(dp2185
g62
(dp2186
sg71
g2180
sg64
(lp2187
g57
(g58
g59
NtRp2188
(dp2189
g62
(dp2190
g70
I3
ssg71
g2184
sg64
(lp2191
g1518
asbasbasbasbasbasbasbasbasbasbasbag57
(g73
g59
NtRp2192
(dp2193
g62
(dp2194
sg71
g67
sg64
(lp2195
g57
(g78
g59
NtRp2196
(dp2197
g62
(dp2198
g82
g83
ssg71
g2192
sg64
(lp2199
S'is_https'
p2200
asbag57
(g78
g59
NtRp2201
(dp2202
g62
(dp2203
g89
g90
ssg71
g2192
sg64
(lp2204
S':'
asbag57
(g78
g59
NtRp2205
(dp2206
g62
(dp2207
sg71
g2192
sg64
(lp2208
g57
(g58
g59
NtRp2209
(dp2210
g62
(dp2211
g70
I5
ssg71
g2205
sg64
(lp2212
g100
asbasbasbag57
(g73
g59
NtRp2213
(dp2214
g62
(dp2215
sg71
g67
sg64
(lp2216
g57
(g78
g59
NtRp2217
(dp2218
g62
(dp2219
g82
g83
ssg71
g2213
sg64
(lp2220
S'is_local'
p2221
asbag57
(g78
g59
NtRp2222
(dp2223
g62
(dp2224
g89
g90
ssg71
g2213
sg64
(lp2225
S':'
asbag57
(g78
g59
NtRp2226
(dp2227
g62
(dp2228
sg71
g2213
sg64
(lp2229
g57
(g58
g59
NtRp2230
(dp2231
g62
(dp2232
g70
I5
ssg71
g2226
sg64
(lp2233
g1627
asbasbasbag57
(g73
g59
NtRp2234
(dp2235
g62
(dp2236
sg71
g67
sg64
(lp2237
g57
(g78
g59
NtRp2238
(dp2239
g62
(dp2240
g82
g83
ssg71
g2234
sg64
(lp2241
S'is_restful'
p2242
asbag57
(g78
g59
NtRp2243
(dp2244
g62
(dp2245
g89
g90
ssg71
g2234
sg64
(lp2246
S':'
asbag57
(g78
g59
NtRp2247
(dp2248
g62
(dp2249
sg71
g2234
sg64
(lp2250
g57
(g58
g59
NtRp2251
(dp2252
g62
(dp2253
g70
I5
ssg71
g2247
sg64
(lp2254
g100
asbasbasbag57
(g73
g59
NtRp2255
(dp2256
g62
(dp2257
sg71
g67
sg64
(lp2258
g57
(g78
g59
NtRp2259
(dp2260
g62
(dp2261
g82
g83
ssg71
g2255
sg64
(lp2262
S'now'
p2263
asbag57
(g78
g59
NtRp2264
(dp2265
g62
(dp2266
g89
g90
ssg71
g2255
sg64
(lp2267
S':'
asbag57
(g78
g59
NtRp2268
(dp2269
g62
(dp2270
sg71
g2255
sg64
(lp2271
g57
(g58
g59
NtRp2272
(dp2273
g62
(dp2274
g70
I5
ssg71
g2268
sg64
(lp2275
S'datetime.datetime(2013, 1, 30, 17, 26, 17, 220486)'
p2276
asbasbasbag57
(g73
g59
NtRp2277
(dp2278
g62
(dp2279
sg71
g67
sg64
(lp2280
g57
(g78
g59
NtRp2281
(dp2282
g62
(dp2283
g82
g83
ssg71
g2277
sg64
(lp2284
S'post_vars'
p2285
asbag57
(g78
g59
NtRp2286
(dp2287
g62
(dp2288
g89
g90
ssg71
g2277
sg64
(lp2289
S':'
asbag57
(g78
g59
NtRp2290
(dp2291
g62
(dp2292
sg71
g2277
sg64
(lp2293
g57
(g58
g59
NtRp2294
(dp2295
g62
(dp2296
g70
I5
ssg71
g2290
sg64
(lp2297
g57
(g66
g59
NtRp2298
(dp2299
g62
(dp2300
g70
I4
ssg71
Nsg64
(lp2301
sbasbasbasbag57
(g73
g59
NtRp2302
(dp2303
g62
(dp2304
sg71
g67
sg64
(lp2305
g57
(g78
g59
NtRp2306
(dp2307
g62
(dp2308
g82
g83
ssg71
g2302
sg64
(lp2309
S'raw_args'
p2310
asbag57
(g78
g59
NtRp2311
(dp2312
g62
(dp2313
g89
g90
ssg71
g2302
sg64
(lp2314
S':'
asbag57
(g78
g59
NtRp2315
(dp2316
g62
(dp2317
sg71
g2302
sg64
(lp2318
g57
(g58
g59
NtRp2319
(dp2320
g62
(dp2321
g70
I5
ssg71
g2315
sg64
(lp2322
S''
asbasbasbag57
(g73
g59
NtRp2323
(dp2324
g62
(dp2325
sg71
g67
sg64
(lp2326
g57
(g78
g59
NtRp2327
(dp2328
g62
(dp2329
g82
g83
ssg71
g2323
sg64
(lp2330
S'raw_extension'
p2331
asbag57
(g78
g59
NtRp2332
(dp2333
g62
(dp2334
g89
g90
ssg71
g2323
sg64
(lp2335
S':'
asbag57
(g78
g59
NtRp2336
(dp2337
g62
(dp2338
sg71
g2323
sg64
(lp2339
g57
(g58
g59
NtRp2340
(dp2341
g62
(dp2342
g70
I5
ssg71
g2336
sg64
(lp2343
S'None'
p2344
asbasbasbag57
(g73
g59
NtRp2345
(dp2346
g62
(dp2347
sg71
g67
sg64
(lp2348
g57
(g78
g59
NtRp2349
(dp2350
g62
(dp2351
g82
g83
ssg71
g2345
sg64
(lp2352
S'url'
p2353
asbag57
(g78
g59
NtRp2354
(dp2355
g62
(dp2356
g89
g90
ssg71
g2345
sg64
(lp2357
S':'
asbag57
(g78
g59
NtRp2358
(dp2359
g62
(dp2360
sg71
g2345
sg64
(lp2361
g57
(g58
g59
NtRp2362
(dp2363
g62
(dp2364
g70
I5
ssg71
g2358
sg64
(lp2365
g1194
asbasbasbag57
(g73
g59
NtRp2366
(dp2367
g62
(dp2368
sg71
g67
sg64
(lp2369
g57
(g78
g59
NtRp2370
(dp2371
g62
(dp2372
g82
g83
ssg71
g2366
sg64
(lp2373
S'utcnow'
p2374
asbag57
(g78
g59
NtRp2375
(dp2376
g62
(dp2377
g89
g90
ssg71
g2366
sg64
(lp2378
S':'
asbag57
(g78
g59
NtRp2379
(dp2380
g62
(dp2381
sg71
g2366
sg64
(lp2382
g57
(g58
g59
NtRp2383
(dp2384
g62
(dp2385
g70
I5
ssg71
g2379
sg64
(lp2386
S'datetime.datetime(2013, 1, 30, 19, 26, 17, 220502)'
p2387
asbasbasbag57
(g73
g59
NtRp2388
(dp2389
g62
(dp2390
sg71
g67
sg64
(lp2391
g57
(g78
g59
NtRp2392
(dp2393
g62
(dp2394
g82
g83
ssg71
g2388
sg64
(lp2395
S'uuid'
p2396
asbag57
(g78
g59
NtRp2397
(dp2398
g62
(dp2399
g89
g90
ssg71
g2388
sg64
(lp2400
S':'
asbag57
(g78
g59
NtRp2401
(dp2402
g62
(dp2403
sg71
g2388
sg64
(lp2404
g57
(g58
g59
NtRp2405
(dp2406
g62
(dp2407
g70
I5
ssg71
g2401
sg64
(lp2408
S'irecycle/127.0.0.1.2013-01-30.17-26-17.5890e7c1-13e7-4dd2-856e-2b3900baa821'
p2409
asbasbasbag57
(g73
g59
NtRp2410
(dp2411
g62
(dp2412
sg71
g67
sg64
(lp2413
g57
(g78
g59
NtRp2414
(dp2415
g62
(dp2416
g82
g83
ssg71
g2410
sg64
(lp2417
S'vars'
p2418
asbag57
(g78
g59
NtRp2419
(dp2420
g62
(dp2421
g89
g90
ssg71
g2410
sg64
(lp2422
S':'
asbag57
(g78
g59
NtRp2423
(dp2424
g62
(dp2425
sg71
g2410
sg64
(lp2426
g57
(g58
g59
NtRp2427
(dp2428
g62
(dp2429
g70
I5
ssg71
g2423
sg64
(lp2430
g57
(g66
g59
NtRp2431
(dp2432
g62
(dp2433
g70
I4
ssg71
Nsg64
(lp2434
sbasbasbasbag57
(g73
g59
NtRp2435
(dp2436
g62
(dp2437
sg71
g67
sg64
(lp2438
g57
(g78
g59
NtRp2439
(dp2440
g62
(dp2441
g82
g83
ssg71
g2435
sg64
(lp2442
S'wsgi'
p2443
asbag57
(g78
g59
NtRp2444
(dp2445
g62
(dp2446
g89
g90
ssg71
g2435
sg64
(lp2447
S':'
asbag57
(g78
g59
NtRp2448
(dp2449
g62
(dp2450
sg71
g2435
sg64
(lp2451
g57
(g58
g59
NtRp2452
(dp2453
g62
(dp2454
g70
I5
ssg71
g2448
sg64
(lp2455
g57
(g66
g59
NtRp2456
(dp2457
g62
(dp2458
g70
I4
ssg71
Nsg64
(lp2459
g57
(g73
g59
NtRp2460
(dp2461
g62
(dp2462
sg71
g2456
sg64
(lp2463
g57
(g78
g59
NtRp2464
(dp2465
g62
(dp2466
g82
g83
ssg71
g2460
sg64
(lp2467
S'environ'
p2468
asbag57
(g78
g59
NtRp2469
(dp2470
g62
(dp2471
g89
g90
ssg71
g2460
sg64
(lp2472
S':'
asbag57
(g78
g59
NtRp2473
(dp2474
g62
(dp2475
sg71
g2460
sg64
(lp2476
g57
(g58
g59
NtRp2477
(dp2478
g62
(dp2479
g70
I4
ssg71
g2473
sg64
(lp2480
g57
(g66
g59
NtRp2481
(dp2482
g62
(dp2483
g70
I3
ssg71
Nsg64
(lp2484
g57
(g73
g59
NtRp2485
(dp2486
g62
(dp2487
sg71
g2481
sg64
(lp2488
g57
(g78
g59
NtRp2489
(dp2490
g62
(dp2491
g82
g83
ssg71
g2485
sg64
(lp2492
S'HTTP_ACCEPT'
p2493
asbag57
(g78
g59
NtRp2494
(dp2495
g62
(dp2496
g89
g90
ssg71
g2485
sg64
(lp2497
S':'
asbag57
(g78
g59
NtRp2498
(dp2499
g62
(dp2500
sg71
g2485
sg64
(lp2501
g57
(g58
g59
NtRp2502
(dp2503
g62
(dp2504
g70
I3
ssg71
g2498
sg64
(lp2505
g842
asbasbasbag57
(g73
g59
NtRp2506
(dp2507
g62
(dp2508
sg71
g2481
sg64
(lp2509
g57
(g78
g59
NtRp2510
(dp2511
g62
(dp2512
g82
g83
ssg71
g2506
sg64
(lp2513
S'HTTP_ACCEPT_CHARSET'
p2514
asbag57
(g78
g59
NtRp2515
(dp2516
g62
(dp2517
g89
g90
ssg71
g2506
sg64
(lp2518
S':'
asbag57
(g78
g59
NtRp2519
(dp2520
g62
(dp2521
sg71
g2506
sg64
(lp2522
g57
(g58
g59
NtRp2523
(dp2524
g62
(dp2525
g70
I3
ssg71
g2519
sg64
(lp2526
g864
asbasbasbag57
(g73
g59
NtRp2527
(dp2528
g62
(dp2529
sg71
g2481
sg64
(lp2530
g57
(g78
g59
NtRp2531
(dp2532
g62
(dp2533
g82
g83
ssg71
g2527
sg64
(lp2534
S'HTTP_ACCEPT_ENCODING'
p2535
asbag57
(g78
g59
NtRp2536
(dp2537
g62
(dp2538
g89
g90
ssg71
g2527
sg64
(lp2539
S':'
asbag57
(g78
g59
NtRp2540
(dp2541
g62
(dp2542
sg71
g2527
sg64
(lp2543
g57
(g58
g59
NtRp2544
(dp2545
g62
(dp2546
g70
I3
ssg71
g2540
sg64
(lp2547
g886
asbasbasbag57
(g73
g59
NtRp2548
(dp2549
g62
(dp2550
sg71
g2481
sg64
(lp2551
g57
(g78
g59
NtRp2552
(dp2553
g62
(dp2554
g82
g83
ssg71
g2548
sg64
(lp2555
S'HTTP_ACCEPT_LANGUAGE'
p2556
asbag57
(g78
g59
NtRp2557
(dp2558
g62
(dp2559
g89
g90
ssg71
g2548
sg64
(lp2560
S':'
asbag57
(g78
g59
NtRp2561
(dp2562
g62
(dp2563
sg71
g2548
sg64
(lp2564
g57
(g58
g59
NtRp2565
(dp2566
g62
(dp2567
g70
I3
ssg71
g2561
sg64
(lp2568
g908
asbasbasbag57
(g73
g59
NtRp2569
(dp2570
g62
(dp2571
sg71
g2481
sg64
(lp2572
g57
(g78
g59
NtRp2573
(dp2574
g62
(dp2575
g82
g83
ssg71
g2569
sg64
(lp2576
S'HTTP_CACHE_CONTROL'
p2577
asbag57
(g78
g59
NtRp2578
(dp2579
g62
(dp2580
g89
g90
ssg71
g2569
sg64
(lp2581
S':'
asbag57
(g78
g59
NtRp2582
(dp2583
g62
(dp2584
sg71
g2569
sg64
(lp2585
g57
(g58
g59
NtRp2586
(dp2587
g62
(dp2588
g70
I3
ssg71
g2582
sg64
(lp2589
g930
asbasbasbag57
(g73
g59
NtRp2590
(dp2591
g62
(dp2592
sg71
g2481
sg64
(lp2593
g57
(g78
g59
NtRp2594
(dp2595
g62
(dp2596
g82
g83
ssg71
g2590
sg64
(lp2597
S'HTTP_CONNECTION'
p2598
asbag57
(g78
g59
NtRp2599
(dp2600
g62
(dp2601
g89
g90
ssg71
g2590
sg64
(lp2602
S':'
asbag57
(g78
g59
NtRp2603
(dp2604
g62
(dp2605
sg71
g2590
sg64
(lp2606
g57
(g58
g59
NtRp2607
(dp2608
g62
(dp2609
g70
I3
ssg71
g2603
sg64
(lp2610
g952
asbasbasbag57
(g73
g59
NtRp2611
(dp2612
g62
(dp2613
sg71
g2481
sg64
(lp2614
g57
(g78
g59
NtRp2615
(dp2616
g62
(dp2617
g82
g83
ssg71
g2611
sg64
(lp2618
S'HTTP_COOKIE'
p2619
asbag57
(g78
g59
NtRp2620
(dp2621
g62
(dp2622
g89
g90
ssg71
g2611
sg64
(lp2623
S':'
asbag57
(g78
g59
NtRp2624
(dp2625
g62
(dp2626
sg71
g2611
sg64
(lp2627
g57
(g58
g59
NtRp2628
(dp2629
g62
(dp2630
g70
I3
ssg71
g2624
sg64
(lp2631
g974
asbasbasbag57
(g73
g59
NtRp2632
(dp2633
g62
(dp2634
sg71
g2481
sg64
(lp2635
g57
(g78
g59
NtRp2636
(dp2637
g62
(dp2638
g82
g83
ssg71
g2632
sg64
(lp2639
S'HTTP_HOST'
p2640
asbag57
(g78
g59
NtRp2641
(dp2642
g62
(dp2643
g89
g90
ssg71
g2632
sg64
(lp2644
S':'
asbag57
(g78
g59
NtRp2645
(dp2646
g62
(dp2647
sg71
g2632
sg64
(lp2648
g57
(g58
g59
NtRp2649
(dp2650
g62
(dp2651
g70
I3
ssg71
g2645
sg64
(lp2652
g996
asbasbasbag57
(g73
g59
NtRp2653
(dp2654
g62
(dp2655
sg71
g2481
sg64
(lp2656
g57
(g78
g59
NtRp2657
(dp2658
g62
(dp2659
g82
g83
ssg71
g2653
sg64
(lp2660
S'HTTP_REFERER'
p2661
asbag57
(g78
g59
NtRp2662
(dp2663
g62
(dp2664
g89
g90
ssg71
g2653
sg64
(lp2665
S':'
asbag57
(g78
g59
NtRp2666
(dp2667
g62
(dp2668
sg71
g2653
sg64
(lp2669
g57
(g58
g59
NtRp2670
(dp2671
g62
(dp2672
g70
I3
ssg71
g2666
sg64
(lp2673
g1018
asbasbasbag57
(g73
g59
NtRp2674
(dp2675
g62
(dp2676
sg71
g2481
sg64
(lp2677
g57
(g78
g59
NtRp2678
(dp2679
g62
(dp2680
g82
g83
ssg71
g2674
sg64
(lp2681
S'HTTP_USER_AGENT'
p2682
asbag57
(g78
g59
NtRp2683
(dp2684
g62
(dp2685
g89
g90
ssg71
g2674
sg64
(lp2686
S':'
asbag57
(g78
g59
NtRp2687
(dp2688
g62
(dp2689
sg71
g2674
sg64
(lp2690
g57
(g58
g59
NtRp2691
(dp2692
g62
(dp2693
g70
I3
ssg71
g2687
sg64
(lp2694
g1040
asbasbasbag57
(g73
g59
NtRp2695
(dp2696
g62
(dp2697
sg71
g2481
sg64
(lp2698
g57
(g78
g59
NtRp2699
(dp2700
g62
(dp2701
g82
g83
ssg71
g2695
sg64
(lp2702
S'PATH_INFO'
p2703
asbag57
(g78
g59
NtRp2704
(dp2705
g62
(dp2706
g89
g90
ssg71
g2695
sg64
(lp2707
S':'
asbag57
(g78
g59
NtRp2708
(dp2709
g62
(dp2710
sg71
g2695
sg64
(lp2711
g57
(g58
g59
NtRp2712
(dp2713
g62
(dp2714
g70
I3
ssg71
g2708
sg64
(lp2715
g1194
asbasbasbag57
(g73
g59
NtRp2716
(dp2717
g62
(dp2718
sg71
g2481
sg64
(lp2719
g57
(g78
g59
NtRp2720
(dp2721
g62
(dp2722
g82
g83
ssg71
g2716
sg64
(lp2723
S'QUERY_STRING'
p2724
asbag57
(g78
g59
NtRp2725
(dp2726
g62
(dp2727
g89
g90
ssg71
g2716
sg64
(lp2728
S':'
asbag57
(g78
g59
NtRp2729
(dp2730
g62
(dp2731
sg71
g2716
sg64
(lp2732
g57
(g58
g59
NtRp2733
(dp2734
g62
(dp2735
g70
I3
ssg71
g2729
sg64
(lp2736
S''
asbasbasbag57
(g73
g59
NtRp2737
(dp2738
g62
(dp2739
sg71
g2481
sg64
(lp2740
g57
(g78
g59
NtRp2741
(dp2742
g62
(dp2743
g82
g83
ssg71
g2737
sg64
(lp2744
S'REMOTE_ADDR'
p2745
asbag57
(g78
g59
NtRp2746
(dp2747
g62
(dp2748
g89
g90
ssg71
g2737
sg64
(lp2749
S':'
asbag57
(g78
g59
NtRp2750
(dp2751
g62
(dp2752
sg71
g2737
sg64
(lp2753
g57
(g58
g59
NtRp2754
(dp2755
g62
(dp2756
g70
I3
ssg71
g2750
sg64
(lp2757
g212
asbasbasbag57
(g73
g59
NtRp2758
(dp2759
g62
(dp2760
sg71
g2481
sg64
(lp2761
g57
(g78
g59
NtRp2762
(dp2763
g62
(dp2764
g82
g83
ssg71
g2758
sg64
(lp2765
S'REMOTE_PORT'
p2766
asbag57
(g78
g59
NtRp2767
(dp2768
g62
(dp2769
g89
g90
ssg71
g2758
sg64
(lp2770
S':'
asbag57
(g78
g59
NtRp2771
(dp2772
g62
(dp2773
sg71
g2758
sg64
(lp2774
g57
(g58
g59
NtRp2775
(dp2776
g62
(dp2777
g70
I3
ssg71
g2771
sg64
(lp2778
g1258
asbasbasbag57
(g73
g59
NtRp2779
(dp2780
g62
(dp2781
sg71
g2481
sg64
(lp2782
g57
(g78
g59
NtRp2783
(dp2784
g62
(dp2785
g82
g83
ssg71
g2779
sg64
(lp2786
S'REQUEST_METHOD'
p2787
asbag57
(g78
g59
NtRp2788
(dp2789
g62
(dp2790
g89
g90
ssg71
g2779
sg64
(lp2791
S':'
asbag57
(g78
g59
NtRp2792
(dp2793
g62
(dp2794
sg71
g2779
sg64
(lp2795
g57
(g58
g59
NtRp2796
(dp2797
g62
(dp2798
g70
I3
ssg71
g2792
sg64
(lp2799
g1280
asbasbasbag57
(g73
g59
NtRp2800
(dp2801
g62
(dp2802
sg71
g2481
sg64
(lp2803
g57
(g78
g59
NtRp2804
(dp2805
g62
(dp2806
g82
g83
ssg71
g2800
sg64
(lp2807
S'REQUEST_URI'
p2808
asbag57
(g78
g59
NtRp2809
(dp2810
g62
(dp2811
g89
g90
ssg71
g2800
sg64
(lp2812
S':'
asbag57
(g78
g59
NtRp2813
(dp2814
g62
(dp2815
sg71
g2800
sg64
(lp2816
g57
(g58
g59
NtRp2817
(dp2818
g62
(dp2819
g70
I3
ssg71
g2813
sg64
(lp2820
g1194
asbasbasbag57
(g73
g59
NtRp2821
(dp2822
g62
(dp2823
sg71
g2481
sg64
(lp2824
g57
(g78
g59
NtRp2825
(dp2826
g62
(dp2827
g82
g83
ssg71
g2821
sg64
(lp2828
S'SCRIPT_NAME'
p2829
asbag57
(g78
g59
NtRp2830
(dp2831
g62
(dp2832
g89
g90
ssg71
g2821
sg64
(lp2833
S':'
asbag57
(g78
g59
NtRp2834
(dp2835
g62
(dp2836
sg71
g2821
sg64
(lp2837
g57
(g58
g59
NtRp2838
(dp2839
g62
(dp2840
g70
I3
ssg71
g2834
sg64
(lp2841
S''
asbasbasbag57
(g73
g59
NtRp2842
(dp2843
g62
(dp2844
sg71
g2481
sg64
(lp2845
g57
(g78
g59
NtRp2846
(dp2847
g62
(dp2848
g82
g83
ssg71
g2842
sg64
(lp2849
S'SERVER_NAME'
p2850
asbag57
(g78
g59
NtRp2851
(dp2852
g62
(dp2853
g89
g90
ssg71
g2842
sg64
(lp2854
S':'
asbag57
(g78
g59
NtRp2855
(dp2856
g62
(dp2857
sg71
g2842
sg64
(lp2858
g57
(g58
g59
NtRp2859
(dp2860
g62
(dp2861
g70
I3
ssg71
g2855
sg64
(lp2862
g1344
asbasbasbag57
(g73
g59
NtRp2863
(dp2864
g62
(dp2865
sg71
g2481
sg64
(lp2866
g57
(g78
g59
NtRp2867
(dp2868
g62
(dp2869
g82
g83
ssg71
g2863
sg64
(lp2870
S'SERVER_PORT'
p2871
asbag57
(g78
g59
NtRp2872
(dp2873
g62
(dp2874
g89
g90
ssg71
g2863
sg64
(lp2875
S':'
asbag57
(g78
g59
NtRp2876
(dp2877
g62
(dp2878
sg71
g2863
sg64
(lp2879
g57
(g58
g59
NtRp2880
(dp2881
g62
(dp2882
g70
I3
ssg71
g2876
sg64
(lp2883
g1366
asbasbasbag57
(g73
g59
NtRp2884
(dp2885
g62
(dp2886
sg71
g2481
sg64
(lp2887
g57
(g78
g59
NtRp2888
(dp2889
g62
(dp2890
g82
g83
ssg71
g2884
sg64
(lp2891
S'SERVER_PROTOCOL'
p2892
asbag57
(g78
g59
NtRp2893
(dp2894
g62
(dp2895
g89
g90
ssg71
g2884
sg64
(lp2896
S':'
asbag57
(g78
g59
NtRp2897
(dp2898
g62
(dp2899
sg71
g2884
sg64
(lp2900
g57
(g58
g59
NtRp2901
(dp2902
g62
(dp2903
g70
I3
ssg71
g2897
sg64
(lp2904
g1388
asbasbasbag57
(g73
g59
NtRp2905
(dp2906
g62
(dp2907
sg71
g2481
sg64
(lp2908
g57
(g78
g59
NtRp2909
(dp2910
g62
(dp2911
g82
g83
ssg71
g2905
sg64
(lp2912
S'SERVER_SOFTWARE'
p2913
asbag57
(g78
g59
NtRp2914
(dp2915
g62
(dp2916
g89
g90
ssg71
g2905
sg64
(lp2917
S':'
asbag57
(g78
g59
NtRp2918
(dp2919
g62
(dp2920
sg71
g2905
sg64
(lp2921
g57
(g58
g59
NtRp2922
(dp2923
g62
(dp2924
g70
I3
ssg71
g2918
sg64
(lp2925
g1410
asbasbasbag57
(g73
g59
NtRp2926
(dp2927
g62
(dp2928
sg71
g2481
sg64
(lp2929
g57
(g78
g59
NtRp2930
(dp2931
g62
(dp2932
g82
g83
ssg71
g2926
sg64
(lp2933
S'wsgi.errors'
p2934
asbag57
(g78
g59
NtRp2935
(dp2936
g62
(dp2937
g89
g90
ssg71
g2926
sg64
(lp2938
S':'
asbag57
(g78
g59
NtRp2939
(dp2940
g62
(dp2941
sg71
g2926
sg64
(lp2942
g57
(g58
g59
NtRp2943
(dp2944
g62
(dp2945
g70
I3
ssg71
g2939
sg64
(lp2946
S"<open file '<stderr>', mode 'w' at 0x7f02ff32a270>"
p2947
asbasbasbag57
(g73
g59
NtRp2948
(dp2949
g62
(dp2950
sg71
g2481
sg64
(lp2951
g57
(g78
g59
NtRp2952
(dp2953
g62
(dp2954
g82
g83
ssg71
g2948
sg64
(lp2955
S'wsgi.file_wrapper'
p2956
asbag57
(g78
g59
NtRp2957
(dp2958
g62
(dp2959
g89
g90
ssg71
g2948
sg64
(lp2960
S':'
asbag57
(g78
g59
NtRp2961
(dp2962
g62
(dp2963
sg71
g2948
sg64
(lp2964
g57
(g58
g59
NtRp2965
(dp2966
g62
(dp2967
g70
I3
ssg71
g2961
sg64
(lp2968
S'<class wsgiref.util.FileWrapper at 0x20347a0>'
p2969
asbasbasbag57
(g73
g59
NtRp2970
(dp2971
g62
(dp2972
sg71
g2481
sg64
(lp2973
g57
(g78
g59
NtRp2974
(dp2975
g62
(dp2976
g82
g83
ssg71
g2970
sg64
(lp2977
S'wsgi.input'
p2978
asbag57
(g78
g59
NtRp2979
(dp2980
g62
(dp2981
g89
g90
ssg71
g2970
sg64
(lp2982
S':'
asbag57
(g78
g59
NtRp2983
(dp2984
g62
(dp2985
sg71
g2970
sg64
(lp2986
g57
(g58
g59
NtRp2987
(dp2988
g62
(dp2989
g70
I3
ssg71
g2983
sg64
(lp2990
S'<cStringIO.StringO object at 0x7f02f4132ca8>'
p2991
asbasbasbag57
(g73
g59
NtRp2992
(dp2993
g62
(dp2994
sg71
g2481
sg64
(lp2995
g57
(g78
g59
NtRp2996
(dp2997
g62
(dp2998
g82
g83
ssg71
g2992
sg64
(lp2999
S'wsgi.multiprocess'
p3000
asbag57
(g78
g59
NtRp3001
(dp3002
g62
(dp3003
g89
g90
ssg71
g2992
sg64
(lp3004
S':'
asbag57
(g78
g59
NtRp3005
(dp3006
g62
(dp3007
sg71
g2992
sg64
(lp3008
g57
(g58
g59
NtRp3009
(dp3010
g62
(dp3011
g70
I3
ssg71
g3005
sg64
(lp3012
g100
asbasbasbag57
(g73
g59
NtRp3013
(dp3014
g62
(dp3015
sg71
g2481
sg64
(lp3016
g57
(g78
g59
NtRp3017
(dp3018
g62
(dp3019
g82
g83
ssg71
g3013
sg64
(lp3020
S'wsgi.multithread'
p3021
asbag57
(g78
g59
NtRp3022
(dp3023
g62
(dp3024
g89
g90
ssg71
g3013
sg64
(lp3025
S':'
asbag57
(g78
g59
NtRp3026
(dp3027
g62
(dp3028
sg71
g3013
sg64
(lp3029
g57
(g58
g59
NtRp3030
(dp3031
g62
(dp3032
g70
I3
ssg71
g3026
sg64
(lp3033
g1627
asbasbasbag57
(g73
g59
NtRp3034
(dp3035
g62
(dp3036
sg71
g2481
sg64
(lp3037
g57
(g78
g59
NtRp3038
(dp3039
g62
(dp3040
g82
g83
ssg71
g3034
sg64
(lp3041
S'wsgi.run_once'
p3042
asbag57
(g78
g59
NtRp3043
(dp3044
g62
(dp3045
g89
g90
ssg71
g3034
sg64
(lp3046
S':'
asbag57
(g78
g59
NtRp3047
(dp3048
g62
(dp3049
sg71
g3034
sg64
(lp3050
g57
(g58
g59
NtRp3051
(dp3052
g62
(dp3053
g70
I3
ssg71
g3047
sg64
(lp3054
g100
asbasbasbag57
(g73
g59
NtRp3055
(dp3056
g62
(dp3057
sg71
g2481
sg64
(lp3058
g57
(g78
g59
NtRp3059
(dp3060
g62
(dp3061
g82
g83
ssg71
g3055
sg64
(lp3062
S'wsgi.url_scheme'
p3063
asbag57
(g78
g59
NtRp3064
(dp3065
g62
(dp3066
g89
g90
ssg71
g3055
sg64
(lp3067
S':'
asbag57
(g78
g59
NtRp3068
(dp3069
g62
(dp3070
sg71
g3055
sg64
(lp3071
g57
(g58
g59
NtRp3072
(dp3073
g62
(dp3074
g70
I3
ssg71
g3068
sg64
(lp3075
g1670
asbasbasbag57
(g73
g59
NtRp3076
(dp3077
g62
(dp3078
sg71
g2481
sg64
(lp3079
g57
(g78
g59
NtRp3080
(dp3081
g62
(dp3082
g82
g83
ssg71
g3076
sg64
(lp3083
S'wsgi.version'
p3084
asbag57
(g78
g59
NtRp3085
(dp3086
g62
(dp3087
g89
g90
ssg71
g3076
sg64
(lp3088
S':'
asbag57
(g78
g59
NtRp3089
(dp3090
g62
(dp3091
sg71
g3076
sg64
(lp3092
g57
(g58
g59
NtRp3093
(dp3094
g62
(dp3095
g70
I3
ssg71
g3089
sg64
(lp3096
S'1'
asbasbasbasbasbasbasbasbasbasbasbasbasbsS'frames'
p3097
(lp3098
(dp3099
S'file'
p3100
S'/home/diego/web2py/gluon/restricted.py'
p3101
sS'dump'
p3102
(dp3103
S'environment'
p3104
S"{'A': <class 'gluon.html.A'>, 'Auth': <class 'gluon.tools.Auth'>, 'B': <class 'gluon.html.B'>, 'BEAUTIFY': <class 'gluon.html.BEAUTIFY'>, 'BODY': <class 'gluon.html.BODY'>, 'BR': <class 'gluon.html.BR'>, 'BUTTON': <class 'gluon.html.BUTTON'>, 'CAT': <class 'gluon.html.CAT'>, 'CENTER': <class 'gluon.html.CENTER'>, 'CLEANUP': <class 'gluon.validators.CLEANUP'>, ...}"
p3105
sS'ccode'
p3106
S'<code object <module> at 0x7f02f48167b0, file "/...cations/irecycle/controllers/default.py", line 1>'
p3107
ssS'lnum'
p3108
I212
sS'lines'
p3109
(dp3110
I207
S'    try:'
p3111
sI208
S'        if isinstance(code, types.CodeType):'
p3112
sI209
S'            ccode = code'
p3113
sI210
S'        else:'
p3114
sI211
S'            ccode = compile2(code, layer)'
p3115
sI212
S'        exec ccode in environment'
p3116
sI213
S'    except HTTP:'
p3117
sI214
S'        raise'
p3118
sI215
S'    except RestrictedError:'
p3119
sI216
S'        # do not encapsulate (obfuscate) the original RestrictedError'
p3120
ssS'call'
p3121
S"(code='from gluon.storage import Storage\\n\\ndef origin():...name_full)\\nresponse._vars=response._caller(home)\\n', environment={'A': <class 'gluon.html.A'>, 'Auth': <class 'gluon.tools.Auth'>, 'B': <class 'gluon.html.B'>, 'BEAUTIFY': <class 'gluon.html.BEAUTIFY'>, 'BODY': <class 'gluon.html.BODY'>, 'BR': <class 'gluon.html.BR'>, 'BUTTON': <class 'gluon.html.BUTTON'>, 'CAT': <class 'gluon.html.CAT'>, 'CENTER': <class 'gluon.html.CENTER'>, 'CLEANUP': <class 'gluon.validators.CLEANUP'>, ...}, layer='/home/diego/web2py/applications/irecycle/controllers/default.py')"
p3122
sS'func'
p3123
S'restricted'
p3124
sa(dp3125
g3100
S'/home/diego/web2py/applications/irecycle/controllers/default.py'
p3126
sg3102
(dp3127
sg3108
I138
sg3109
(dp3128
I128
S'\t\t# deny an existing friendship request'
p3129
sI129
S'\t\tdb(Link.target==me)(Link.fonte==a1).delete()'
p3130
sI130
S"\telif a0 == 'remove':"
p3131
sI131
S'\t\t# delete a previous friendship request'
p3132
sI132
S'\t\tdb(Link.fonte==me)(Link.target==a1).delete()'
p3133
sI133
S''
sI134
S''
sI135
S'def user_pos_login():'
p3134
sI136
S'\tname_full = "%s %s" % db(auth_user.first_name, last_name)'
p3135
sI137
S'\treturn dict(name_full=name_full)'
p3136
ssg3121
S'()'
p3137
sg3123
S'<module>'
p3138
sa(dp3139
g3100
S'/home/diego/web2py/gluon/globals.py'
p3140
sg3102
(dp3141
S'self'
p3142
S'undefined'
p3143
sS'f'
S'<function home>'
p3144
ssg3108
I193
sg3109
(dp3145
I192
S'        self._vars = None'
p3146
sI193
S'        self._caller = lambda f: f()'
p3147
sI194
S'        self._view_environment = None'
p3148
sI195
S'        self._custom_commit = None'
p3149
sI196
S'        self._custom_rollback = None'
p3150
sI197
S''
sI188
S'        self.menu = []             # used by the default view layout'
p3151
sI189
S'        self.files = []            # used by web2py_ajax.html'
p3152
sI190
S'        self.generic_patterns = []  # patterns to allow generic views'
p3153
sI191
S"        self.delimiters = ('{{', '}}')"
p3154
ssg3121
S'(f=<function home>)'
p3155
sg3123
S'<lambda>'
p3156
sa(dp3157
g3100
S'/home/diego/web2py/gluon/tools.py'
p3158
sg3102
(dp3159
S'action'
p3160
S'<function home>'
p3161
sS'a'
S'()'
p3162
sS'b'
g45
ssg3108
I2929
sg3109
(dp3163
I2924
S'                    flag = condition'
p3164
sI2925
S'                if not flag:'
p3165
sI2926
S'                    current.session.flash = self.messages.access_denied'
p3166
sI2927
S'                    return call_or_redirect('
p3167
sI2928
S'                        self.settings.on_failed_authorization)'
p3168
sI2929
S'                return action(*a, **b)'
p3169
sI2930
S'            f.__doc__ = action.__doc__'
p3170
sI2931
S'            f.__name__ = action.__name__'
p3171
sI2932
S'            f.__dict__.update(action.__dict__)'
p3172
sI2933
S'            return f'
p3173
ssg3121
S'(*a=(), **b={})'
p3174
sg3123
S'f'
sa(dp3175
g3100
S'/home/diego/web2py/applications/irecycle/controllers/default.py'
p3176
sg3102
(dp3177
S'post'
p3178
g3143
sS'global user'
p3179
S'<function user>'
p3180
ssg3108
I74
sg3109
(dp3181
I69
S'\tcrud.settings.formstyle = "divs"'
p3182
sI70
S'\tform = crud.create(Post)'
p3183
sI71
S'\tfriends = [me]+[row.target for row in myfriends.select(Link.target)]'
p3184
sI72
S'\tposts = db(Post.posted_by.belongs(friends)).select(orderby=~Post.posted_on,'
p3185
sI73
S'\t\tlimitby=(0,100))'
p3186
sI74
S'\tfor post in user:'
p3187
sI75
S"\t\tpost_user = '%(first_name)s %(last_name)s' % user"
p3188
sI76
S'\treturn locals()'
p3189
sI77
S''
sI78
S'# our wall will show our profile and our own posts'
p3190
ssg3121
S'()'
p3191
sg3123
S'home'
p3192
sasS'pyver'
p3193
S'Python 2.7.3: /usr/bin/python'
p3194
sS'session'
p3195
g57
(g58
g59
NtRp3196
(dp3197
g62
(dp3198
sg64
(lp3199
g57
(g66
g59
NtRp3200
(dp3201
g62
(dp3202
g70
I5
ssg71
Nsg64
(lp3203
g57
(g73
g59
NtRp3204
(dp3205
g62
(dp3206
sg71
g3200
sg64
(lp3207
g57
(g78
g59
NtRp3208
(dp3209
g62
(dp3210
g82
g83
ssg71
g3204
sg64
(lp3211
S'auth'
p3212
asbag57
(g78
g59
NtRp3213
(dp3214
g62
(dp3215
g89
g90
ssg71
g3204
sg64
(lp3216
S':'
asbag57
(g78
g59
NtRp3217
(dp3218
g62
(dp3219
sg71
g3204
sg64
(lp3220
g57
(g58
g59
NtRp3221
(dp3222
g62
(dp3223
g70
I5
ssg71
g3217
sg64
(lp3224
g57
(g66
g59
NtRp3225
(dp3226
g62
(dp3227
g70
I4
ssg71
Nsg64
(lp3228
g57
(g73
g59
NtRp3229
(dp3230
g62
(dp3231
sg71
g3225
sg64
(lp3232
g57
(g78
g59
NtRp3233
(dp3234
g62
(dp3235
g82
g83
ssg71
g3229
sg64
(lp3236
S'expiration'
p3237
asbag57
(g78
g59
NtRp3238
(dp3239
g62
(dp3240
g89
g90
ssg71
g3229
sg64
(lp3241
S':'
asbag57
(g78
g59
NtRp3242
(dp3243
g62
(dp3244
sg71
g3229
sg64
(lp3245
g57
(g58
g59
NtRp3246
(dp3247
g62
(dp3248
g70
I4
ssg71
g3242
sg64
(lp3249
S'3600'
p3250
asbasbasbag57
(g73
g59
NtRp3251
(dp3252
g62
(dp3253
sg71
g3225
sg64
(lp3254
g57
(g78
g59
NtRp3255
(dp3256
g62
(dp3257
g82
g83
ssg71
g3251
sg64
(lp3258
S'hmac_key'
p3259
asbag57
(g78
g59
NtRp3260
(dp3261
g62
(dp3262
g89
g90
ssg71
g3251
sg64
(lp3263
S':'
asbag57
(g78
g59
NtRp3264
(dp3265
g62
(dp3266
sg71
g3251
sg64
(lp3267
g57
(g58
g59
NtRp3268
(dp3269
g62
(dp3270
g70
I4
ssg71
g3264
sg64
(lp3271
S'd2c1eee9-5b2f-466d-92d9-0494c518e759'
p3272
asbasbasbag57
(g73
g59
NtRp3273
(dp3274
g62
(dp3275
sg71
g3225
sg64
(lp3276
g57
(g78
g59
NtRp3277
(dp3278
g62
(dp3279
g82
g83
ssg71
g3273
sg64
(lp3280
S'last_visit'
p3281
asbag57
(g78
g59
NtRp3282
(dp3283
g62
(dp3284
g89
g90
ssg71
g3273
sg64
(lp3285
S':'
asbag57
(g78
g59
NtRp3286
(dp3287
g62
(dp3288
sg71
g3273
sg64
(lp3289
g57
(g58
g59
NtRp3290
(dp3291
g62
(dp3292
g70
I4
ssg71
g3286
sg64
(lp3293
S'datetime.datetime(2013, 1, 30, 17, 26, 17, 220486)'
p3294
asbasbasbag57
(g73
g59
NtRp3295
(dp3296
g62
(dp3297
sg71
g3225
sg64
(lp3298
g57
(g78
g59
NtRp3299
(dp3300
g62
(dp3301
g82
g83
ssg71
g3295
sg64
(lp3302
S'remember'
p3303
asbag57
(g78
g59
NtRp3304
(dp3305
g62
(dp3306
g89
g90
ssg71
g3295
sg64
(lp3307
S':'
asbag57
(g78
g59
NtRp3308
(dp3309
g62
(dp3310
sg71
g3295
sg64
(lp3311
g57
(g58
g59
NtRp3312
(dp3313
g62
(dp3314
g70
I4
ssg71
g3308
sg64
(lp3315
g100
asbasbasbag57
(g73
g59
NtRp3316
(dp3317
g62
(dp3318
sg71
g3225
sg64
(lp3319
g57
(g78
g59
NtRp3320
(dp3321
g62
(dp3322
g82
g83
ssg71
g3316
sg64
(lp3323
S'user'
p3324
asbag57
(g78
g59
NtRp3325
(dp3326
g62
(dp3327
g89
g90
ssg71
g3316
sg64
(lp3328
S':'
asbag57
(g78
g59
NtRp3329
(dp3330
g62
(dp3331
sg71
g3316
sg64
(lp3332
g57
(g58
g59
NtRp3333
(dp3334
g62
(dp3335
g70
I4
ssg71
g3329
sg64
(lp3336
g57
(g66
g59
NtRp3337
(dp3338
g62
(dp3339
g70
I3
ssg71
Nsg64
(lp3340
g57
(g73
g59
NtRp3341
(dp3342
g62
(dp3343
sg71
g3337
sg64
(lp3344
g57
(g78
g59
NtRp3345
(dp3346
g62
(dp3347
g82
g83
ssg71
g3341
sg64
(lp3348
S'avatar'
p3349
asbag57
(g78
g59
NtRp3350
(dp3351
g62
(dp3352
g89
g90
ssg71
g3341
sg64
(lp3353
S':'
asbag57
(g78
g59
NtRp3354
(dp3355
g62
(dp3356
sg71
g3341
sg64
(lp3357
g57
(g58
g59
NtRp3358
(dp3359
g62
(dp3360
g70
I3
ssg71
g3354
sg64
(lp3361
S''
asbasbasbag57
(g73
g59
NtRp3362
(dp3363
g62
(dp3364
sg71
g3337
sg64
(lp3365
g57
(g78
g59
NtRp3366
(dp3367
g62
(dp3368
g82
g83
ssg71
g3362
sg64
(lp3369
S'email'
p3370
asbag57
(g78
g59
NtRp3371
(dp3372
g62
(dp3373
g89
g90
ssg71
g3362
sg64
(lp3374
S':'
asbag57
(g78
g59
NtRp3375
(dp3376
g62
(dp3377
sg71
g3362
sg64
(lp3378
g57
(g58
g59
NtRp3379
(dp3380
g62
(dp3381
g70
I3
ssg71
g3375
sg64
(lp3382
S'diego@teste.com'
p3383
asbasbasbag57
(g73
g59
NtRp3384
(dp3385
g62
(dp3386
sg71
g3337
sg64
(lp3387
g57
(g78
g59
NtRp3388
(dp3389
g62
(dp3390
g82
g83
ssg71
g3384
sg64
(lp3391
S'first_name'
p3392
asbag57
(g78
g59
NtRp3393
(dp3394
g62
(dp3395
g89
g90
ssg71
g3384
sg64
(lp3396
S':'
asbag57
(g78
g59
NtRp3397
(dp3398
g62
(dp3399
sg71
g3384
sg64
(lp3400
g57
(g58
g59
NtRp3401
(dp3402
g62
(dp3403
g70
I3
ssg71
g3397
sg64
(lp3404
S'diego'
p3405
asbasbasbag57
(g73
g59
NtRp3406
(dp3407
g62
(dp3408
sg71
g3337
sg64
(lp3409
g57
(g78
g59
NtRp3410
(dp3411
g62
(dp3412
g82
g83
ssg71
g3406
sg64
(lp3413
S'id'
p3414
asbag57
(g78
g59
NtRp3415
(dp3416
g62
(dp3417
g89
g90
ssg71
g3406
sg64
(lp3418
S':'
asbag57
(g78
g59
NtRp3419
(dp3420
g62
(dp3421
sg71
g3406
sg64
(lp3422
g57
(g58
g59
NtRp3423
(dp3424
g62
(dp3425
g70
I3
ssg71
g3419
sg64
(lp3426
S'1'
asbasbasbag57
(g73
g59
NtRp3427
(dp3428
g62
(dp3429
sg71
g3337
sg64
(lp3430
g57
(g78
g59
NtRp3431
(dp3432
g62
(dp3433
g82
g83
ssg71
g3427
sg64
(lp3434
S'last_name'
p3435
asbag57
(g78
g59
NtRp3436
(dp3437
g62
(dp3438
g89
g90
ssg71
g3427
sg64
(lp3439
S':'
asbag57
(g78
g59
NtRp3440
(dp3441
g62
(dp3442
sg71
g3427
sg64
(lp3443
g57
(g58
g59
NtRp3444
(dp3445
g62
(dp3446
g70
I3
ssg71
g3440
sg64
(lp3447
S'miranda'
p3448
asbasbasbag57
(g73
g59
NtRp3449
(dp3450
g62
(dp3451
sg71
g3337
sg64
(lp3452
g57
(g78
g59
NtRp3453
(dp3454
g62
(dp3455
g82
g83
ssg71
g3449
sg64
(lp3456
S'registration_id'
p3457
asbag57
(g78
g59
NtRp3458
(dp3459
g62
(dp3460
g89
g90
ssg71
g3449
sg64
(lp3461
S':'
asbag57
(g78
g59
NtRp3462
(dp3463
g62
(dp3464
sg71
g3449
sg64
(lp3465
g57
(g58
g59
NtRp3466
(dp3467
g62
(dp3468
g70
I3
ssg71
g3462
sg64
(lp3469
S''
asbasbasbag57
(g73
g59
NtRp3470
(dp3471
g62
(dp3472
sg71
g3337
sg64
(lp3473
g57
(g78
g59
NtRp3474
(dp3475
g62
(dp3476
g82
g83
ssg71
g3470
sg64
(lp3477
S'registration_key'
p3478
asbag57
(g78
g59
NtRp3479
(dp3480
g62
(dp3481
g89
g90
ssg71
g3470
sg64
(lp3482
S':'
asbag57
(g78
g59
NtRp3483
(dp3484
g62
(dp3485
sg71
g3470
sg64
(lp3486
g57
(g58
g59
NtRp3487
(dp3488
g62
(dp3489
g70
I3
ssg71
g3483
sg64
(lp3490
S''
asbasbasbag57
(g73
g59
NtRp3491
(dp3492
g62
(dp3493
sg71
g3337
sg64
(lp3494
g57
(g78
g59
NtRp3495
(dp3496
g62
(dp3497
g82
g83
ssg71
g3491
sg64
(lp3498
S'reset_password_key'
p3499
asbag57
(g78
g59
NtRp3500
(dp3501
g62
(dp3502
g89
g90
ssg71
g3491
sg64
(lp3503
S':'
asbag57
(g78
g59
NtRp3504
(dp3505
g62
(dp3506
sg71
g3491
sg64
(lp3507
g57
(g58
g59
NtRp3508
(dp3509
g62
(dp3510
g70
I3
ssg71
g3504
sg64
(lp3511
S''
asbasbasbag57
(g73
g59
NtRp3512
(dp3513
g62
(dp3514
sg71
g3337
sg64
(lp3515
g57
(g78
g59
NtRp3516
(dp3517
g62
(dp3518
g82
g83
ssg71
g3512
sg64
(lp3519
S'thumbnail'
p3520
asbag57
(g78
g59
NtRp3521
(dp3522
g62
(dp3523
g89
g90
ssg71
g3512
sg64
(lp3524
S':'
asbag57
(g78
g59
NtRp3525
(dp3526
g62
(dp3527
sg71
g3512
sg64
(lp3528
g57
(g58
g59
NtRp3529
(dp3530
g62
(dp3531
g70
I3
ssg71
g3525
sg64
(lp3532
S''
asbasbasbasbasbasbasbag57
(g73
g59
NtRp3533
(dp3534
g62
(dp3535
sg71
g3225
sg64
(lp3536
g57
(g78
g59
NtRp3537
(dp3538
g62
(dp3539
g82
g83
ssg71
g3533
sg64
(lp3540
S'user_groups'
p3541
asbag57
(g78
g59
NtRp3542
(dp3543
g62
(dp3544
g89
g90
ssg71
g3533
sg64
(lp3545
S':'
asbag57
(g78
g59
NtRp3546
(dp3547
g62
(dp3548
sg71
g3533
sg64
(lp3549
g57
(g58
g59
NtRp3550
(dp3551
g62
(dp3552
g70
I4
ssg71
g3546
sg64
(lp3553
g57
(g66
g59
NtRp3554
(dp3555
g62
(dp3556
g70
I3
ssg71
Nsg64
(lp3557
sbasbasbasbasbasbasbasbag57
(g73
g59
NtRp3558
(dp3559
g62
(dp3560
sg71
g3200
sg64
(lp3561
g57
(g78
g59
NtRp3562
(dp3563
g62
(dp3564
g82
g83
ssg71
g3558
sg64
(lp3565
S'flash'
p3566
asbag57
(g78
g59
NtRp3567
(dp3568
g62
(dp3569
g89
g90
ssg71
g3558
sg64
(lp3570
S':'
asbag57
(g78
g59
NtRp3571
(dp3572
g62
(dp3573
sg71
g3558
sg64
(lp3574
g57
(g58
g59
NtRp3575
(dp3576
g62
(dp3577
g70
I5
ssg71
g3571
sg64
(lp3578
S'None'
p3579
asbasbasbag57
(g73
g59
NtRp3580
(dp3581
g62
(dp3582
sg71
g3200
sg64
(lp3583
g57
(g78
g59
NtRp3584
(dp3585
g62
(dp3586
g82
g83
ssg71
g3580
sg64
(lp3587
S'last_orderby'
p3588
asbag57
(g78
g59
NtRp3589
(dp3590
g62
(dp3591
g89
g90
ssg71
g3580
sg64
(lp3592
S':'
asbag57
(g78
g59
NtRp3593
(dp3594
g62
(dp3595
sg71
g3580
sg64
(lp3596
g57
(g58
g59
NtRp3597
(dp3598
g62
(dp3599
g70
I5
ssg71
g3593
sg64
(lp3600
S'None'
p3601
asbasbasbag57
(g73
g59
NtRp3602
(dp3603
g62
(dp3604
sg71
g3200
sg64
(lp3605
g57
(g78
g59
NtRp3606
(dp3607
g62
(dp3608
g82
g83
ssg71
g3602
sg64
(lp3609
S'last_query'
p3610
asbag57
(g78
g59
NtRp3611
(dp3612
g62
(dp3613
g89
g90
ssg71
g3602
sg64
(lp3614
S':'
asbag57
(g78
g59
NtRp3615
(dp3616
g62
(dp3617
sg71
g3602
sg64
(lp3618
g57
(g58
g59
NtRp3619
(dp3620
g62
(dp3621
g70
I5
ssg71
g3615
sg64
(lp3622
S'db.auth_user.id>0'
p3623
asbasbasbasbasbsS'etype'
p3624
S"<type 'exceptions.TypeError'>"
p3625
sS'date'
p3626
S'Wed Jan 30 17:26:17 2013'
p3627
sS'response'
p3628
g57
(g58
g59
NtRp3629
(dp3630
g62
(dp3631
sg64
(lp3632
g57
(g66
g59
NtRp3633
(dp3634
g62
(dp3635
g70
I5
ssg71
Nsg64
(lp3636
g57
(g73
g59
NtRp3637
(dp3638
g62
(dp3639
sg71
g3633
sg64
(lp3640
g57
(g78
g59
NtRp3641
(dp3642
g62
(dp3643
g82
g83
ssg71
g3637
sg64
(lp3644
g155
asbag57
(g78
g59
NtRp3645
(dp3646
g62
(dp3647
g89
g90
ssg71
g3637
sg64
(lp3648
S':'
asbag57
(g78
g59
NtRp3649
(dp3650
g62
(dp3651
sg71
g3637
sg64
(lp3652
g57
(g58
g59
NtRp3653
(dp3654
g62
(dp3655
g70
I5
ssg71
g3649
sg64
(lp3656
S'<cStringIO.StringO object at 0x7f02ec45db90>'
p3657
asbasbasbag57
(g73
g59
NtRp3658
(dp3659
g62
(dp3660
sg71
g3633
sg64
(lp3661
g57
(g78
g59
NtRp3662
(dp3663
g62
(dp3664
g82
g83
ssg71
g3658
sg64
(lp3665
g243
asbag57
(g78
g59
NtRp3666
(dp3667
g62
(dp3668
g89
g90
ssg71
g3658
sg64
(lp3669
S':'
asbag57
(g78
g59
NtRp3670
(dp3671
g62
(dp3672
sg71
g3658
sg64
(lp3673
g57
(g58
g59
NtRp3674
(dp3675
g62
(dp3676
g70
I5
ssg71
g3670
sg64
(lp3677
g57
(g66
g59
NtRp3678
(dp3679
g62
(dp3680
g70
I4
ssg71
Nsg64
(lp3681
g57
(g73
g59
NtRp3682
(dp3683
g62
(dp3684
sg71
g3678
sg64
(lp3685
g57
(g78
g59
NtRp3686
(dp3687
g62
(dp3688
g82
g83
ssg71
g3682
sg64
(lp3689
S'session_id_irecycle'
p3690
asbag57
(g78
g59
NtRp3691
(dp3692
g62
(dp3693
g89
g90
ssg71
g3682
sg64
(lp3694
S':'
asbag57
(g78
g59
NtRp3695
(dp3696
g62
(dp3697
sg71
g3682
sg64
(lp3698
g57
(g58
g59
NtRp3699
(dp3700
g62
(dp3701
g70
I4
ssg71
g3695
sg64
(lp3702
g475
ag57
(g66
g59
NtRp3703
(dp3704
g62
(dp3705
g70
I3
ssg71
Nsg64
(lp3706
g57
(g73
g59
NtRp3707
(dp3708
g62
(dp3709
sg71
g3703
sg64
(lp3710
g57
(g78
g59
NtRp3711
(dp3712
g62
(dp3713
g82
g83
ssg71
g3707
sg64
(lp3714
g294
asbag57
(g78
g59
NtRp3715
(dp3716
g62
(dp3717
g89
g90
ssg71
g3707
sg64
(lp3718
S':'
asbag57
(g78
g59
NtRp3719
(dp3720
g62
(dp3721
sg71
g3707
sg64
(lp3722
g57
(g58
g59
NtRp3723
(dp3724
g62
(dp3725
g70
I3
ssg71
g3719
sg64
(lp3726
S''
asbasbasbag57
(g73
g59
NtRp3727
(dp3728
g62
(dp3729
sg71
g3703
sg64
(lp3730
g57
(g78
g59
NtRp3731
(dp3732
g62
(dp3733
g82
g83
ssg71
g3727
sg64
(lp3734
g315
asbag57
(g78
g59
NtRp3735
(dp3736
g62
(dp3737
g89
g90
ssg71
g3727
sg64
(lp3738
S':'
asbag57
(g78
g59
NtRp3739
(dp3740
g62
(dp3741
sg71
g3727
sg64
(lp3742
g57
(g58
g59
NtRp3743
(dp3744
g62
(dp3745
g70
I3
ssg71
g3739
sg64
(lp3746
S''
asbasbasbag57
(g73
g59
NtRp3747
(dp3748
g62
(dp3749
sg71
g3703
sg64
(lp3750
g57
(g78
g59
NtRp3751
(dp3752
g62
(dp3753
g82
g83
ssg71
g3747
sg64
(lp3754
g336
asbag57
(g78
g59
NtRp3755
(dp3756
g62
(dp3757
g89
g90
ssg71
g3747
sg64
(lp3758
S':'
asbag57
(g78
g59
NtRp3759
(dp3760
g62
(dp3761
sg71
g3747
sg64
(lp3762
g57
(g58
g59
NtRp3763
(dp3764
g62
(dp3765
g70
I3
ssg71
g3759
sg64
(lp3766
S''
asbasbasbag57
(g73
g59
NtRp3767
(dp3768
g62
(dp3769
sg71
g3703
sg64
(lp3770
g57
(g78
g59
NtRp3771
(dp3772
g62
(dp3773
g82
g83
ssg71
g3767
sg64
(lp3774
g357
asbag57
(g78
g59
NtRp3775
(dp3776
g62
(dp3777
g89
g90
ssg71
g3767
sg64
(lp3778
S':'
asbag57
(g78
g59
NtRp3779
(dp3780
g62
(dp3781
sg71
g3767
sg64
(lp3782
g57
(g58
g59
NtRp3783
(dp3784
g62
(dp3785
g70
I3
ssg71
g3779
sg64
(lp3786
S''
asbasbasbag57
(g73
g59
NtRp3787
(dp3788
g62
(dp3789
sg71
g3703
sg64
(lp3790
g57
(g78
g59
NtRp3791
(dp3792
g62
(dp3793
g82
g83
ssg71
g3787
sg64
(lp3794
g378
asbag57
(g78
g59
NtRp3795
(dp3796
g62
(dp3797
g89
g90
ssg71
g3787
sg64
(lp3798
S':'
asbag57
(g78
g59
NtRp3799
(dp3800
g62
(dp3801
sg71
g3787
sg64
(lp3802
g57
(g58
g59
NtRp3803
(dp3804
g62
(dp3805
g70
I3
ssg71
g3799
sg64
(lp3806
S''
asbasbasbag57
(g73
g59
NtRp3807
(dp3808
g62
(dp3809
sg71
g3703
sg64
(lp3810
g57
(g78
g59
NtRp3811
(dp3812
g62
(dp3813
g82
g83
ssg71
g3807
sg64
(lp3814
g399
asbag57
(g78
g59
NtRp3815
(dp3816
g62
(dp3817
g89
g90
ssg71
g3807
sg64
(lp3818
S':'
asbag57
(g78
g59
NtRp3819
(dp3820
g62
(dp3821
sg71
g3807
sg64
(lp3822
g57
(g58
g59
NtRp3823
(dp3824
g62
(dp3825
g70
I3
ssg71
g3819
sg64
(lp3826
S'/'
asbasbasbag57
(g73
g59
NtRp3827
(dp3828
g62
(dp3829
sg71
g3703
sg64
(lp3830
g57
(g78
g59
NtRp3831
(dp3832
g62
(dp3833
g82
g83
ssg71
g3827
sg64
(lp3834
g420
asbag57
(g78
g59
NtRp3835
(dp3836
g62
(dp3837
g89
g90
ssg71
g3827
sg64
(lp3838
S':'
asbag57
(g78
g59
NtRp3839
(dp3840
g62
(dp3841
sg71
g3827
sg64
(lp3842
g57
(g58
g59
NtRp3843
(dp3844
g62
(dp3845
g70
I3
ssg71
g3839
sg64
(lp3846
S''
asbasbasbag57
(g73
g59
NtRp3847
(dp3848
g62
(dp3849
sg71
g3703
sg64
(lp3850
g57
(g78
g59
NtRp3851
(dp3852
g62
(dp3853
g82
g83
ssg71
g3847
sg64
(lp3854
g441
asbag57
(g78
g59
NtRp3855
(dp3856
g62
(dp3857
g89
g90
ssg71
g3847
sg64
(lp3858
S':'
asbag57
(g78
g59
NtRp3859
(dp3860
g62
(dp3861
sg71
g3847
sg64
(lp3862
g57
(g58
g59
NtRp3863
(dp3864
g62
(dp3865
g70
I3
ssg71
g3859
sg64
(lp3866
S''
asbasbasbasbasbasbasbasbasbasbasbag57
(g73
g59
NtRp3867
(dp3868
g62
(dp3869
sg71
g3633
sg64
(lp3870
g57
(g78
g59
NtRp3871
(dp3872
g62
(dp3873
g82
g83
ssg71
g3867
sg64
(lp3874
S'delimiters'
p3875
asbag57
(g78
g59
NtRp3876
(dp3877
g62
(dp3878
g89
g90
ssg71
g3867
sg64
(lp3879
S':'
asbag57
(g78
g59
NtRp3880
(dp3881
g62
(dp3882
sg71
g3867
sg64
(lp3883
g57
(g58
g59
NtRp3884
(dp3885
g62
(dp3886
g70
I5
ssg71
g3880
sg64
(lp3887
g57
(g66
g59
NtRp3888
(dp3889
g62
(dp3890
g70
I4
ssg71
Nsg64
(lp3891
g57
(g73
g59
NtRp3892
(dp3893
g62
(dp3894
sg71
g3888
sg64
(lp3895
g57
(g78
g59
NtRp3896
(dp3897
g62
(dp3898
sg71
g3892
sg64
(lp3899
g57
(g58
g59
NtRp3900
(dp3901
g62
(dp3902
g70
I4
ssg71
g3896
sg64
(lp3903
S'{{'
p3904
asbasbasbag57
(g73
g59
NtRp3905
(dp3906
g62
(dp3907
sg71
g3888
sg64
(lp3908
g57
(g78
g59
NtRp3909
(dp3910
g62
(dp3911
sg71
g3905
sg64
(lp3912
g57
(g58
g59
NtRp3913
(dp3914
g62
(dp3915
g70
I4
ssg71
g3909
sg64
(lp3916
S'}}'
p3917
asbasbasbasbasbasbasbag57
(g73
g59
NtRp3918
(dp3919
g62
(dp3920
sg71
g3633
sg64
(lp3921
g57
(g78
g59
NtRp3922
(dp3923
g62
(dp3924
g82
g83
ssg71
g3918
sg64
(lp3925
S'files'
p3926
asbag57
(g78
g59
NtRp3927
(dp3928
g62
(dp3929
g89
g90
ssg71
g3918
sg64
(lp3930
S':'
asbag57
(g78
g59
NtRp3931
(dp3932
g62
(dp3933
sg71
g3918
sg64
(lp3934
g57
(g58
g59
NtRp3935
(dp3936
g62
(dp3937
g70
I5
ssg71
g3931
sg64
(lp3938
g57
(g66
g59
NtRp3939
(dp3940
g62
(dp3941
g70
I4
ssg71
Nsg64
(lp3942
sbasbasbasbag57
(g73
g59
NtRp3943
(dp3944
g62
(dp3945
sg71
g3633
sg64
(lp3946
g57
(g78
g59
NtRp3947
(dp3948
g62
(dp3949
g82
g83
ssg71
g3943
sg64
(lp3950
S'flash'
p3951
asbag57
(g78
g59
NtRp3952
(dp3953
g62
(dp3954
g89
g90
ssg71
g3943
sg64
(lp3955
S':'
asbag57
(g78
g59
NtRp3956
(dp3957
g62
(dp3958
sg71
g3943
sg64
(lp3959
g57
(g58
g59
NtRp3960
(dp3961
g62
(dp3962
g70
I5
ssg71
g3956
sg64
(lp3963
S''
asbasbasbag57
(g73
g59
NtRp3964
(dp3965
g62
(dp3966
sg71
g3633
sg64
(lp3967
g57
(g78
g59
NtRp3968
(dp3969
g62
(dp3970
g82
g83
ssg71
g3964
sg64
(lp3971
S'generic_patterns'
p3972
asbag57
(g78
g59
NtRp3973
(dp3974
g62
(dp3975
g89
g90
ssg71
g3964
sg64
(lp3976
S':'
asbag57
(g78
g59
NtRp3977
(dp3978
g62
(dp3979
sg71
g3964
sg64
(lp3980
g57
(g58
g59
NtRp3981
(dp3982
g62
(dp3983
g70
I5
ssg71
g3977
sg64
(lp3984
g57
(g66
g59
NtRp3985
(dp3986
g62
(dp3987
g70
I4
ssg71
Nsg64
(lp3988
g57
(g73
g59
NtRp3989
(dp3990
g62
(dp3991
sg71
g3985
sg64
(lp3992
g57
(g78
g59
NtRp3993
(dp3994
g62
(dp3995
sg71
g3989
sg64
(lp3996
g57
(g58
g59
NtRp3997
(dp3998
g62
(dp3999
g70
I4
ssg71
g3993
sg64
(lp4000
S'*'
asbasbasbasbasbasbasbag57
(g73
g59
NtRp4001
(dp4002
g62
(dp4003
sg71
g3633
sg64
(lp4004
g57
(g78
g59
NtRp4005
(dp4006
g62
(dp4007
g82
g83
ssg71
g4001
sg64
(lp4008
S'headers'
p4009
asbag57
(g78
g59
NtRp4010
(dp4011
g62
(dp4012
g89
g90
ssg71
g4001
sg64
(lp4013
S':'
asbag57
(g78
g59
NtRp4014
(dp4015
g62
(dp4016
sg71
g4001
sg64
(lp4017
g57
(g58
g59
NtRp4018
(dp4019
g62
(dp4020
g70
I5
ssg71
g4014
sg64
(lp4021
g57
(g66
g59
NtRp4022
(dp4023
g62
(dp4024
g70
I4
ssg71
Nsg64
(lp4025
g57
(g73
g59
NtRp4026
(dp4027
g62
(dp4028
sg71
g4022
sg64
(lp4029
g57
(g78
g59
NtRp4030
(dp4031
g62
(dp4032
g82
g83
ssg71
g4026
sg64
(lp4033
S'X-Powered-By'
p4034
asbag57
(g78
g59
NtRp4035
(dp4036
g62
(dp4037
g89
g90
ssg71
g4026
sg64
(lp4038
S':'
asbag57
(g78
g59
NtRp4039
(dp4040
g62
(dp4041
sg71
g4026
sg64
(lp4042
g57
(g58
g59
NtRp4043
(dp4044
g62
(dp4045
g70
I4
ssg71
g4039
sg64
(lp4046
S'web2py'
p4047
asbasbasbasbasbasbasbag57
(g73
g59
NtRp4048
(dp4049
g62
(dp4050
sg71
g3633
sg64
(lp4051
g57
(g78
g59
NtRp4052
(dp4053
g62
(dp4054
g82
g83
ssg71
g4048
sg64
(lp4055
S'menu'
p4056
asbag57
(g78
g59
NtRp4057
(dp4058
g62
(dp4059
g89
g90
ssg71
g4048
sg64
(lp4060
S':'
asbag57
(g78
g59
NtRp4061
(dp4062
g62
(dp4063
sg71
g4048
sg64
(lp4064
g57
(g58
g59
NtRp4065
(dp4066
g62
(dp4067
g70
I5
ssg71
g4061
sg64
(lp4068
g57
(g66
g59
NtRp4069
(dp4070
g62
(dp4071
g70
I4
ssg71
Nsg64
(lp4072
g57
(g73
g59
NtRp4073
(dp4074
g62
(dp4075
sg71
g4069
sg64
(lp4076
g57
(g78
g59
NtRp4077
(dp4078
g62
(dp4079
sg71
g4073
sg64
(lp4080
g57
(g58
g59
NtRp4081
(dp4082
g62
(dp4083
g70
I4
ssg71
g4077
sg64
(lp4084
g57
(g66
g59
NtRp4085
(dp4086
g62
(dp4087
g70
I3
ssg71
Nsg64
(lp4088
g57
(g73
g59
NtRp4089
(dp4090
g62
(dp4091
sg71
g4085
sg64
(lp4092
g57
(g78
g59
NtRp4093
(dp4094
g62
(dp4095
sg71
g4089
sg64
(lp4096
g57
(g58
g59
NtRp4097
(dp4098
g62
(dp4099
g70
I3
ssg71
g4093
sg64
(lp4100
cgluon.languages
lazyT_unpickle
p4101
(S't\x04\x00\x00\x00Home'
tRp4102
asbasbasbag57
(g73
g59
NtRp4103
(dp4104
g62
(dp4105
sg71
g4085
sg64
(lp4106
g57
(g78
g59
NtRp4107
(dp4108
g62
(dp4109
sg71
g4103
sg64
(lp4110
g57
(g58
g59
NtRp4111
(dp4112
g62
(dp4113
g70
I3
ssg71
g4107
sg64
(lp4114
g100
asbasbasbag57
(g73
g59
NtRp4115
(dp4116
g62
(dp4117
sg71
g4085
sg64
(lp4118
g57
(g78
g59
NtRp4119
(dp4120
g62
(dp4121
sg71
g4115
sg64
(lp4122
g57
(g58
g59
NtRp4123
(dp4124
g62
(dp4125
g70
I3
ssg71
g4119
sg64
(lp4126
S'/irecycle/default/home'
p4127
asbasbasbasbasbasbasbag57
(g73
g59
NtRp4128
(dp4129
g62
(dp4130
sg71
g4069
sg64
(lp4131
g57
(g78
g59
NtRp4132
(dp4133
g62
(dp4134
sg71
g4128
sg64
(lp4135
g57
(g58
g59
NtRp4136
(dp4137
g62
(dp4138
g70
I4
ssg71
g4132
sg64
(lp4139
g57
(g66
g59
NtRp4140
(dp4141
g62
(dp4142
g70
I3
ssg71
Nsg64
(lp4143
g57
(g73
g59
NtRp4144
(dp4145
g62
(dp4146
sg71
g4140
sg64
(lp4147
g57
(g78
g59
NtRp4148
(dp4149
g62
(dp4150
sg71
g4144
sg64
(lp4151
g57
(g58
g59
NtRp4152
(dp4153
g62
(dp4154
g70
I3
ssg71
g4148
sg64
(lp4155
g4101
(S't\x04\x00\x00\x00Wall'
tRp4156
asbasbasbag57
(g73
g59
NtRp4157
(dp4158
g62
(dp4159
sg71
g4140
sg64
(lp4160
g57
(g78
g59
NtRp4161
(dp4162
g62
(dp4163
sg71
g4157
sg64
(lp4164
g57
(g58
g59
NtRp4165
(dp4166
g62
(dp4167
g70
I3
ssg71
g4161
sg64
(lp4168
g100
asbasbasbag57
(g73
g59
NtRp4169
(dp4170
g62
(dp4171
sg71
g4140
sg64
(lp4172
g57
(g78
g59
NtRp4173
(dp4174
g62
(dp4175
sg71
g4169
sg64
(lp4176
g57
(g58
g59
NtRp4177
(dp4178
g62
(dp4179
g70
I3
ssg71
g4173
sg64
(lp4180
S'/irecycle/default/wall'
p4181
asbasbasbasbasbasbasbag57
(g73
g59
NtRp4182
(dp4183
g62
(dp4184
sg71
g4069
sg64
(lp4185
g57
(g78
g59
NtRp4186
(dp4187
g62
(dp4188
sg71
g4182
sg64
(lp4189
g57
(g58
g59
NtRp4190
(dp4191
g62
(dp4192
g70
I4
ssg71
g4186
sg64
(lp4193
g57
(g66
g59
NtRp4194
(dp4195
g62
(dp4196
g70
I3
ssg71
Nsg64
(lp4197
g57
(g73
g59
NtRp4198
(dp4199
g62
(dp4200
sg71
g4194
sg64
(lp4201
g57
(g78
g59
NtRp4202
(dp4203
g62
(dp4204
sg71
g4198
sg64
(lp4205
g57
(g58
g59
NtRp4206
(dp4207
g62
(dp4208
g70
I3
ssg71
g4202
sg64
(lp4209
g4101
(S't\x07\x00\x00\x00Friends'
tRp4210
asbasbasbag57
(g73
g59
NtRp4211
(dp4212
g62
(dp4213
sg71
g4194
sg64
(lp4214
g57
(g78
g59
NtRp4215
(dp4216
g62
(dp4217
sg71
g4211
sg64
(lp4218
g57
(g58
g59
NtRp4219
(dp4220
g62
(dp4221
g70
I3
ssg71
g4215
sg64
(lp4222
g100
asbasbasbag57
(g73
g59
NtRp4223
(dp4224
g62
(dp4225
sg71
g4194
sg64
(lp4226
g57
(g78
g59
NtRp4227
(dp4228
g62
(dp4229
sg71
g4223
sg64
(lp4230
g57
(g58
g59
NtRp4231
(dp4232
g62
(dp4233
g70
I3
ssg71
g4227
sg64
(lp4234
S'/irecycle/default/friends'
p4235
asbasbasbasbasbasbasbag57
(g73
g59
NtRp4236
(dp4237
g62
(dp4238
sg71
g4069
sg64
(lp4239
g57
(g78
g59
NtRp4240
(dp4241
g62
(dp4242
sg71
g4236
sg64
(lp4243
g57
(g58
g59
NtRp4244
(dp4245
g62
(dp4246
g70
I4
ssg71
g4240
sg64
(lp4247
g57
(g66
g59
NtRp4248
(dp4249
g62
(dp4250
g70
I3
ssg71
Nsg64
(lp4251
g57
(g73
g59
NtRp4252
(dp4253
g62
(dp4254
sg71
g4248
sg64
(lp4255
g57
(g78
g59
NtRp4256
(dp4257
g62
(dp4258
sg71
g4252
sg64
(lp4259
g57
(g58
g59
NtRp4260
(dp4261
g62
(dp4262
g70
I3
ssg71
g4256
sg64
(lp4263
g4101
(S't\x06\x00\x00\x00Search'
tRp4264
asbasbasbag57
(g73
g59
NtRp4265
(dp4266
g62
(dp4267
sg71
g4248
sg64
(lp4268
g57
(g78
g59
NtRp4269
(dp4270
g62
(dp4271
sg71
g4265
sg64
(lp4272
g57
(g58
g59
NtRp4273
(dp4274
g62
(dp4275
g70
I3
ssg71
g4269
sg64
(lp4276
g100
asbasbasbag57
(g73
g59
NtRp4277
(dp4278
g62
(dp4279
sg71
g4248
sg64
(lp4280
g57
(g78
g59
NtRp4281
(dp4282
g62
(dp4283
sg71
g4277
sg64
(lp4284
g57
(g58
g59
NtRp4285
(dp4286
g62
(dp4287
g70
I3
ssg71
g4281
sg64
(lp4288
S'/irecycle/default/search'
p4289
asbasbasbasbasbasbasbasbasbasbasbag57
(g73
g59
NtRp4290
(dp4291
g62
(dp4292
sg71
g3633
sg64
(lp4293
g57
(g78
g59
NtRp4294
(dp4295
g62
(dp4296
g82
g83
ssg71
g4290
sg64
(lp4297
S'meta'
p4298
asbag57
(g78
g59
NtRp4299
(dp4300
g62
(dp4301
g89
g90
ssg71
g4290
sg64
(lp4302
S':'
asbag57
(g78
g59
NtRp4303
(dp4304
g62
(dp4305
sg71
g4290
sg64
(lp4306
g57
(g58
g59
NtRp4307
(dp4308
g62
(dp4309
g70
I5
ssg71
g4303
sg64
(lp4310
g57
(g66
g59
NtRp4311
(dp4312
g62
(dp4313
g70
I4
ssg71
Nsg64
(lp4314
g57
(g73
g59
NtRp4315
(dp4316
g62
(dp4317
sg71
g4311
sg64
(lp4318
g57
(g78
g59
NtRp4319
(dp4320
g62
(dp4321
g82
g83
ssg71
g4315
sg64
(lp4322
S'author'
p4323
asbag57
(g78
g59
NtRp4324
(dp4325
g62
(dp4326
g89
g90
ssg71
g4315
sg64
(lp4327
S':'
asbag57
(g78
g59
NtRp4328
(dp4329
g62
(dp4330
sg71
g4315
sg64
(lp4331
g57
(g58
g59
NtRp4332
(dp4333
g62
(dp4334
g70
I4
ssg71
g4328
sg64
(lp4335
S'Diego Miranda'
p4336
asbasbasbag57
(g73
g59
NtRp4337
(dp4338
g62
(dp4339
sg71
g4311
sg64
(lp4340
g57
(g78
g59
NtRp4341
(dp4342
g62
(dp4343
g82
g83
ssg71
g4337
sg64
(lp4344
S'copyright'
p4345
asbag57
(g78
g59
NtRp4346
(dp4347
g62
(dp4348
g89
g90
ssg71
g4337
sg64
(lp4349
S':'
asbag57
(g78
g59
NtRp4350
(dp4351
g62
(dp4352
sg71
g4337
sg64
(lp4353
g57
(g58
g59
NtRp4354
(dp4355
g62
(dp4356
g70
I4
ssg71
g4350
sg64
(lp4357
S'DSMTech Copyright 2012'
p4358
asbasbasbag57
(g73
g59
NtRp4359
(dp4360
g62
(dp4361
sg71
g4311
sg64
(lp4362
g57
(g78
g59
NtRp4363
(dp4364
g62
(dp4365
g82
g83
ssg71
g4359
sg64
(lp4366
S'description'
p4367
asbag57
(g78
g59
NtRp4368
(dp4369
g62
(dp4370
g89
g90
ssg71
g4359
sg64
(lp4371
S':'
asbag57
(g78
g59
NtRp4372
(dp4373
g62
(dp4374
sg71
g4359
sg64
(lp4375
g57
(g58
g59
NtRp4376
(dp4377
g62
(dp4378
g70
I4
ssg71
g4372
sg64
(lp4379
S'App for recycling trash'
p4380
asbasbasbag57
(g73
g59
NtRp4381
(dp4382
g62
(dp4383
sg71
g4311
sg64
(lp4384
g57
(g78
g59
NtRp4385
(dp4386
g62
(dp4387
g82
g83
ssg71
g4381
sg64
(lp4388
S'generator'
p4389
asbag57
(g78
g59
NtRp4390
(dp4391
g62
(dp4392
g89
g90
ssg71
g4381
sg64
(lp4393
S':'
asbag57
(g78
g59
NtRp4394
(dp4395
g62
(dp4396
sg71
g4381
sg64
(lp4397
g57
(g58
g59
NtRp4398
(dp4399
g62
(dp4400
g70
I4
ssg71
g4394
sg64
(lp4401
S'web2py web framework'
p4402
asbasbasbag57
(g73
g59
NtRp4403
(dp4404
g62
(dp4405
sg71
g4311
sg64
(lp4406
g57
(g78
g59
NtRp4407
(dp4408
g62
(dp4409
g82
g83
ssg71
g4403
sg64
(lp4410
S'keywords'
p4411
asbag57
(g78
g59
NtRp4412
(dp4413
g62
(dp4414
g89
g90
ssg71
g4403
sg64
(lp4415
S':'
asbag57
(g78
g59
NtRp4416
(dp4417
g62
(dp4418
sg71
g4403
sg64
(lp4419
g57
(g58
g59
NtRp4420
(dp4421
g62
(dp4422
g70
I4
ssg71
g4416
sg64
(lp4423
S'web2py, python framework'
p4424
asbasbasbasbasbasbasbag57
(g73
g59
NtRp4425
(dp4426
g62
(dp4427
sg71
g3633
sg64
(lp4428
g57
(g78
g59
NtRp4429
(dp4430
g62
(dp4431
g82
g83
ssg71
g4425
sg64
(lp4432
S'models_to_run'
p4433
asbag57
(g78
g59
NtRp4434
(dp4435
g62
(dp4436
g89
g90
ssg71
g4425
sg64
(lp4437
S':'
asbag57
(g78
g59
NtRp4438
(dp4439
g62
(dp4440
sg71
g4425
sg64
(lp4441
g57
(g58
g59
NtRp4442
(dp4443
g62
(dp4444
g70
I5
ssg71
g4438
sg64
(lp4445
g57
(g66
g59
NtRp4446
(dp4447
g62
(dp4448
g70
I4
ssg71
Nsg64
(lp4449
g57
(g73
g59
NtRp4450
(dp4451
g62
(dp4452
sg71
g4446
sg64
(lp4453
g57
(g78
g59
NtRp4454
(dp4455
g62
(dp4456
sg71
g4450
sg64
(lp4457
g57
(g58
g59
NtRp4458
(dp4459
g62
(dp4460
g70
I4
ssg71
g4454
sg64
(lp4461
S'^\\w+\\.py$'
p4462
asbasbasbag57
(g73
g59
NtRp4463
(dp4464
g62
(dp4465
sg71
g4446
sg64
(lp4466
g57
(g78
g59
NtRp4467
(dp4468
g62
(dp4469
sg71
g4463
sg64
(lp4470
g57
(g58
g59
NtRp4471
(dp4472
g62
(dp4473
g70
I4
ssg71
g4467
sg64
(lp4474
S'^default/\\w+\\.py$'
p4475
asbasbasbag57
(g73
g59
NtRp4476
(dp4477
g62
(dp4478
sg71
g4446
sg64
(lp4479
g57
(g78
g59
NtRp4480
(dp4481
g62
(dp4482
sg71
g4476
sg64
(lp4483
g57
(g58
g59
NtRp4484
(dp4485
g62
(dp4486
g70
I4
ssg71
g4480
sg64
(lp4487
S'^default/home/\\w+\\.py$'
p4488
asbasbasbasbasbasbasbag57
(g73
g59
NtRp4489
(dp4490
g62
(dp4491
sg71
g3633
sg64
(lp4492
g57
(g78
g59
NtRp4493
(dp4494
g62
(dp4495
g82
g83
ssg71
g4489
sg64
(lp4496
S'postprocessing'
p4497
asbag57
(g78
g59
NtRp4498
(dp4499
g62
(dp4500
g89
g90
ssg71
g4489
sg64
(lp4501
S':'
asbag57
(g78
g59
NtRp4502
(dp4503
g62
(dp4504
sg71
g4489
sg64
(lp4505
g57
(g58
g59
NtRp4506
(dp4507
g62
(dp4508
g70
I5
ssg71
g4502
sg64
(lp4509
g57
(g66
g59
NtRp4510
(dp4511
g62
(dp4512
g70
I4
ssg71
Nsg64
(lp4513
sbasbasbasbag57
(g73
g59
NtRp4514
(dp4515
g62
(dp4516
sg71
g3633
sg64
(lp4517
g57
(g78
g59
NtRp4518
(dp4519
g62
(dp4520
g82
g83
ssg71
g4514
sg64
(lp4521
S'session_cookie_expires'
p4522
asbag57
(g78
g59
NtRp4523
(dp4524
g62
(dp4525
g89
g90
ssg71
g4514
sg64
(lp4526
S':'
asbag57
(g78
g59
NtRp4527
(dp4528
g62
(dp4529
sg71
g4514
sg64
(lp4530
g57
(g58
g59
NtRp4531
(dp4532
g62
(dp4533
g70
I5
ssg71
g4527
sg64
(lp4534
S'None'
p4535
asbasbasbag57
(g73
g59
NtRp4536
(dp4537
g62
(dp4538
sg71
g3633
sg64
(lp4539
g57
(g78
g59
NtRp4540
(dp4541
g62
(dp4542
g82
g83
ssg71
g4536
sg64
(lp4543
S'session_data_name'
p4544
asbag57
(g78
g59
NtRp4545
(dp4546
g62
(dp4547
g89
g90
ssg71
g4536
sg64
(lp4548
S':'
asbag57
(g78
g59
NtRp4549
(dp4550
g62
(dp4551
sg71
g4536
sg64
(lp4552
g57
(g58
g59
NtRp4553
(dp4554
g62
(dp4555
g70
I5
ssg71
g4549
sg64
(lp4556
S'session_data_irecycle'
p4557
asbasbasbag57
(g73
g59
NtRp4558
(dp4559
g62
(dp4560
sg71
g3633
sg64
(lp4561
g57
(g78
g59
NtRp4562
(dp4563
g62
(dp4564
g82
g83
ssg71
g4558
sg64
(lp4565
S'session_file'
p4566
asbag57
(g78
g59
NtRp4567
(dp4568
g62
(dp4569
g89
g90
ssg71
g4558
sg64
(lp4570
S':'
asbag57
(g78
g59
NtRp4571
(dp4572
g62
(dp4573
sg71
g4558
sg64
(lp4574
g57
(g58
g59
NtRp4575
(dp4576
g62
(dp4577
g70
I5
ssg71
g4571
sg64
(lp4578
S"<open file '/home/diego/web2py/applications/irecycle/sessions/127.0.0.1-52497e39-155c-423e-8fad-ac44f096ff04', mode 'rb+' at 0x7f02f4822db0>"
p4579
asbasbasbag57
(g73
g59
NtRp4580
(dp4581
g62
(dp4582
sg71
g3633
sg64
(lp4583
g57
(g78
g59
NtRp4584
(dp4585
g62
(dp4586
g82
g83
ssg71
g4580
sg64
(lp4587
S'session_filename'
p4588
asbag57
(g78
g59
NtRp4589
(dp4590
g62
(dp4591
g89
g90
ssg71
g4580
sg64
(lp4592
S':'
asbag57
(g78
g59
NtRp4593
(dp4594
g62
(dp4595
sg71
g4580
sg64
(lp4596
g57
(g58
g59
NtRp4597
(dp4598
g62
(dp4599
g70
I5
ssg71
g4593
sg64
(lp4600
S'/home/diego/web2py/applications/irecycle/sessions/127.0.0.1-52497e39-155c-423e-8fad-ac44f096ff04'
p4601
asbasbasbag57
(g73
g59
NtRp4602
(dp4603
g62
(dp4604
sg71
g3633
sg64
(lp4605
g57
(g78
g59
NtRp4606
(dp4607
g62
(dp4608
g82
g83
ssg71
g4602
sg64
(lp4609
S'session_id'
p4610
asbag57
(g78
g59
NtRp4611
(dp4612
g62
(dp4613
g89
g90
ssg71
g4602
sg64
(lp4614
S':'
asbag57
(g78
g59
NtRp4615
(dp4616
g62
(dp4617
sg71
g4602
sg64
(lp4618
g57
(g58
g59
NtRp4619
(dp4620
g62
(dp4621
g70
I5
ssg71
g4615
sg64
(lp4622
g475
asbasbasbag57
(g73
g59
NtRp4623
(dp4624
g62
(dp4625
sg71
g3633
sg64
(lp4626
g57
(g78
g59
NtRp4627
(dp4628
g62
(dp4629
g82
g83
ssg71
g4623
sg64
(lp4630
S'session_id_name'
p4631
asbag57
(g78
g59
NtRp4632
(dp4633
g62
(dp4634
g89
g90
ssg71
g4623
sg64
(lp4635
S':'
asbag57
(g78
g59
NtRp4636
(dp4637
g62
(dp4638
sg71
g4623
sg64
(lp4639
g57
(g58
g59
NtRp4640
(dp4641
g62
(dp4642
g70
I5
ssg71
g4636
sg64
(lp4643
g3690
asbasbasbag57
(g73
g59
NtRp4644
(dp4645
g62
(dp4646
sg71
g3633
sg64
(lp4647
g57
(g78
g59
NtRp4648
(dp4649
g62
(dp4650
g82
g83
ssg71
g4644
sg64
(lp4651
S'session_locked'
p4652
asbag57
(g78
g59
NtRp4653
(dp4654
g62
(dp4655
g89
g90
ssg71
g4644
sg64
(lp4656
S':'
asbag57
(g78
g59
NtRp4657
(dp4658
g62
(dp4659
sg71
g4644
sg64
(lp4660
g57
(g58
g59
NtRp4661
(dp4662
g62
(dp4663
g70
I5
ssg71
g4657
sg64
(lp4664
g1627
asbasbasbag57
(g73
g59
NtRp4665
(dp4666
g62
(dp4667
sg71
g3633
sg64
(lp4668
g57
(g78
g59
NtRp4669
(dp4670
g62
(dp4671
g82
g83
ssg71
g4665
sg64
(lp4672
S'session_new'
p4673
asbag57
(g78
g59
NtRp4674
(dp4675
g62
(dp4676
g89
g90
ssg71
g4665
sg64
(lp4677
S':'
asbag57
(g78
g59
NtRp4678
(dp4679
g62
(dp4680
sg71
g4665
sg64
(lp4681
g57
(g58
g59
NtRp4682
(dp4683
g62
(dp4684
g70
I5
ssg71
g4678
sg64
(lp4685
g100
asbasbasbag57
(g73
g59
NtRp4686
(dp4687
g62
(dp4688
sg71
g3633
sg64
(lp4689
g57
(g78
g59
NtRp4690
(dp4691
g62
(dp4692
g82
g83
ssg71
g4686
sg64
(lp4693
S'session_storage_type'
p4694
asbag57
(g78
g59
NtRp4695
(dp4696
g62
(dp4697
g89
g90
ssg71
g4686
sg64
(lp4698
S':'
asbag57
(g78
g59
NtRp4699
(dp4700
g62
(dp4701
sg71
g4686
sg64
(lp4702
g57
(g58
g59
NtRp4703
(dp4704
g62
(dp4705
g70
I5
ssg71
g4699
sg64
(lp4706
g3100
asbasbasbag57
(g73
g59
NtRp4707
(dp4708
g62
(dp4709
sg71
g3633
sg64
(lp4710
g57
(g78
g59
NtRp4711
(dp4712
g62
(dp4713
g82
g83
ssg71
g4707
sg64
(lp4714
S'status'
p4715
asbag57
(g78
g59
NtRp4716
(dp4717
g62
(dp4718
g89
g90
ssg71
g4707
sg64
(lp4719
S':'
asbag57
(g78
g59
NtRp4720
(dp4721
g62
(dp4722
sg71
g4707
sg64
(lp4723
g57
(g58
g59
NtRp4724
(dp4725
g62
(dp4726
g70
I5
ssg71
g4720
sg64
(lp4727
S'200'
p4728
asbasbasbag57
(g73
g59
NtRp4729
(dp4730
g62
(dp4731
sg71
g3633
sg64
(lp4732
g57
(g78
g59
NtRp4733
(dp4734
g62
(dp4735
g82
g83
ssg71
g4729
sg64
(lp4736
S'subtitle'
p4737
asbag57
(g78
g59
NtRp4738
(dp4739
g62
(dp4740
g89
g90
ssg71
g4729
sg64
(lp4741
S':'
asbag57
(g78
g59
NtRp4742
(dp4743
g62
(dp4744
sg71
g4729
sg64
(lp4745
g57
(g58
g59
NtRp4746
(dp4747
g62
(dp4748
g70
I5
ssg71
g4742
sg64
(lp4749
g4101
(S't\t\x00\x00\x00EuReciclo'
tRp4750
asbasbasbag57
(g73
g59
NtRp4751
(dp4752
g62
(dp4753
sg71
g3633
sg64
(lp4754
g57
(g78
g59
NtRp4755
(dp4756
g62
(dp4757
g82
g83
ssg71
g4751
sg64
(lp4758
S'title'
p4759
asbag57
(g78
g59
NtRp4760
(dp4761
g62
(dp4762
g89
g90
ssg71
g4751
sg64
(lp4763
S':'
asbag57
(g78
g59
NtRp4764
(dp4765
g62
(dp4766
sg71
g4751
sg64
(lp4767
g57
(g58
g59
NtRp4768
(dp4769
g62
(dp4770
g70
I5
ssg71
g4764
sg64
(lp4771
S'EuReciclo'
p4772
asbasbasbag57
(g73
g59
NtRp4773
(dp4774
g62
(dp4775
sg71
g3633
sg64
(lp4776
g57
(g78
g59
NtRp4777
(dp4778
g62
(dp4779
g82
g83
ssg71
g4773
sg64
(lp4780
S'view'
p4781
asbag57
(g78
g59
NtRp4782
(dp4783
g62
(dp4784
g89
g90
ssg71
g4773
sg64
(lp4785
S':'
asbag57
(g78
g59
NtRp4786
(dp4787
g62
(dp4788
sg71
g4773
sg64
(lp4789
g57
(g58
g59
NtRp4790
(dp4791
g62
(dp4792
g70
I5
ssg71
g4786
sg64
(lp4793
S'default/home.html'
p4794
asbasbasbasbasbsS'locals'
p4795
(dp4796
S'posts'
p4797
S'<Rows (1)>'
p4798
sS'friends'
p4799
S'[1]'
p4800
sS'form'
p4801
S'<gluon.sqlhtml.SQLFORM object>'
p4802
sssS'traceback'
p4803
S'Traceback (most recent call last):\n  File "/home/diego/web2py/gluon/restricted.py", line 212, in restricted\n    exec ccode in environment\n  File "/home/diego/web2py/applications/irecycle/controllers/default.py", line 138, in <module>\n  File "/home/diego/web2py/gluon/globals.py", line 193, in <lambda>\n    self._caller = lambda f: f()\n  File "/home/diego/web2py/gluon/tools.py", line 2929, in f\n    return action(*a, **b)\n  File "/home/diego/web2py/applications/irecycle/controllers/default.py", line 74, in home\n    for post in user:\nTypeError: \'function\' object is not iterable\n'
p4804
s.