(dp1
S'output'
p2
S"<type 'exceptions.NameError'> name 'user' is not defined"
p3
sS'layer'
p4
S'/home/diego/web2py/applications/irecycle/views/default/home.html'
p5
sS'code'
p6
S'response.write(\'\\n\\n\\n\\n\\n<!DOCTYPE html>\\n<html lang="en">\\n  <head>\\n\\t<meta charset="utf-8">\\n\\t<title>\', escape=False)\nresponse.write(response.title)\nresponse.write(\'</title>\\n\\t<meta name="viewport" content="width=device-width, initial-scale=1.0">\\n\\t<meta name="description" content="">\\n\\t<meta name="author" content="">\\n\\n\\t<!-- Le styles -->\\n\\n\\t<link href="\', escape=False)\nresponse.write(URL(\'static\',\'bootstrap/css/bootstrap.css\'))\nresponse.write(\'" rel="stylesheet">\\n\\t<link href="\', escape=False)\nresponse.write(URL(\'static\',\'bootstrap/css/responsive-bootstrap.css\'))\nresponse.write(\'" rel="stylesheet">\\n\\t\\n\\n\\t\', escape=False)\nresponse.write(\'<script type="text/javascript"><!--\\n    // These variables are used by the web2py_ajax_init function in web2py_ajax.js (which is loaded below).\\n    var w2p_ajax_confirm_message = "\', escape=False)\nresponse.write(T(\'Are you sure you want to delete this object?\'))\nresponse.write(\'";\\n    var w2p_ajax_date_format = "\', escape=False)\nresponse.write(T(\'%Y-%m-%d\'))\nresponse.write(\'";\\n    var w2p_ajax_datetime_format = "\', escape=False)\nresponse.write(T(\'%Y-%m-%d %H:%M:%S\'))\nresponse.write(\'";\\n    //--></script>\\n\', escape=False)\nresponse.files.insert(0,URL(\'static\',\'js/jquery.js\'))\nresponse.files.insert(1,URL(\'static\',\'css/calendar.css\'))\nresponse.files.insert(2,URL(\'static\',\'js/calendar.js\'))\nresponse.files.insert(3,URL(\'static\',\'js/web2py.js\'))\nresponse.include_meta()\nresponse.include_files()\nresponse.write(\'\\n\', escape=False)\nresponse.write(\'\\n\\n\\n\\t<style type="text/css">\\n\\t/* NAVBAR\\n\\t-------------------------------------------------- */\\n\\n\\t/* Special class on .container surrounding .navbar, used for positioning it into place. */\\n\\t.navbar-wrapper {\\n\\t  position: absolute;\\n\\t  top: 0;\\n\\t  left: 0;\\n\\t  right: 0;\\n\\t  z-index: 10;\\n\\t  margin-top: 20px;\\n\\t  margin-bottom: -90px; /* Negative margin to pull up carousel. 90px is roughly margins and height of navbar. */\\n\\t}\\n\\t.navbar-wrapper .navbar {\\n\\n\\t}\\n\\n\\t/* Remove border and change up box shadow for more contrast */\\n\\t.navbar .navbar-inner {\\n\\t  border: 0;\\n\\t  -webkit-box-shadow: 0 2px 10px rgba(0,0,0,.25);\\n\\t\\t -moz-box-shadow: 0 2px 10px rgba(0,0,0,.25);\\n\\t\\t\\t  box-shadow: 0 2px 10px rgba(0,0,0,.25);\\n\\t}\\n\\n\\t/* Downsize the brand/project name a bit */\\n\\t.navbar .brand {\\n\\t  padding: 14px 20px 16px; /* Increase vertical padding to match navbar links */\\n\\t  font-size: 16px;\\n\\t  font-weight: bold;\\n\\t  text-shadow: 0 -1px 0 rgba(0,0,0,.5);\\n\\t}\\n\\n\\t/* Navbar links: increase padding for taller navbar */\\n\\t.navbar .nav > li > a {\\n\\t  padding: 15px 20px;\\n\\t}\\n\\n\\t/* Offset the responsive button for proper vertical alignment */\\n\\t.navbar .btn-navbar {\\n\\t  margin-top: 10px;\\n\\t}\\n\\n\\n\\n\\t/* NAVBAR\\n\\t-------------------------------------------------- */\\n\\n\\t  body {\\n\\t\\tpadding-top: 20px;\\n\\t\\tpadding-bottom: 40px;\\n\\t  }\\n\\n\\t  /* Custom container */\\n\\t  .container-narrow {\\n\\t\\tmargin: 0 auto;\\n\\t\\tmax-width: 700px;\\n\\t  }\\n\\t  .container-narrow > hr {\\n\\t\\tmargin: 30px 0;\\n\\t  }\\n\\n\\t  /* Main marketing message and sign up button */\\n\\t  .jumbotron {\\n\\t\\tmargin: 60px 0;\\n\\t\\ttext-align: center;\\n\\t  }\\n\\t  .jumbotron h1 {\\n\\t\\tfont-size: 72px;\\n\\t\\tline-height: 1;\\n\\t  }\\n\\t  .jumbotron .btn {\\n\\t\\tfont-size: 21px;\\n\\t\\tpadding: 14px 24px;\\n\\t  }\\n\\n\\t  /* Supporting marketing content */\\n\\t  .marketing {\\n\\t\\tmargin: 60px 0;\\n\\t  }\\n\\t  .marketing p + h4 {\\n\\t\\tmargin-top: 28px;\\n\\t  }\\n\\t</style>\\n\\t<link href="../assets/css/bootstrap-responsive.css" rel="stylesheet">\\n\\n\\t<!-- HTML5 shim, for IE6-8 support of HTML5 elements -->\\n\\t<!--[if lt IE 9]>\\n\\t  <script src="http://html5shim.googlecode.com/svn/trunk/html5.js"></script>\\n\\t<![endif]-->\\n\\n\\n  </head>\\n\\n  <body>\\n\\n\\t<div class="container-narrow">\\n\\n\\n\\t<div class="navbar navbar-inverse navbar-fixed-top">\\n\\t  <div class="navbar-inner">\\n\\t\\t<div class="container-fluid">\\n\\t\\t  <a class="btn btn-navbar" data-toggle="collapse" data-target=".nav-collapse">\\n\\t\\t\\t<span class="icon-bar"></span>\\n\\t\\t  </a>\\n\\t\\t  <a class="brand" href="#">\', escape=False)\nresponse.write(response.title)\nresponse.write(\'</a>\\n\\t\\t  <div class="nav-collapse collapse">\\n\\t\\t\\t<p class="navbar-text pull-right">\\n\\t\\t\\t  \', escape=False)\nresponse.write(\'auth\' in globals() and auth.navbar(separators=(\' \',\' | \',\'\')))\nresponse.write(\'\\n\\t\\t\\t  <!-- Logged in as <a href="#" class="navbar-link">Username</a> -->\\n\\t\\t\\t</p>\\n\\t\\t\\t<ul class="nav">\\n\\t\\t\\t  <li class="active"><a href="\', escape=False)\nresponse.write(URL(\'index\'))\nresponse.write(\'">Home</a></li>\\n\\t\\t\\t  <li><a href="\', escape=False)\nresponse.write(URL(\'wall\'))\nresponse.write(\'">Wall</a></li>\\n\\t\\t\\t  <li><a href="\', escape=False)\nresponse.write(URL(\'friends\'))\nresponse.write(\'">Friends</a></li>\\n\\t\\t\\t  <li><a href="\', escape=False)\nresponse.write(URL(\'search\'))\nresponse.write(\'">Search</a></li>\\n\\t\\t\\t</ul>\\n\\t\\t  </div><!--/.nav-collapse -->\\n\\t\\t</div>\\n\\t  </div>\\n\\t</div>\\n\\n\\t<hr>\\n\\n\\t<h2>Ol\\xc3\\xa1  \', escape=False)\nresponse.write(user.name)\nresponse.write(\'</h2>\\n\\t\\n\\t\', escape=False)\nresponse.write(form)\nresponse.write("\\n\\t<script>jQuery(\'textarea\').css(\'width\',\'600px\').css(\'height\',\'50px\');</script>\\n\\t", escape=False)\nfor post in posts:\n    response.write(\'\\n\\t<div style="background: #f0f0f0; margin-bottom: 5px; padding: 8px;">\\n\\t\\t<h3>\', escape=False)\n    response.write(name_of(post.posted_by))\n    response.write(\' on \', escape=False)\n    response.write(post.posted_on)\n    response.write(\':</h3>\\n\\t\\t\', escape=False)\n    response.write(MARKMIN(post.body))\n    response.write(\'\\n\\t</div>\\n\\t\', escape=False)\n    pass\nresponse.write(\'\\n\\t</div><!--/span-->\\n\\n\\t  \\n\\t  <hr>\\n\\n  <div class="footer">\\n\\t<div class="container">    \\n\\t  <div class="sixteen columns">\\n\\t\\t\', escape=False)\nresponse.write(\' <!-- this is default footer -->\\n\\t\\t<div class="footer-content clearfix">\\n\\t\\t  <div class="copyright">\', escape=False)\nresponse.write(response.meta.copyright)\nresponse.write(\'</div>\\n\\t\\t</div>\\n\\t\\t\', escape=False)\nresponse.write(\' \\n\\t  </div>\\n\\t</div><!-- container -->\\n  </div><!-- footer -->\\n\\n\\t</div> <!-- /container -->\\n\\n\\t<!-- Le javascript\\n\\t================================================== -->\\n\\t<!-- Placed at the end of the document so the pages load faster -->\\n\\t<script src="../static/bootstrap/js/bootstrap.js"></script>\\n\\t<script src="../static/bootstrap/js/bootstrap.min.js"></script>\\n\\n\\n  </body>\\n</html>\\n\\n\\n\\n\\n\\n\', escape=False)'
p7
sS'snapshot'
p8
(dp9
S'exception'
p10
(dp11
S'__hash__'
p12
S"<method-wrapper '__hash__' of exceptions.NameError object>"
p13
sS'__setattr__'
p14
S"<method-wrapper '__setattr__' of exceptions.NameError object>"
p15
sS'__reduce_ex__'
p16
S'<built-in method __reduce_ex__ of exceptions.NameError object>'
p17
sS'__getslice__'
p18
S"<method-wrapper '__getslice__' of exceptions.NameError object>"
p19
sS'__getitem__'
p20
S"<method-wrapper '__getitem__' of exceptions.NameError object>"
p21
sS'__setstate__'
p22
S'<built-in method __setstate__ of exceptions.NameError object>'
p23
sS'args'
p24
S'("name \'user\' is not defined",)'
p25
sS'__reduce__'
p26
S'<built-in method __reduce__ of exceptions.NameError object>'
p27
sS'__str__'
p28
S"<method-wrapper '__str__' of exceptions.NameError object>"
p29
sS'__format__'
p30
S'<built-in method __format__ of exceptions.NameError object>'
p31
sS'__getattribute__'
p32
S"<method-wrapper '__getattribute__' of exceptions.NameError object>"
p33
sS'__class__'
p34
S"<type 'exceptions.NameError'>"
p35
sS'__unicode__'
p36
S'<built-in method __unicode__ of exceptions.NameError object>'
p37
sS'__delattr__'
p38
S"<method-wrapper '__delattr__' of exceptions.NameError object>"
p39
sS'__subclasshook__'
p40
S'<built-in method __subclasshook__ of type object>'
p41
sS'__repr__'
p42
S"<method-wrapper '__repr__' of exceptions.NameError object>"
p43
sS'__dict__'
p44
S'{}'
p45
sS'__sizeof__'
p46
S'<built-in method __sizeof__ of exceptions.NameError object>'
p47
sS'__doc__'
p48
S"'Name not found globally.'"
p49
sS'__init__'
p50
S"<method-wrapper '__init__' of exceptions.NameError object>"
p51
sS'__new__'
p52
S'<built-in method __new__ of type object>'
p53
ssS'evalue'
p54
S"name 'user' is not defined"
p55
sS'request'
p56
ccopy_reg
_reconstructor
p57
(cgluon.html
BEAUTIFY
p58
c__builtin__
object
p59
NtRp60
(dp61
S'attributes'
p62
(dp63
sS'components'
p64
(lp65
g57
(cgluon.html
TABLE
p66
g59
NtRp67
(dp68
g62
(dp69
S'level'
p70
I5
ssS'parent'
p71
Nsg64
(lp72
g57
(cgluon.html
TR
p73
g59
NtRp74
(dp75
g62
(dp76
sg71
g67
sg64
(lp77
g57
(cgluon.html
TD
p78
g59
NtRp79
(dp80
g62
(dp81
S'_style'
p82
S'font-weight:bold;vertical-align:top'
p83
ssg71
g74
sg64
(lp84
S'ajax'
p85
asbag57
(g78
g59
NtRp86
(dp87
g62
(dp88
S'_valign'
p89
S'top'
p90
ssg71
g74
sg64
(lp91
S':'
asbag57
(g78
g59
NtRp92
(dp93
g62
(dp94
sg71
g74
sg64
(lp95
g57
(g58
g59
NtRp96
(dp97
g62
(dp98
g70
I5
ssg71
g92
sg64
(lp99
S'False'
p100
asbasbasbag57
(g73
g59
NtRp101
(dp102
g62
(dp103
sg71
g67
sg64
(lp104
g57
(g78
g59
NtRp105
(dp106
g62
(dp107
g82
g83
ssg71
g101
sg64
(lp108
S'application'
p109
asbag57
(g78
g59
NtRp110
(dp111
g62
(dp112
g89
g90
ssg71
g101
sg64
(lp113
S':'
asbag57
(g78
g59
NtRp114
(dp115
g62
(dp116
sg71
g101
sg64
(lp117
g57
(g58
g59
NtRp118
(dp119
g62
(dp120
g70
I5
ssg71
g114
sg64
(lp121
S'irecycle'
p122
asbasbasbag57
(g73
g59
NtRp123
(dp124
g62
(dp125
sg71
g67
sg64
(lp126
g57
(g78
g59
NtRp127
(dp128
g62
(dp129
g82
g83
ssg71
g123
sg64
(lp130
g24
asbag57
(g78
g59
NtRp131
(dp132
g62
(dp133
g89
g90
ssg71
g123
sg64
(lp134
S':'
asbag57
(g78
g59
NtRp135
(dp136
g62
(dp137
sg71
g123
sg64
(lp138
g57
(g58
g59
NtRp139
(dp140
g62
(dp141
g70
I5
ssg71
g135
sg64
(lp142
g57
(g66
g59
NtRp143
(dp144
g62
(dp145
g70
I4
ssg71
Nsg64
(lp146
sbasbasbasbag57
(g73
g59
NtRp147
(dp148
g62
(dp149
sg71
g67
sg64
(lp150
g57
(g78
g59
NtRp151
(dp152
g62
(dp153
g82
g83
ssg71
g147
sg64
(lp154
S'body'
p155
asbag57
(g78
g59
NtRp156
(dp157
g62
(dp158
g89
g90
ssg71
g147
sg64
(lp159
S':'
asbag57
(g78
g59
NtRp160
(dp161
g62
(dp162
sg71
g147
sg64
(lp163
g57
(g58
g59
NtRp164
(dp165
g62
(dp166
g70
I5
ssg71
g160
sg64
(lp167
S'<cStringIO.StringO object at 0x7fbdf00bb3e8>'
p168
asbasbasbag57
(g73
g59
NtRp169
(dp170
g62
(dp171
sg71
g67
sg64
(lp172
g57
(g78
g59
NtRp173
(dp174
g62
(dp175
g82
g83
ssg71
g169
sg64
(lp176
S'cid'
p177
asbag57
(g78
g59
NtRp178
(dp179
g62
(dp180
g89
g90
ssg71
g169
sg64
(lp181
S':'
asbag57
(g78
g59
NtRp182
(dp183
g62
(dp184
sg71
g169
sg64
(lp185
g57
(g58
g59
NtRp186
(dp187
g62
(dp188
g70
I5
ssg71
g182
sg64
(lp189
S'None'
p190
asbasbasbag57
(g73
g59
NtRp191
(dp192
g62
(dp193
sg71
g67
sg64
(lp194
g57
(g78
g59
NtRp195
(dp196
g62
(dp197
g82
g83
ssg71
g191
sg64
(lp198
S'client'
p199
asbag57
(g78
g59
NtRp200
(dp201
g62
(dp202
g89
g90
ssg71
g191
sg64
(lp203
S':'
asbag57
(g78
g59
NtRp204
(dp205
g62
(dp206
sg71
g191
sg64
(lp207
g57
(g58
g59
NtRp208
(dp209
g62
(dp210
g70
I5
ssg71
g204
sg64
(lp211
S'127.0.0.1'
p212
asbasbasbag57
(g73
g59
NtRp213
(dp214
g62
(dp215
sg71
g67
sg64
(lp216
g57
(g78
g59
NtRp217
(dp218
g62
(dp219
g82
g83
ssg71
g213
sg64
(lp220
S'controller'
p221
asbag57
(g78
g59
NtRp222
(dp223
g62
(dp224
g89
g90
ssg71
g213
sg64
(lp225
S':'
asbag57
(g78
g59
NtRp226
(dp227
g62
(dp228
sg71
g213
sg64
(lp229
g57
(g58
g59
NtRp230
(dp231
g62
(dp232
g70
I5
ssg71
g226
sg64
(lp233
S'default'
p234
asbasbasbag57
(g73
g59
NtRp235
(dp236
g62
(dp237
sg71
g67
sg64
(lp238
g57
(g78
g59
NtRp239
(dp240
g62
(dp241
g82
g83
ssg71
g235
sg64
(lp242
S'cookies'
p243
asbag57
(g78
g59
NtRp244
(dp245
g62
(dp246
g89
g90
ssg71
g235
sg64
(lp247
S':'
asbag57
(g78
g59
NtRp248
(dp249
g62
(dp250
sg71
g235
sg64
(lp251
g57
(g58
g59
NtRp252
(dp253
g62
(dp254
g70
I5
ssg71
g248
sg64
(lp255
g57
(g66
g59
NtRp256
(dp257
g62
(dp258
g70
I4
ssg71
Nsg64
(lp259
g57
(g73
g59
NtRp260
(dp261
g62
(dp262
sg71
g256
sg64
(lp263
g57
(g78
g59
NtRp264
(dp265
g62
(dp266
g82
g83
ssg71
g260
sg64
(lp267
S'session_id_irecycle'
p268
asbag57
(g78
g59
NtRp269
(dp270
g62
(dp271
g89
g90
ssg71
g260
sg64
(lp272
S':'
asbag57
(g78
g59
NtRp273
(dp274
g62
(dp275
sg71
g260
sg64
(lp276
g57
(g58
g59
NtRp277
(dp278
g62
(dp279
g70
I4
ssg71
g273
sg64
(lp280
S'127.0.0.1-10f67e0b-8b95-4045-9f3c-2e1e4dff1c83'
p281
ag57
(g66
g59
NtRp282
(dp283
g62
(dp284
g70
I3
ssg71
Nsg64
(lp285
g57
(g73
g59
NtRp286
(dp287
g62
(dp288
sg71
g282
sg64
(lp289
g57
(g78
g59
NtRp290
(dp291
g62
(dp292
g82
g83
ssg71
g286
sg64
(lp293
S'comment'
p294
asbag57
(g78
g59
NtRp295
(dp296
g62
(dp297
g89
g90
ssg71
g286
sg64
(lp298
S':'
asbag57
(g78
g59
NtRp299
(dp300
g62
(dp301
sg71
g286
sg64
(lp302
g57
(g58
g59
NtRp303
(dp304
g62
(dp305
g70
I3
ssg71
g299
sg64
(lp306
S''
asbasbasbag57
(g73
g59
NtRp307
(dp308
g62
(dp309
sg71
g282
sg64
(lp310
g57
(g78
g59
NtRp311
(dp312
g62
(dp313
g82
g83
ssg71
g307
sg64
(lp314
S'domain'
p315
asbag57
(g78
g59
NtRp316
(dp317
g62
(dp318
g89
g90
ssg71
g307
sg64
(lp319
S':'
asbag57
(g78
g59
NtRp320
(dp321
g62
(dp322
sg71
g307
sg64
(lp323
g57
(g58
g59
NtRp324
(dp325
g62
(dp326
g70
I3
ssg71
g320
sg64
(lp327
S''
asbasbasbag57
(g73
g59
NtRp328
(dp329
g62
(dp330
sg71
g282
sg64
(lp331
g57
(g78
g59
NtRp332
(dp333
g62
(dp334
g82
g83
ssg71
g328
sg64
(lp335
S'expires'
p336
asbag57
(g78
g59
NtRp337
(dp338
g62
(dp339
g89
g90
ssg71
g328
sg64
(lp340
S':'
asbag57
(g78
g59
NtRp341
(dp342
g62
(dp343
sg71
g328
sg64
(lp344
g57
(g58
g59
NtRp345
(dp346
g62
(dp347
g70
I3
ssg71
g341
sg64
(lp348
S''
asbasbasbag57
(g73
g59
NtRp349
(dp350
g62
(dp351
sg71
g282
sg64
(lp352
g57
(g78
g59
NtRp353
(dp354
g62
(dp355
g82
g83
ssg71
g349
sg64
(lp356
S'httponly'
p357
asbag57
(g78
g59
NtRp358
(dp359
g62
(dp360
g89
g90
ssg71
g349
sg64
(lp361
S':'
asbag57
(g78
g59
NtRp362
(dp363
g62
(dp364
sg71
g349
sg64
(lp365
g57
(g58
g59
NtRp366
(dp367
g62
(dp368
g70
I3
ssg71
g362
sg64
(lp369
S''
asbasbasbag57
(g73
g59
NtRp370
(dp371
g62
(dp372
sg71
g282
sg64
(lp373
g57
(g78
g59
NtRp374
(dp375
g62
(dp376
g82
g83
ssg71
g370
sg64
(lp377
S'max-age'
p378
asbag57
(g78
g59
NtRp379
(dp380
g62
(dp381
g89
g90
ssg71
g370
sg64
(lp382
S':'
asbag57
(g78
g59
NtRp383
(dp384
g62
(dp385
sg71
g370
sg64
(lp386
g57
(g58
g59
NtRp387
(dp388
g62
(dp389
g70
I3
ssg71
g383
sg64
(lp390
S''
asbasbasbag57
(g73
g59
NtRp391
(dp392
g62
(dp393
sg71
g282
sg64
(lp394
g57
(g78
g59
NtRp395
(dp396
g62
(dp397
g82
g83
ssg71
g391
sg64
(lp398
S'path'
p399
asbag57
(g78
g59
NtRp400
(dp401
g62
(dp402
g89
g90
ssg71
g391
sg64
(lp403
S':'
asbag57
(g78
g59
NtRp404
(dp405
g62
(dp406
sg71
g391
sg64
(lp407
g57
(g58
g59
NtRp408
(dp409
g62
(dp410
g70
I3
ssg71
g404
sg64
(lp411
S''
asbasbasbag57
(g73
g59
NtRp412
(dp413
g62
(dp414
sg71
g282
sg64
(lp415
g57
(g78
g59
NtRp416
(dp417
g62
(dp418
g82
g83
ssg71
g412
sg64
(lp419
S'secure'
p420
asbag57
(g78
g59
NtRp421
(dp422
g62
(dp423
g89
g90
ssg71
g412
sg64
(lp424
S':'
asbag57
(g78
g59
NtRp425
(dp426
g62
(dp427
sg71
g412
sg64
(lp428
g57
(g58
g59
NtRp429
(dp430
g62
(dp431
g70
I3
ssg71
g425
sg64
(lp432
S''
asbasbasbag57
(g73
g59
NtRp433
(dp434
g62
(dp435
sg71
g282
sg64
(lp436
g57
(g78
g59
NtRp437
(dp438
g62
(dp439
g82
g83
ssg71
g433
sg64
(lp440
S'version'
p441
asbag57
(g78
g59
NtRp442
(dp443
g62
(dp444
g89
g90
ssg71
g433
sg64
(lp445
S':'
asbag57
(g78
g59
NtRp446
(dp447
g62
(dp448
sg71
g433
sg64
(lp449
g57
(g58
g59
NtRp450
(dp451
g62
(dp452
g70
I3
ssg71
g446
sg64
(lp453
S''
asbasbasbasbasbasbasbasbasbasbasbag57
(g73
g59
NtRp454
(dp455
g62
(dp456
sg71
g67
sg64
(lp457
g57
(g78
g59
NtRp458
(dp459
g62
(dp460
g82
g83
ssg71
g454
sg64
(lp461
S'env'
p462
asbag57
(g78
g59
NtRp463
(dp464
g62
(dp465
g89
g90
ssg71
g454
sg64
(lp466
S':'
asbag57
(g78
g59
NtRp467
(dp468
g62
(dp469
sg71
g454
sg64
(lp470
g57
(g58
g59
NtRp471
(dp472
g62
(dp473
g70
I5
ssg71
g467
sg64
(lp474
g57
(g66
g59
NtRp475
(dp476
g62
(dp477
g70
I4
ssg71
Nsg64
(lp478
g57
(g73
g59
NtRp479
(dp480
g62
(dp481
sg71
g475
sg64
(lp482
g57
(g78
g59
NtRp483
(dp484
g62
(dp485
g82
g83
ssg71
g479
sg64
(lp486
S'app_folders'
p487
asbag57
(g78
g59
NtRp488
(dp489
g62
(dp490
g89
g90
ssg71
g479
sg64
(lp491
S':'
asbag57
(g78
g59
NtRp492
(dp493
g62
(dp494
sg71
g479
sg64
(lp495
g57
(g58
g59
NtRp496
(dp497
g62
(dp498
g70
I4
ssg71
g492
sg64
(lp499
S"set(['/home/diego/web2py/applications/irecycle/'])"
p500
asbasbasbag57
(g73
g59
NtRp501
(dp502
g62
(dp503
sg71
g475
sg64
(lp504
g57
(g78
g59
NtRp505
(dp506
g62
(dp507
g82
g83
ssg71
g501
sg64
(lp508
S'applications_parent'
p509
asbag57
(g78
g59
NtRp510
(dp511
g62
(dp512
g89
g90
ssg71
g501
sg64
(lp513
S':'
asbag57
(g78
g59
NtRp514
(dp515
g62
(dp516
sg71
g501
sg64
(lp517
g57
(g58
g59
NtRp518
(dp519
g62
(dp520
g70
I4
ssg71
g514
sg64
(lp521
S'/home/diego/web2py'
p522
asbasbasbag57
(g73
g59
NtRp523
(dp524
g62
(dp525
sg71
g475
sg64
(lp526
g57
(g78
g59
NtRp527
(dp528
g62
(dp529
g82
g83
ssg71
g523
sg64
(lp530
S'cmd_args'
p531
asbag57
(g78
g59
NtRp532
(dp533
g62
(dp534
g89
g90
ssg71
g523
sg64
(lp535
S':'
asbag57
(g78
g59
NtRp536
(dp537
g62
(dp538
sg71
g523
sg64
(lp539
g57
(g58
g59
NtRp540
(dp541
g62
(dp542
g70
I4
ssg71
g536
sg64
(lp543
g57
(g66
g59
NtRp544
(dp545
g62
(dp546
g70
I3
ssg71
Nsg64
(lp547
sbasbasbasbag57
(g73
g59
NtRp548
(dp549
g62
(dp550
sg71
g475
sg64
(lp551
g57
(g78
g59
NtRp552
(dp553
g62
(dp554
g82
g83
ssg71
g548
sg64
(lp555
S'cmd_options'
p556
asbag57
(g78
g59
NtRp557
(dp558
g62
(dp559
g89
g90
ssg71
g548
sg64
(lp560
S':'
asbag57
(g78
g59
NtRp561
(dp562
g62
(dp563
sg71
g548
sg64
(lp564
g57
(g58
g59
NtRp565
(dp566
g62
(dp567
g70
I4
ssg71
g561
sg64
(lp568
S"<Values at 0x2bde488: {'verbose': False, 'ip': '127.0.0.1', 'with_scheduler': False, 'ips': ['172.30.6.210'], 'shutdown_timeout': 5, 'taskbar': False, 'port': 8000, 'maxthreads': None, 'softcron': False, 'server_name': 'madagascar', 'bpython': False, 'nogui': False, 'pid_filename': 'httpserver.pid', 'extcron': False, 'runcron': False, 'run_system_tests': False, 'test': None, 'folder': '/home/diego/web2py', 'config': '', 'minthreads': None, 'winservice': '', 'shell': None, 'run': '', 'log_filename': 'httpserver.log', 'debuglevel': 30, 'args': [''], 'socket_timeout': 5, 'ssl_ca_certificate': None, 'scheduler': None, 'profiler_filename': None, 'ssl_private_key': '', 'scheduler_groups': None, 'password': '1234', 'request_queue_size': 5, 'ssl_certificate': '', 'cronjob': False, 'numthreads': None, 'quiet': False, 'interfaces': None, 'import_models': False, 'timeout': 10, 'plain': False, 'nobanner': False}>"
p569
asbasbasbag57
(g73
g59
NtRp570
(dp571
g62
(dp572
sg71
g475
sg64
(lp573
g57
(g78
g59
NtRp574
(dp575
g62
(dp576
g82
g83
ssg71
g570
sg64
(lp577
S'db_sessions'
p578
asbag57
(g78
g59
NtRp579
(dp580
g62
(dp581
g89
g90
ssg71
g570
sg64
(lp582
S':'
asbag57
(g78
g59
NtRp583
(dp584
g62
(dp585
sg71
g570
sg64
(lp586
g57
(g58
g59
NtRp587
(dp588
g62
(dp589
g70
I4
ssg71
g583
sg64
(lp590
S'set([])'
p591
asbasbasbag57
(g73
g59
NtRp592
(dp593
g62
(dp594
sg71
g475
sg64
(lp595
g57
(g78
g59
NtRp596
(dp597
g62
(dp598
g82
g83
ssg71
g592
sg64
(lp599
S'debugging'
p600
asbag57
(g78
g59
NtRp601
(dp602
g62
(dp603
g89
g90
ssg71
g592
sg64
(lp604
S':'
asbag57
(g78
g59
NtRp605
(dp606
g62
(dp607
sg71
g592
sg64
(lp608
g57
(g58
g59
NtRp609
(dp610
g62
(dp611
g70
I4
ssg71
g605
sg64
(lp612
g100
asbasbasbag57
(g73
g59
NtRp613
(dp614
g62
(dp615
sg71
g475
sg64
(lp616
g57
(g78
g59
NtRp617
(dp618
g62
(dp619
g82
g83
ssg71
g613
sg64
(lp620
S'gluon_parent'
p621
asbag57
(g78
g59
NtRp622
(dp623
g62
(dp624
g89
g90
ssg71
g613
sg64
(lp625
S':'
asbag57
(g78
g59
NtRp626
(dp627
g62
(dp628
sg71
g613
sg64
(lp629
g57
(g58
g59
NtRp630
(dp631
g62
(dp632
g70
I4
ssg71
g626
sg64
(lp633
S'/home/diego/web2py'
p634
asbasbasbag57
(g73
g59
NtRp635
(dp636
g62
(dp637
sg71
g475
sg64
(lp638
g57
(g78
g59
NtRp639
(dp640
g62
(dp641
g82
g83
ssg71
g635
sg64
(lp642
S'http_accept'
p643
asbag57
(g78
g59
NtRp644
(dp645
g62
(dp646
g89
g90
ssg71
g635
sg64
(lp647
S':'
asbag57
(g78
g59
NtRp648
(dp649
g62
(dp650
sg71
g635
sg64
(lp651
g57
(g58
g59
NtRp652
(dp653
g62
(dp654
g70
I4
ssg71
g648
sg64
(lp655
S'text/html,application/xhtml+xml,application/xml;q=0.9,*/*;q=0.8'
p656
asbasbasbag57
(g73
g59
NtRp657
(dp658
g62
(dp659
sg71
g475
sg64
(lp660
g57
(g78
g59
NtRp661
(dp662
g62
(dp663
g82
g83
ssg71
g657
sg64
(lp664
S'http_accept_charset'
p665
asbag57
(g78
g59
NtRp666
(dp667
g62
(dp668
g89
g90
ssg71
g657
sg64
(lp669
S':'
asbag57
(g78
g59
NtRp670
(dp671
g62
(dp672
sg71
g657
sg64
(lp673
g57
(g58
g59
NtRp674
(dp675
g62
(dp676
g70
I4
ssg71
g670
sg64
(lp677
S'ISO-8859-1,utf-8;q=0.7,*;q=0.3'
p678
asbasbasbag57
(g73
g59
NtRp679
(dp680
g62
(dp681
sg71
g475
sg64
(lp682
g57
(g78
g59
NtRp683
(dp684
g62
(dp685
g82
g83
ssg71
g679
sg64
(lp686
S'http_accept_encoding'
p687
asbag57
(g78
g59
NtRp688
(dp689
g62
(dp690
g89
g90
ssg71
g679
sg64
(lp691
S':'
asbag57
(g78
g59
NtRp692
(dp693
g62
(dp694
sg71
g679
sg64
(lp695
g57
(g58
g59
NtRp696
(dp697
g62
(dp698
g70
I4
ssg71
g692
sg64
(lp699
S'gzip,deflate,sdch'
p700
asbasbasbag57
(g73
g59
NtRp701
(dp702
g62
(dp703
sg71
g475
sg64
(lp704
g57
(g78
g59
NtRp705
(dp706
g62
(dp707
g82
g83
ssg71
g701
sg64
(lp708
S'http_accept_language'
p709
asbag57
(g78
g59
NtRp710
(dp711
g62
(dp712
g89
g90
ssg71
g701
sg64
(lp713
S':'
asbag57
(g78
g59
NtRp714
(dp715
g62
(dp716
sg71
g701
sg64
(lp717
g57
(g58
g59
NtRp718
(dp719
g62
(dp720
g70
I4
ssg71
g714
sg64
(lp721
S'pt-BR,pt;q=0.8,en-US;q=0.6,en;q=0.4'
p722
asbasbasbag57
(g73
g59
NtRp723
(dp724
g62
(dp725
sg71
g475
sg64
(lp726
g57
(g78
g59
NtRp727
(dp728
g62
(dp729
g82
g83
ssg71
g723
sg64
(lp730
S'http_cache_control'
p731
asbag57
(g78
g59
NtRp732
(dp733
g62
(dp734
g89
g90
ssg71
g723
sg64
(lp735
S':'
asbag57
(g78
g59
NtRp736
(dp737
g62
(dp738
sg71
g723
sg64
(lp739
g57
(g58
g59
NtRp740
(dp741
g62
(dp742
g70
I4
ssg71
g736
sg64
(lp743
S'max-age=0'
p744
asbasbasbag57
(g73
g59
NtRp745
(dp746
g62
(dp747
sg71
g475
sg64
(lp748
g57
(g78
g59
NtRp749
(dp750
g62
(dp751
g82
g83
ssg71
g745
sg64
(lp752
S'http_connection'
p753
asbag57
(g78
g59
NtRp754
(dp755
g62
(dp756
g89
g90
ssg71
g745
sg64
(lp757
S':'
asbag57
(g78
g59
NtRp758
(dp759
g62
(dp760
sg71
g745
sg64
(lp761
g57
(g58
g59
NtRp762
(dp763
g62
(dp764
g70
I4
ssg71
g758
sg64
(lp765
S'keep-alive'
p766
asbasbasbag57
(g73
g59
NtRp767
(dp768
g62
(dp769
sg71
g475
sg64
(lp770
g57
(g78
g59
NtRp771
(dp772
g62
(dp773
g82
g83
ssg71
g767
sg64
(lp774
S'http_cookie'
p775
asbag57
(g78
g59
NtRp776
(dp777
g62
(dp778
g89
g90
ssg71
g767
sg64
(lp779
S':'
asbag57
(g78
g59
NtRp780
(dp781
g62
(dp782
sg71
g767
sg64
(lp783
g57
(g58
g59
NtRp784
(dp785
g62
(dp786
g70
I4
ssg71
g780
sg64
(lp787
S'session_id_irecycle=127.0.0.1-10f67e0b-8b95-4045-9f3c-2e1e4dff1c83'
p788
asbasbasbag57
(g73
g59
NtRp789
(dp790
g62
(dp791
sg71
g475
sg64
(lp792
g57
(g78
g59
NtRp793
(dp794
g62
(dp795
g82
g83
ssg71
g789
sg64
(lp796
S'http_host'
p797
asbag57
(g78
g59
NtRp798
(dp799
g62
(dp800
g89
g90
ssg71
g789
sg64
(lp801
S':'
asbag57
(g78
g59
NtRp802
(dp803
g62
(dp804
sg71
g789
sg64
(lp805
g57
(g58
g59
NtRp806
(dp807
g62
(dp808
g70
I4
ssg71
g802
sg64
(lp809
S'localhost:8000'
p810
asbasbasbag57
(g73
g59
NtRp811
(dp812
g62
(dp813
sg71
g475
sg64
(lp814
g57
(g78
g59
NtRp815
(dp816
g62
(dp817
g82
g83
ssg71
g811
sg64
(lp818
S'http_referer'
p819
asbag57
(g78
g59
NtRp820
(dp821
g62
(dp822
g89
g90
ssg71
g811
sg64
(lp823
S':'
asbag57
(g78
g59
NtRp824
(dp825
g62
(dp826
sg71
g811
sg64
(lp827
g57
(g58
g59
NtRp828
(dp829
g62
(dp830
g70
I4
ssg71
g824
sg64
(lp831
S'http://localhost:8000/irecycle/default/user/login?_next=/irecycle/default/index'
p832
asbasbasbag57
(g73
g59
NtRp833
(dp834
g62
(dp835
sg71
g475
sg64
(lp836
g57
(g78
g59
NtRp837
(dp838
g62
(dp839
g82
g83
ssg71
g833
sg64
(lp840
S'http_user_agent'
p841
asbag57
(g78
g59
NtRp842
(dp843
g62
(dp844
g89
g90
ssg71
g833
sg64
(lp845
S':'
asbag57
(g78
g59
NtRp846
(dp847
g62
(dp848
sg71
g833
sg64
(lp849
g57
(g58
g59
NtRp850
(dp851
g62
(dp852
g70
I4
ssg71
g846
sg64
(lp853
S'Mozilla/5.0 (X11; Linux x86_64) AppleWebKit/537.17 (KHTML, like Gecko) Chrome/24.0.1312.52 Safari/537.17'
p854
asbasbasbag57
(g73
g59
NtRp855
(dp856
g62
(dp857
sg71
g475
sg64
(lp858
g57
(g78
g59
NtRp859
(dp860
g62
(dp861
g82
g83
ssg71
g855
sg64
(lp862
S'is_jython'
p863
asbag57
(g78
g59
NtRp864
(dp865
g62
(dp866
g89
g90
ssg71
g855
sg64
(lp867
S':'
asbag57
(g78
g59
NtRp868
(dp869
g62
(dp870
sg71
g855
sg64
(lp871
g57
(g58
g59
NtRp872
(dp873
g62
(dp874
g70
I4
ssg71
g868
sg64
(lp875
g100
asbasbasbag57
(g73
g59
NtRp876
(dp877
g62
(dp878
sg71
g475
sg64
(lp879
g57
(g78
g59
NtRp880
(dp881
g62
(dp882
g82
g83
ssg71
g876
sg64
(lp883
S'is_pypy'
p884
asbag57
(g78
g59
NtRp885
(dp886
g62
(dp887
g89
g90
ssg71
g876
sg64
(lp888
S':'
asbag57
(g78
g59
NtRp889
(dp890
g62
(dp891
sg71
g876
sg64
(lp892
g57
(g58
g59
NtRp893
(dp894
g62
(dp895
g70
I4
ssg71
g889
sg64
(lp896
g100
asbasbasbag57
(g73
g59
NtRp897
(dp898
g62
(dp899
sg71
g475
sg64
(lp900
g57
(g78
g59
NtRp901
(dp902
g62
(dp903
g82
g83
ssg71
g897
sg64
(lp904
S'local_hosts'
p905
asbag57
(g78
g59
NtRp906
(dp907
g62
(dp908
g89
g90
ssg71
g897
sg64
(lp909
S':'
asbag57
(g78
g59
NtRp910
(dp911
g62
(dp912
sg71
g897
sg64
(lp913
g57
(g58
g59
NtRp914
(dp915
g62
(dp916
g70
I4
ssg71
g910
sg64
(lp917
g57
(g66
g59
NtRp918
(dp919
g62
(dp920
g70
I3
ssg71
Nsg64
(lp921
g57
(g73
g59
NtRp922
(dp923
g62
(dp924
sg71
g918
sg64
(lp925
g57
(g78
g59
NtRp926
(dp927
g62
(dp928
sg71
g922
sg64
(lp929
g57
(g58
g59
NtRp930
(dp931
g62
(dp932
g70
I3
ssg71
g926
sg64
(lp933
S'::1'
p934
asbasbasbag57
(g73
g59
NtRp935
(dp936
g62
(dp937
sg71
g918
sg64
(lp938
g57
(g78
g59
NtRp939
(dp940
g62
(dp941
sg71
g935
sg64
(lp942
g57
(g58
g59
NtRp943
(dp944
g62
(dp945
g70
I3
ssg71
g939
sg64
(lp946
S'madagascar'
p947
asbasbasbag57
(g73
g59
NtRp948
(dp949
g62
(dp950
sg71
g918
sg64
(lp951
g57
(g78
g59
NtRp952
(dp953
g62
(dp954
sg71
g948
sg64
(lp955
g57
(g58
g59
NtRp956
(dp957
g62
(dp958
g70
I3
ssg71
g952
sg64
(lp959
S'::ffff:127.0.0.1'
p960
asbasbasbag57
(g73
g59
NtRp961
(dp962
g62
(dp963
sg71
g918
sg64
(lp964
g57
(g78
g59
NtRp965
(dp966
g62
(dp967
sg71
g961
sg64
(lp968
g57
(g58
g59
NtRp969
(dp970
g62
(dp971
g70
I3
ssg71
g965
sg64
(lp972
S'127.0.0.1'
p973
asbasbasbag57
(g73
g59
NtRp974
(dp975
g62
(dp976
sg71
g918
sg64
(lp977
g57
(g78
g59
NtRp978
(dp979
g62
(dp980
sg71
g974
sg64
(lp981
g57
(g58
g59
NtRp982
(dp983
g62
(dp984
g70
I3
ssg71
g978
sg64
(lp985
S'172.30.6.210'
p986
asbasbasbasbasbasbasbag57
(g73
g59
NtRp987
(dp988
g62
(dp989
sg71
g475
sg64
(lp990
g57
(g78
g59
NtRp991
(dp992
g62
(dp993
g82
g83
ssg71
g987
sg64
(lp994
S'path_info'
p995
asbag57
(g78
g59
NtRp996
(dp997
g62
(dp998
g89
g90
ssg71
g987
sg64
(lp999
S':'
asbag57
(g78
g59
NtRp1000
(dp1001
g62
(dp1002
sg71
g987
sg64
(lp1003
g57
(g58
g59
NtRp1004
(dp1005
g62
(dp1006
g70
I4
ssg71
g1000
sg64
(lp1007
S'/irecycle/default/home'
p1008
asbasbasbag57
(g73
g59
NtRp1009
(dp1010
g62
(dp1011
sg71
g475
sg64
(lp1012
g57
(g78
g59
NtRp1013
(dp1014
g62
(dp1015
g82
g83
ssg71
g1009
sg64
(lp1016
S'query_string'
p1017
asbag57
(g78
g59
NtRp1018
(dp1019
g62
(dp1020
g89
g90
ssg71
g1009
sg64
(lp1021
S':'
asbag57
(g78
g59
NtRp1022
(dp1023
g62
(dp1024
sg71
g1009
sg64
(lp1025
g57
(g58
g59
NtRp1026
(dp1027
g62
(dp1028
g70
I4
ssg71
g1022
sg64
(lp1029
S''
asbasbasbag57
(g73
g59
NtRp1030
(dp1031
g62
(dp1032
sg71
g475
sg64
(lp1033
g57
(g78
g59
NtRp1034
(dp1035
g62
(dp1036
g82
g83
ssg71
g1030
sg64
(lp1037
S'remote_addr'
p1038
asbag57
(g78
g59
NtRp1039
(dp1040
g62
(dp1041
g89
g90
ssg71
g1030
sg64
(lp1042
S':'
asbag57
(g78
g59
NtRp1043
(dp1044
g62
(dp1045
sg71
g1030
sg64
(lp1046
g57
(g58
g59
NtRp1047
(dp1048
g62
(dp1049
g70
I4
ssg71
g1043
sg64
(lp1050
g212
asbasbasbag57
(g73
g59
NtRp1051
(dp1052
g62
(dp1053
sg71
g475
sg64
(lp1054
g57
(g78
g59
NtRp1055
(dp1056
g62
(dp1057
g82
g83
ssg71
g1051
sg64
(lp1058
S'remote_port'
p1059
asbag57
(g78
g59
NtRp1060
(dp1061
g62
(dp1062
g89
g90
ssg71
g1051
sg64
(lp1063
S':'
asbag57
(g78
g59
NtRp1064
(dp1065
g62
(dp1066
sg71
g1051
sg64
(lp1067
g57
(g58
g59
NtRp1068
(dp1069
g62
(dp1070
g70
I4
ssg71
g1064
sg64
(lp1071
S'53603'
p1072
asbasbasbag57
(g73
g59
NtRp1073
(dp1074
g62
(dp1075
sg71
g475
sg64
(lp1076
g57
(g78
g59
NtRp1077
(dp1078
g62
(dp1079
g82
g83
ssg71
g1073
sg64
(lp1080
S'request_method'
p1081
asbag57
(g78
g59
NtRp1082
(dp1083
g62
(dp1084
g89
g90
ssg71
g1073
sg64
(lp1085
S':'
asbag57
(g78
g59
NtRp1086
(dp1087
g62
(dp1088
sg71
g1073
sg64
(lp1089
g57
(g58
g59
NtRp1090
(dp1091
g62
(dp1092
g70
I4
ssg71
g1086
sg64
(lp1093
S'GET'
p1094
asbasbasbag57
(g73
g59
NtRp1095
(dp1096
g62
(dp1097
sg71
g475
sg64
(lp1098
g57
(g78
g59
NtRp1099
(dp1100
g62
(dp1101
g82
g83
ssg71
g1095
sg64
(lp1102
S'request_uri'
p1103
asbag57
(g78
g59
NtRp1104
(dp1105
g62
(dp1106
g89
g90
ssg71
g1095
sg64
(lp1107
S':'
asbag57
(g78
g59
NtRp1108
(dp1109
g62
(dp1110
sg71
g1095
sg64
(lp1111
g57
(g58
g59
NtRp1112
(dp1113
g62
(dp1114
g70
I4
ssg71
g1108
sg64
(lp1115
g1008
asbasbasbag57
(g73
g59
NtRp1116
(dp1117
g62
(dp1118
sg71
g475
sg64
(lp1119
g57
(g78
g59
NtRp1120
(dp1121
g62
(dp1122
g82
g83
ssg71
g1116
sg64
(lp1123
S'script_name'
p1124
asbag57
(g78
g59
NtRp1125
(dp1126
g62
(dp1127
g89
g90
ssg71
g1116
sg64
(lp1128
S':'
asbag57
(g78
g59
NtRp1129
(dp1130
g62
(dp1131
sg71
g1116
sg64
(lp1132
g57
(g58
g59
NtRp1133
(dp1134
g62
(dp1135
g70
I4
ssg71
g1129
sg64
(lp1136
S''
asbasbasbag57
(g73
g59
NtRp1137
(dp1138
g62
(dp1139
sg71
g475
sg64
(lp1140
g57
(g78
g59
NtRp1141
(dp1142
g62
(dp1143
g82
g83
ssg71
g1137
sg64
(lp1144
S'server_name'
p1145
asbag57
(g78
g59
NtRp1146
(dp1147
g62
(dp1148
g89
g90
ssg71
g1137
sg64
(lp1149
S':'
asbag57
(g78
g59
NtRp1150
(dp1151
g62
(dp1152
sg71
g1137
sg64
(lp1153
g57
(g58
g59
NtRp1154
(dp1155
g62
(dp1156
g70
I4
ssg71
g1150
sg64
(lp1157
S'madagascar'
p1158
asbasbasbag57
(g73
g59
NtRp1159
(dp1160
g62
(dp1161
sg71
g475
sg64
(lp1162
g57
(g78
g59
NtRp1163
(dp1164
g62
(dp1165
g82
g83
ssg71
g1159
sg64
(lp1166
S'server_port'
p1167
asbag57
(g78
g59
NtRp1168
(dp1169
g62
(dp1170
g89
g90
ssg71
g1159
sg64
(lp1171
S':'
asbag57
(g78
g59
NtRp1172
(dp1173
g62
(dp1174
sg71
g1159
sg64
(lp1175
g57
(g58
g59
NtRp1176
(dp1177
g62
(dp1178
g70
I4
ssg71
g1172
sg64
(lp1179
S'8000'
p1180
asbasbasbag57
(g73
g59
NtRp1181
(dp1182
g62
(dp1183
sg71
g475
sg64
(lp1184
g57
(g78
g59
NtRp1185
(dp1186
g62
(dp1187
g82
g83
ssg71
g1181
sg64
(lp1188
S'server_protocol'
p1189
asbag57
(g78
g59
NtRp1190
(dp1191
g62
(dp1192
g89
g90
ssg71
g1181
sg64
(lp1193
S':'
asbag57
(g78
g59
NtRp1194
(dp1195
g62
(dp1196
sg71
g1181
sg64
(lp1197
g57
(g58
g59
NtRp1198
(dp1199
g62
(dp1200
g70
I4
ssg71
g1194
sg64
(lp1201
S'HTTP/1.1'
p1202
asbasbasbag57
(g73
g59
NtRp1203
(dp1204
g62
(dp1205
sg71
g475
sg64
(lp1206
g57
(g78
g59
NtRp1207
(dp1208
g62
(dp1209
g82
g83
ssg71
g1203
sg64
(lp1210
S'server_software'
p1211
asbag57
(g78
g59
NtRp1212
(dp1213
g62
(dp1214
g89
g90
ssg71
g1203
sg64
(lp1215
S':'
asbag57
(g78
g59
NtRp1216
(dp1217
g62
(dp1218
sg71
g1203
sg64
(lp1219
g57
(g58
g59
NtRp1220
(dp1221
g62
(dp1222
g70
I4
ssg71
g1216
sg64
(lp1223
S'Rocket 1.2.6'
p1224
asbasbasbag57
(g73
g59
NtRp1225
(dp1226
g62
(dp1227
sg71
g475
sg64
(lp1228
g57
(g78
g59
NtRp1229
(dp1230
g62
(dp1231
g82
g83
ssg71
g1225
sg64
(lp1232
S'web2py_path'
p1233
asbag57
(g78
g59
NtRp1234
(dp1235
g62
(dp1236
g89
g90
ssg71
g1225
sg64
(lp1237
S':'
asbag57
(g78
g59
NtRp1238
(dp1239
g62
(dp1240
sg71
g1225
sg64
(lp1241
g57
(g58
g59
NtRp1242
(dp1243
g62
(dp1244
g70
I4
ssg71
g1238
sg64
(lp1245
g522
asbasbasbag57
(g73
g59
NtRp1246
(dp1247
g62
(dp1248
sg71
g475
sg64
(lp1249
g57
(g78
g59
NtRp1250
(dp1251
g62
(dp1252
g82
g83
ssg71
g1246
sg64
(lp1253
S'web2py_version'
p1254
asbag57
(g78
g59
NtRp1255
(dp1256
g62
(dp1257
g89
g90
ssg71
g1246
sg64
(lp1258
S':'
asbag57
(g78
g59
NtRp1259
(dp1260
g62
(dp1261
sg71
g1246
sg64
(lp1262
g57
(g58
g59
NtRp1263
(dp1264
g62
(dp1265
g70
I4
ssg71
g1259
sg64
(lp1266
g57
(g66
g59
NtRp1267
(dp1268
g62
(dp1269
g70
I3
ssg71
Nsg64
(lp1270
g57
(g73
g59
NtRp1271
(dp1272
g62
(dp1273
sg71
g1267
sg64
(lp1274
g57
(g78
g59
NtRp1275
(dp1276
g62
(dp1277
sg71
g1271
sg64
(lp1278
g57
(g58
g59
NtRp1279
(dp1280
g62
(dp1281
g70
I3
ssg71
g1275
sg64
(lp1282
S'2'
asbasbasbag57
(g73
g59
NtRp1283
(dp1284
g62
(dp1285
sg71
g1267
sg64
(lp1286
g57
(g78
g59
NtRp1287
(dp1288
g62
(dp1289
sg71
g1283
sg64
(lp1290
g57
(g58
g59
NtRp1291
(dp1292
g62
(dp1293
g70
I3
ssg71
g1287
sg64
(lp1294
S'3'
asbasbasbag57
(g73
g59
NtRp1295
(dp1296
g62
(dp1297
sg71
g1267
sg64
(lp1298
g57
(g78
g59
NtRp1299
(dp1300
g62
(dp1301
sg71
g1295
sg64
(lp1302
g57
(g58
g59
NtRp1303
(dp1304
g62
(dp1305
g70
I3
ssg71
g1299
sg64
(lp1306
S'2'
asbasbasbag57
(g73
g59
NtRp1307
(dp1308
g62
(dp1309
sg71
g1267
sg64
(lp1310
g57
(g78
g59
NtRp1311
(dp1312
g62
(dp1313
sg71
g1307
sg64
(lp1314
g57
(g58
g59
NtRp1315
(dp1316
g62
(dp1317
g70
I3
ssg71
g1311
sg64
(lp1318
S'datetime.datetime(2012, 12, 17, 15, 3, 30)'
p1319
asbasbasbag57
(g73
g59
NtRp1320
(dp1321
g62
(dp1322
sg71
g1267
sg64
(lp1323
g57
(g78
g59
NtRp1324
(dp1325
g62
(dp1326
sg71
g1320
sg64
(lp1327
g57
(g58
g59
NtRp1328
(dp1329
g62
(dp1330
g70
I3
ssg71
g1324
sg64
(lp1331
S'stable'
p1332
asbasbasbasbasbasbasbag57
(g73
g59
NtRp1333
(dp1334
g62
(dp1335
sg71
g475
sg64
(lp1336
g57
(g78
g59
NtRp1337
(dp1338
g62
(dp1339
g82
g83
ssg71
g1333
sg64
(lp1340
S'wsgi_errors'
p1341
asbag57
(g78
g59
NtRp1342
(dp1343
g62
(dp1344
g89
g90
ssg71
g1333
sg64
(lp1345
S':'
asbag57
(g78
g59
NtRp1346
(dp1347
g62
(dp1348
sg71
g1333
sg64
(lp1349
g57
(g58
g59
NtRp1350
(dp1351
g62
(dp1352
g70
I4
ssg71
g1346
sg64
(lp1353
S"<open file '<stderr>', mode 'w' at 0x7fbe13edc270>"
p1354
asbasbasbag57
(g73
g59
NtRp1355
(dp1356
g62
(dp1357
sg71
g475
sg64
(lp1358
g57
(g78
g59
NtRp1359
(dp1360
g62
(dp1361
g82
g83
ssg71
g1355
sg64
(lp1362
S'wsgi_file_wrapper'
p1363
asbag57
(g78
g59
NtRp1364
(dp1365
g62
(dp1366
g89
g90
ssg71
g1355
sg64
(lp1367
S':'
asbag57
(g78
g59
NtRp1368
(dp1369
g62
(dp1370
sg71
g1355
sg64
(lp1371
g57
(g58
g59
NtRp1372
(dp1373
g62
(dp1374
g70
I4
ssg71
g1368
sg64
(lp1375
S'<class wsgiref.util.FileWrapper at 0x2b3d738>'
p1376
asbasbasbag57
(g73
g59
NtRp1377
(dp1378
g62
(dp1379
sg71
g475
sg64
(lp1380
g57
(g78
g59
NtRp1381
(dp1382
g62
(dp1383
g82
g83
ssg71
g1377
sg64
(lp1384
S'wsgi_input'
p1385
asbag57
(g78
g59
NtRp1386
(dp1387
g62
(dp1388
g89
g90
ssg71
g1377
sg64
(lp1389
S':'
asbag57
(g78
g59
NtRp1390
(dp1391
g62
(dp1392
sg71
g1377
sg64
(lp1393
g57
(g58
g59
NtRp1394
(dp1395
g62
(dp1396
g70
I4
ssg71
g1390
sg64
(lp1397
S'<socket._fileobject object at 0x7fbdf41023d0>'
p1398
asbasbasbag57
(g73
g59
NtRp1399
(dp1400
g62
(dp1401
sg71
g475
sg64
(lp1402
g57
(g78
g59
NtRp1403
(dp1404
g62
(dp1405
g82
g83
ssg71
g1399
sg64
(lp1406
S'wsgi_multiprocess'
p1407
asbag57
(g78
g59
NtRp1408
(dp1409
g62
(dp1410
g89
g90
ssg71
g1399
sg64
(lp1411
S':'
asbag57
(g78
g59
NtRp1412
(dp1413
g62
(dp1414
sg71
g1399
sg64
(lp1415
g57
(g58
g59
NtRp1416
(dp1417
g62
(dp1418
g70
I4
ssg71
g1412
sg64
(lp1419
g100
asbasbasbag57
(g73
g59
NtRp1420
(dp1421
g62
(dp1422
sg71
g475
sg64
(lp1423
g57
(g78
g59
NtRp1424
(dp1425
g62
(dp1426
g82
g83
ssg71
g1420
sg64
(lp1427
S'wsgi_multithread'
p1428
asbag57
(g78
g59
NtRp1429
(dp1430
g62
(dp1431
g89
g90
ssg71
g1420
sg64
(lp1432
S':'
asbag57
(g78
g59
NtRp1433
(dp1434
g62
(dp1435
sg71
g1420
sg64
(lp1436
g57
(g58
g59
NtRp1437
(dp1438
g62
(dp1439
g70
I4
ssg71
g1433
sg64
(lp1440
S'True'
p1441
asbasbasbag57
(g73
g59
NtRp1442
(dp1443
g62
(dp1444
sg71
g475
sg64
(lp1445
g57
(g78
g59
NtRp1446
(dp1447
g62
(dp1448
g82
g83
ssg71
g1442
sg64
(lp1449
S'wsgi_run_once'
p1450
asbag57
(g78
g59
NtRp1451
(dp1452
g62
(dp1453
g89
g90
ssg71
g1442
sg64
(lp1454
S':'
asbag57
(g78
g59
NtRp1455
(dp1456
g62
(dp1457
sg71
g1442
sg64
(lp1458
g57
(g58
g59
NtRp1459
(dp1460
g62
(dp1461
g70
I4
ssg71
g1455
sg64
(lp1462
g100
asbasbasbag57
(g73
g59
NtRp1463
(dp1464
g62
(dp1465
sg71
g475
sg64
(lp1466
g57
(g78
g59
NtRp1467
(dp1468
g62
(dp1469
g82
g83
ssg71
g1463
sg64
(lp1470
S'wsgi_url_scheme'
p1471
asbag57
(g78
g59
NtRp1472
(dp1473
g62
(dp1474
g89
g90
ssg71
g1463
sg64
(lp1475
S':'
asbag57
(g78
g59
NtRp1476
(dp1477
g62
(dp1478
sg71
g1463
sg64
(lp1479
g57
(g58
g59
NtRp1480
(dp1481
g62
(dp1482
g70
I4
ssg71
g1476
sg64
(lp1483
S'http'
p1484
asbasbasbag57
(g73
g59
NtRp1485
(dp1486
g62
(dp1487
sg71
g475
sg64
(lp1488
g57
(g78
g59
NtRp1489
(dp1490
g62
(dp1491
g82
g83
ssg71
g1485
sg64
(lp1492
S'wsgi_version'
p1493
asbag57
(g78
g59
NtRp1494
(dp1495
g62
(dp1496
g89
g90
ssg71
g1485
sg64
(lp1497
S':'
asbag57
(g78
g59
NtRp1498
(dp1499
g62
(dp1500
sg71
g1485
sg64
(lp1501
g57
(g58
g59
NtRp1502
(dp1503
g62
(dp1504
g70
I4
ssg71
g1498
sg64
(lp1505
g57
(g66
g59
NtRp1506
(dp1507
g62
(dp1508
g70
I3
ssg71
Nsg64
(lp1509
g57
(g73
g59
NtRp1510
(dp1511
g62
(dp1512
sg71
g1506
sg64
(lp1513
g57
(g78
g59
NtRp1514
(dp1515
g62
(dp1516
sg71
g1510
sg64
(lp1517
g57
(g58
g59
NtRp1518
(dp1519
g62
(dp1520
g70
I3
ssg71
g1514
sg64
(lp1521
S'1'
asbasbasbag57
(g73
g59
NtRp1522
(dp1523
g62
(dp1524
sg71
g1506
sg64
(lp1525
g57
(g78
g59
NtRp1526
(dp1527
g62
(dp1528
sg71
g1522
sg64
(lp1529
g57
(g58
g59
NtRp1530
(dp1531
g62
(dp1532
g70
I3
ssg71
g1526
sg64
(lp1533
S'0'
asbasbasbasbasbasbasbasbasbasbasbag57
(g73
g59
NtRp1534
(dp1535
g62
(dp1536
sg71
g67
sg64
(lp1537
g57
(g78
g59
NtRp1538
(dp1539
g62
(dp1540
g82
g83
ssg71
g1534
sg64
(lp1541
S'extension'
p1542
asbag57
(g78
g59
NtRp1543
(dp1544
g62
(dp1545
g89
g90
ssg71
g1534
sg64
(lp1546
S':'
asbag57
(g78
g59
NtRp1547
(dp1548
g62
(dp1549
sg71
g1534
sg64
(lp1550
g57
(g58
g59
NtRp1551
(dp1552
g62
(dp1553
g70
I5
ssg71
g1547
sg64
(lp1554
S'html'
p1555
asbasbasbag57
(g73
g59
NtRp1556
(dp1557
g62
(dp1558
sg71
g67
sg64
(lp1559
g57
(g78
g59
NtRp1560
(dp1561
g62
(dp1562
g82
g83
ssg71
g1556
sg64
(lp1563
S'folder'
p1564
asbag57
(g78
g59
NtRp1565
(dp1566
g62
(dp1567
g89
g90
ssg71
g1556
sg64
(lp1568
S':'
asbag57
(g78
g59
NtRp1569
(dp1570
g62
(dp1571
sg71
g1556
sg64
(lp1572
g57
(g58
g59
NtRp1573
(dp1574
g62
(dp1575
g70
I5
ssg71
g1569
sg64
(lp1576
S'/home/diego/web2py/applications/irecycle/'
p1577
asbasbasbag57
(g73
g59
NtRp1578
(dp1579
g62
(dp1580
sg71
g67
sg64
(lp1581
g57
(g78
g59
NtRp1582
(dp1583
g62
(dp1584
g82
g83
ssg71
g1578
sg64
(lp1585
S'function'
p1586
asbag57
(g78
g59
NtRp1587
(dp1588
g62
(dp1589
g89
g90
ssg71
g1578
sg64
(lp1590
S':'
asbag57
(g78
g59
NtRp1591
(dp1592
g62
(dp1593
sg71
g1578
sg64
(lp1594
g57
(g58
g59
NtRp1595
(dp1596
g62
(dp1597
g70
I5
ssg71
g1591
sg64
(lp1598
S'home'
p1599
asbasbasbag57
(g73
g59
NtRp1600
(dp1601
g62
(dp1602
sg71
g67
sg64
(lp1603
g57
(g78
g59
NtRp1604
(dp1605
g62
(dp1606
g82
g83
ssg71
g1600
sg64
(lp1607
S'get_vars'
p1608
asbag57
(g78
g59
NtRp1609
(dp1610
g62
(dp1611
g89
g90
ssg71
g1600
sg64
(lp1612
S':'
asbag57
(g78
g59
NtRp1613
(dp1614
g62
(dp1615
sg71
g1600
sg64
(lp1616
g57
(g58
g59
NtRp1617
(dp1618
g62
(dp1619
g70
I5
ssg71
g1613
sg64
(lp1620
g57
(g66
g59
NtRp1621
(dp1622
g62
(dp1623
g70
I4
ssg71
Nsg64
(lp1624
sbasbasbasbag57
(g73
g59
NtRp1625
(dp1626
g62
(dp1627
sg71
g67
sg64
(lp1628
g57
(g78
g59
NtRp1629
(dp1630
g62
(dp1631
g82
g83
ssg71
g1625
sg64
(lp1632
S'global_settings'
p1633
asbag57
(g78
g59
NtRp1634
(dp1635
g62
(dp1636
g89
g90
ssg71
g1625
sg64
(lp1637
S':'
asbag57
(g78
g59
NtRp1638
(dp1639
g62
(dp1640
sg71
g1625
sg64
(lp1641
g57
(g58
g59
NtRp1642
(dp1643
g62
(dp1644
g70
I5
ssg71
g1638
sg64
(lp1645
g57
(g66
g59
NtRp1646
(dp1647
g62
(dp1648
g70
I4
ssg71
Nsg64
(lp1649
g57
(g73
g59
NtRp1650
(dp1651
g62
(dp1652
sg71
g1646
sg64
(lp1653
g57
(g78
g59
NtRp1654
(dp1655
g62
(dp1656
g82
g83
ssg71
g1650
sg64
(lp1657
g487
asbag57
(g78
g59
NtRp1658
(dp1659
g62
(dp1660
g89
g90
ssg71
g1650
sg64
(lp1661
S':'
asbag57
(g78
g59
NtRp1662
(dp1663
g62
(dp1664
sg71
g1650
sg64
(lp1665
g57
(g58
g59
NtRp1666
(dp1667
g62
(dp1668
g70
I4
ssg71
g1662
sg64
(lp1669
S"set(['/home/diego/web2py/applications/irecycle/'])"
p1670
asbasbasbag57
(g73
g59
NtRp1671
(dp1672
g62
(dp1673
sg71
g1646
sg64
(lp1674
g57
(g78
g59
NtRp1675
(dp1676
g62
(dp1677
g82
g83
ssg71
g1671
sg64
(lp1678
g509
asbag57
(g78
g59
NtRp1679
(dp1680
g62
(dp1681
g89
g90
ssg71
g1671
sg64
(lp1682
S':'
asbag57
(g78
g59
NtRp1683
(dp1684
g62
(dp1685
sg71
g1671
sg64
(lp1686
g57
(g58
g59
NtRp1687
(dp1688
g62
(dp1689
g70
I4
ssg71
g1683
sg64
(lp1690
g522
asbasbasbag57
(g73
g59
NtRp1691
(dp1692
g62
(dp1693
sg71
g1646
sg64
(lp1694
g57
(g78
g59
NtRp1695
(dp1696
g62
(dp1697
g82
g83
ssg71
g1691
sg64
(lp1698
g531
asbag57
(g78
g59
NtRp1699
(dp1700
g62
(dp1701
g89
g90
ssg71
g1691
sg64
(lp1702
S':'
asbag57
(g78
g59
NtRp1703
(dp1704
g62
(dp1705
sg71
g1691
sg64
(lp1706
g57
(g58
g59
NtRp1707
(dp1708
g62
(dp1709
g70
I4
ssg71
g1703
sg64
(lp1710
g57
(g66
g59
NtRp1711
(dp1712
g62
(dp1713
g70
I3
ssg71
Nsg64
(lp1714
sbasbasbasbag57
(g73
g59
NtRp1715
(dp1716
g62
(dp1717
sg71
g1646
sg64
(lp1718
g57
(g78
g59
NtRp1719
(dp1720
g62
(dp1721
g82
g83
ssg71
g1715
sg64
(lp1722
g556
asbag57
(g78
g59
NtRp1723
(dp1724
g62
(dp1725
g89
g90
ssg71
g1715
sg64
(lp1726
S':'
asbag57
(g78
g59
NtRp1727
(dp1728
g62
(dp1729
sg71
g1715
sg64
(lp1730
g57
(g58
g59
NtRp1731
(dp1732
g62
(dp1733
g70
I4
ssg71
g1727
sg64
(lp1734
S"<Values at 0x2bde488: {'verbose': False, 'ip': '127.0.0.1', 'with_scheduler': False, 'ips': ['172.30.6.210'], 'shutdown_timeout': 5, 'taskbar': False, 'port': 8000, 'maxthreads': None, 'softcron': False, 'server_name': 'madagascar', 'bpython': False, 'nogui': False, 'pid_filename': 'httpserver.pid', 'extcron': False, 'runcron': False, 'run_system_tests': False, 'test': None, 'folder': '/home/diego/web2py', 'config': '', 'minthreads': None, 'winservice': '', 'shell': None, 'run': '', 'log_filename': 'httpserver.log', 'debuglevel': 30, 'args': [''], 'socket_timeout': 5, 'ssl_ca_certificate': None, 'scheduler': None, 'profiler_filename': None, 'ssl_private_key': '', 'scheduler_groups': None, 'password': '1234', 'request_queue_size': 5, 'ssl_certificate': '', 'cronjob': False, 'numthreads': None, 'quiet': False, 'interfaces': None, 'import_models': False, 'timeout': 10, 'plain': False, 'nobanner': False}>"
p1735
asbasbasbag57
(g73
g59
NtRp1736
(dp1737
g62
(dp1738
sg71
g1646
sg64
(lp1739
g57
(g78
g59
NtRp1740
(dp1741
g62
(dp1742
g82
g83
ssg71
g1736
sg64
(lp1743
g578
asbag57
(g78
g59
NtRp1744
(dp1745
g62
(dp1746
g89
g90
ssg71
g1736
sg64
(lp1747
S':'
asbag57
(g78
g59
NtRp1748
(dp1749
g62
(dp1750
sg71
g1736
sg64
(lp1751
g57
(g58
g59
NtRp1752
(dp1753
g62
(dp1754
g70
I4
ssg71
g1748
sg64
(lp1755
S'set([])'
p1756
asbasbasbag57
(g73
g59
NtRp1757
(dp1758
g62
(dp1759
sg71
g1646
sg64
(lp1760
g57
(g78
g59
NtRp1761
(dp1762
g62
(dp1763
g82
g83
ssg71
g1757
sg64
(lp1764
g600
asbag57
(g78
g59
NtRp1765
(dp1766
g62
(dp1767
g89
g90
ssg71
g1757
sg64
(lp1768
S':'
asbag57
(g78
g59
NtRp1769
(dp1770
g62
(dp1771
sg71
g1757
sg64
(lp1772
g57
(g58
g59
NtRp1773
(dp1774
g62
(dp1775
g70
I4
ssg71
g1769
sg64
(lp1776
g100
asbasbasbag57
(g73
g59
NtRp1777
(dp1778
g62
(dp1779
sg71
g1646
sg64
(lp1780
g57
(g78
g59
NtRp1781
(dp1782
g62
(dp1783
g82
g83
ssg71
g1777
sg64
(lp1784
g621
asbag57
(g78
g59
NtRp1785
(dp1786
g62
(dp1787
g89
g90
ssg71
g1777
sg64
(lp1788
S':'
asbag57
(g78
g59
NtRp1789
(dp1790
g62
(dp1791
sg71
g1777
sg64
(lp1792
g57
(g58
g59
NtRp1793
(dp1794
g62
(dp1795
g70
I4
ssg71
g1789
sg64
(lp1796
g634
asbasbasbag57
(g73
g59
NtRp1797
(dp1798
g62
(dp1799
sg71
g1646
sg64
(lp1800
g57
(g78
g59
NtRp1801
(dp1802
g62
(dp1803
g82
g83
ssg71
g1797
sg64
(lp1804
g863
asbag57
(g78
g59
NtRp1805
(dp1806
g62
(dp1807
g89
g90
ssg71
g1797
sg64
(lp1808
S':'
asbag57
(g78
g59
NtRp1809
(dp1810
g62
(dp1811
sg71
g1797
sg64
(lp1812
g57
(g58
g59
NtRp1813
(dp1814
g62
(dp1815
g70
I4
ssg71
g1809
sg64
(lp1816
g100
asbasbasbag57
(g73
g59
NtRp1817
(dp1818
g62
(dp1819
sg71
g1646
sg64
(lp1820
g57
(g78
g59
NtRp1821
(dp1822
g62
(dp1823
g82
g83
ssg71
g1817
sg64
(lp1824
g884
asbag57
(g78
g59
NtRp1825
(dp1826
g62
(dp1827
g89
g90
ssg71
g1817
sg64
(lp1828
S':'
asbag57
(g78
g59
NtRp1829
(dp1830
g62
(dp1831
sg71
g1817
sg64
(lp1832
g57
(g58
g59
NtRp1833
(dp1834
g62
(dp1835
g70
I4
ssg71
g1829
sg64
(lp1836
g100
asbasbasbag57
(g73
g59
NtRp1837
(dp1838
g62
(dp1839
sg71
g1646
sg64
(lp1840
g57
(g78
g59
NtRp1841
(dp1842
g62
(dp1843
g82
g83
ssg71
g1837
sg64
(lp1844
g905
asbag57
(g78
g59
NtRp1845
(dp1846
g62
(dp1847
g89
g90
ssg71
g1837
sg64
(lp1848
S':'
asbag57
(g78
g59
NtRp1849
(dp1850
g62
(dp1851
sg71
g1837
sg64
(lp1852
g57
(g58
g59
NtRp1853
(dp1854
g62
(dp1855
g70
I4
ssg71
g1849
sg64
(lp1856
g57
(g66
g59
NtRp1857
(dp1858
g62
(dp1859
g70
I3
ssg71
Nsg64
(lp1860
g57
(g73
g59
NtRp1861
(dp1862
g62
(dp1863
sg71
g1857
sg64
(lp1864
g57
(g78
g59
NtRp1865
(dp1866
g62
(dp1867
sg71
g1861
sg64
(lp1868
g57
(g58
g59
NtRp1869
(dp1870
g62
(dp1871
g70
I3
ssg71
g1865
sg64
(lp1872
g934
asbasbasbag57
(g73
g59
NtRp1873
(dp1874
g62
(dp1875
sg71
g1857
sg64
(lp1876
g57
(g78
g59
NtRp1877
(dp1878
g62
(dp1879
sg71
g1873
sg64
(lp1880
g57
(g58
g59
NtRp1881
(dp1882
g62
(dp1883
g70
I3
ssg71
g1877
sg64
(lp1884
g947
asbasbasbag57
(g73
g59
NtRp1885
(dp1886
g62
(dp1887
sg71
g1857
sg64
(lp1888
g57
(g78
g59
NtRp1889
(dp1890
g62
(dp1891
sg71
g1885
sg64
(lp1892
g57
(g58
g59
NtRp1893
(dp1894
g62
(dp1895
g70
I3
ssg71
g1889
sg64
(lp1896
g960
asbasbasbag57
(g73
g59
NtRp1897
(dp1898
g62
(dp1899
sg71
g1857
sg64
(lp1900
g57
(g78
g59
NtRp1901
(dp1902
g62
(dp1903
sg71
g1897
sg64
(lp1904
g57
(g58
g59
NtRp1905
(dp1906
g62
(dp1907
g70
I3
ssg71
g1901
sg64
(lp1908
g973
asbasbasbag57
(g73
g59
NtRp1909
(dp1910
g62
(dp1911
sg71
g1857
sg64
(lp1912
g57
(g78
g59
NtRp1913
(dp1914
g62
(dp1915
sg71
g1909
sg64
(lp1916
g57
(g58
g59
NtRp1917
(dp1918
g62
(dp1919
g70
I3
ssg71
g1913
sg64
(lp1920
g986
asbasbasbasbasbasbasbag57
(g73
g59
NtRp1921
(dp1922
g62
(dp1923
sg71
g1646
sg64
(lp1924
g57
(g78
g59
NtRp1925
(dp1926
g62
(dp1927
g82
g83
ssg71
g1921
sg64
(lp1928
g1254
asbag57
(g78
g59
NtRp1929
(dp1930
g62
(dp1931
g89
g90
ssg71
g1921
sg64
(lp1932
S':'
asbag57
(g78
g59
NtRp1933
(dp1934
g62
(dp1935
sg71
g1921
sg64
(lp1936
g57
(g58
g59
NtRp1937
(dp1938
g62
(dp1939
g70
I4
ssg71
g1933
sg64
(lp1940
g57
(g66
g59
NtRp1941
(dp1942
g62
(dp1943
g70
I3
ssg71
Nsg64
(lp1944
g57
(g73
g59
NtRp1945
(dp1946
g62
(dp1947
sg71
g1941
sg64
(lp1948
g57
(g78
g59
NtRp1949
(dp1950
g62
(dp1951
sg71
g1945
sg64
(lp1952
g57
(g58
g59
NtRp1953
(dp1954
g62
(dp1955
g70
I3
ssg71
g1949
sg64
(lp1956
S'2'
asbasbasbag57
(g73
g59
NtRp1957
(dp1958
g62
(dp1959
sg71
g1941
sg64
(lp1960
g57
(g78
g59
NtRp1961
(dp1962
g62
(dp1963
sg71
g1957
sg64
(lp1964
g57
(g58
g59
NtRp1965
(dp1966
g62
(dp1967
g70
I3
ssg71
g1961
sg64
(lp1968
S'3'
asbasbasbag57
(g73
g59
NtRp1969
(dp1970
g62
(dp1971
sg71
g1941
sg64
(lp1972
g57
(g78
g59
NtRp1973
(dp1974
g62
(dp1975
sg71
g1969
sg64
(lp1976
g57
(g58
g59
NtRp1977
(dp1978
g62
(dp1979
g70
I3
ssg71
g1973
sg64
(lp1980
S'2'
asbasbasbag57
(g73
g59
NtRp1981
(dp1982
g62
(dp1983
sg71
g1941
sg64
(lp1984
g57
(g78
g59
NtRp1985
(dp1986
g62
(dp1987
sg71
g1981
sg64
(lp1988
g57
(g58
g59
NtRp1989
(dp1990
g62
(dp1991
g70
I3
ssg71
g1985
sg64
(lp1992
S'datetime.datetime(2012, 12, 17, 15, 3, 30)'
p1993
asbasbasbag57
(g73
g59
NtRp1994
(dp1995
g62
(dp1996
sg71
g1941
sg64
(lp1997
g57
(g78
g59
NtRp1998
(dp1999
g62
(dp2000
sg71
g1994
sg64
(lp2001
g57
(g58
g59
NtRp2002
(dp2003
g62
(dp2004
g70
I3
ssg71
g1998
sg64
(lp2005
g1332
asbasbasbasbasbasbasbasbasbasbasbag57
(g73
g59
NtRp2006
(dp2007
g62
(dp2008
sg71
g67
sg64
(lp2009
g57
(g78
g59
NtRp2010
(dp2011
g62
(dp2012
g82
g83
ssg71
g2006
sg64
(lp2013
S'is_https'
p2014
asbag57
(g78
g59
NtRp2015
(dp2016
g62
(dp2017
g89
g90
ssg71
g2006
sg64
(lp2018
S':'
asbag57
(g78
g59
NtRp2019
(dp2020
g62
(dp2021
sg71
g2006
sg64
(lp2022
g57
(g58
g59
NtRp2023
(dp2024
g62
(dp2025
g70
I5
ssg71
g2019
sg64
(lp2026
g100
asbasbasbag57
(g73
g59
NtRp2027
(dp2028
g62
(dp2029
sg71
g67
sg64
(lp2030
g57
(g78
g59
NtRp2031
(dp2032
g62
(dp2033
g82
g83
ssg71
g2027
sg64
(lp2034
S'is_local'
p2035
asbag57
(g78
g59
NtRp2036
(dp2037
g62
(dp2038
g89
g90
ssg71
g2027
sg64
(lp2039
S':'
asbag57
(g78
g59
NtRp2040
(dp2041
g62
(dp2042
sg71
g2027
sg64
(lp2043
g57
(g58
g59
NtRp2044
(dp2045
g62
(dp2046
g70
I5
ssg71
g2040
sg64
(lp2047
g1441
asbasbasbag57
(g73
g59
NtRp2048
(dp2049
g62
(dp2050
sg71
g67
sg64
(lp2051
g57
(g78
g59
NtRp2052
(dp2053
g62
(dp2054
g82
g83
ssg71
g2048
sg64
(lp2055
S'is_restful'
p2056
asbag57
(g78
g59
NtRp2057
(dp2058
g62
(dp2059
g89
g90
ssg71
g2048
sg64
(lp2060
S':'
asbag57
(g78
g59
NtRp2061
(dp2062
g62
(dp2063
sg71
g2048
sg64
(lp2064
g57
(g58
g59
NtRp2065
(dp2066
g62
(dp2067
g70
I5
ssg71
g2061
sg64
(lp2068
g100
asbasbasbag57
(g73
g59
NtRp2069
(dp2070
g62
(dp2071
sg71
g67
sg64
(lp2072
g57
(g78
g59
NtRp2073
(dp2074
g62
(dp2075
g82
g83
ssg71
g2069
sg64
(lp2076
S'now'
p2077
asbag57
(g78
g59
NtRp2078
(dp2079
g62
(dp2080
g89
g90
ssg71
g2069
sg64
(lp2081
S':'
asbag57
(g78
g59
NtRp2082
(dp2083
g62
(dp2084
sg71
g2069
sg64
(lp2085
g57
(g58
g59
NtRp2086
(dp2087
g62
(dp2088
g70
I5
ssg71
g2082
sg64
(lp2089
S'datetime.datetime(2013, 1, 31, 13, 49, 47, 468046)'
p2090
asbasbasbag57
(g73
g59
NtRp2091
(dp2092
g62
(dp2093
sg71
g67
sg64
(lp2094
g57
(g78
g59
NtRp2095
(dp2096
g62
(dp2097
g82
g83
ssg71
g2091
sg64
(lp2098
S'post_vars'
p2099
asbag57
(g78
g59
NtRp2100
(dp2101
g62
(dp2102
g89
g90
ssg71
g2091
sg64
(lp2103
S':'
asbag57
(g78
g59
NtRp2104
(dp2105
g62
(dp2106
sg71
g2091
sg64
(lp2107
g57
(g58
g59
NtRp2108
(dp2109
g62
(dp2110
g70
I5
ssg71
g2104
sg64
(lp2111
g57
(g66
g59
NtRp2112
(dp2113
g62
(dp2114
g70
I4
ssg71
Nsg64
(lp2115
sbasbasbasbag57
(g73
g59
NtRp2116
(dp2117
g62
(dp2118
sg71
g67
sg64
(lp2119
g57
(g78
g59
NtRp2120
(dp2121
g62
(dp2122
g82
g83
ssg71
g2116
sg64
(lp2123
S'raw_args'
p2124
asbag57
(g78
g59
NtRp2125
(dp2126
g62
(dp2127
g89
g90
ssg71
g2116
sg64
(lp2128
S':'
asbag57
(g78
g59
NtRp2129
(dp2130
g62
(dp2131
sg71
g2116
sg64
(lp2132
g57
(g58
g59
NtRp2133
(dp2134
g62
(dp2135
g70
I5
ssg71
g2129
sg64
(lp2136
S''
asbasbasbag57
(g73
g59
NtRp2137
(dp2138
g62
(dp2139
sg71
g67
sg64
(lp2140
g57
(g78
g59
NtRp2141
(dp2142
g62
(dp2143
g82
g83
ssg71
g2137
sg64
(lp2144
S'raw_extension'
p2145
asbag57
(g78
g59
NtRp2146
(dp2147
g62
(dp2148
g89
g90
ssg71
g2137
sg64
(lp2149
S':'
asbag57
(g78
g59
NtRp2150
(dp2151
g62
(dp2152
sg71
g2137
sg64
(lp2153
g57
(g58
g59
NtRp2154
(dp2155
g62
(dp2156
g70
I5
ssg71
g2150
sg64
(lp2157
S'None'
p2158
asbasbasbag57
(g73
g59
NtRp2159
(dp2160
g62
(dp2161
sg71
g67
sg64
(lp2162
g57
(g78
g59
NtRp2163
(dp2164
g62
(dp2165
g82
g83
ssg71
g2159
sg64
(lp2166
S'url'
p2167
asbag57
(g78
g59
NtRp2168
(dp2169
g62
(dp2170
g89
g90
ssg71
g2159
sg64
(lp2171
S':'
asbag57
(g78
g59
NtRp2172
(dp2173
g62
(dp2174
sg71
g2159
sg64
(lp2175
g57
(g58
g59
NtRp2176
(dp2177
g62
(dp2178
g70
I5
ssg71
g2172
sg64
(lp2179
g1008
asbasbasbag57
(g73
g59
NtRp2180
(dp2181
g62
(dp2182
sg71
g67
sg64
(lp2183
g57
(g78
g59
NtRp2184
(dp2185
g62
(dp2186
g82
g83
ssg71
g2180
sg64
(lp2187
S'utcnow'
p2188
asbag57
(g78
g59
NtRp2189
(dp2190
g62
(dp2191
g89
g90
ssg71
g2180
sg64
(lp2192
S':'
asbag57
(g78
g59
NtRp2193
(dp2194
g62
(dp2195
sg71
g2180
sg64
(lp2196
g57
(g58
g59
NtRp2197
(dp2198
g62
(dp2199
g70
I5
ssg71
g2193
sg64
(lp2200
S'datetime.datetime(2013, 1, 31, 15, 49, 47, 468059)'
p2201
asbasbasbag57
(g73
g59
NtRp2202
(dp2203
g62
(dp2204
sg71
g67
sg64
(lp2205
g57
(g78
g59
NtRp2206
(dp2207
g62
(dp2208
g82
g83
ssg71
g2202
sg64
(lp2209
S'uuid'
p2210
asbag57
(g78
g59
NtRp2211
(dp2212
g62
(dp2213
g89
g90
ssg71
g2202
sg64
(lp2214
S':'
asbag57
(g78
g59
NtRp2215
(dp2216
g62
(dp2217
sg71
g2202
sg64
(lp2218
g57
(g58
g59
NtRp2219
(dp2220
g62
(dp2221
g70
I5
ssg71
g2215
sg64
(lp2222
S'irecycle/127.0.0.1.2013-01-31.13-49-47.a6fbefb1-1a32-47ce-aab2-8c42389433c8'
p2223
asbasbasbag57
(g73
g59
NtRp2224
(dp2225
g62
(dp2226
sg71
g67
sg64
(lp2227
g57
(g78
g59
NtRp2228
(dp2229
g62
(dp2230
g82
g83
ssg71
g2224
sg64
(lp2231
S'vars'
p2232
asbag57
(g78
g59
NtRp2233
(dp2234
g62
(dp2235
g89
g90
ssg71
g2224
sg64
(lp2236
S':'
asbag57
(g78
g59
NtRp2237
(dp2238
g62
(dp2239
sg71
g2224
sg64
(lp2240
g57
(g58
g59
NtRp2241
(dp2242
g62
(dp2243
g70
I5
ssg71
g2237
sg64
(lp2244
g57
(g66
g59
NtRp2245
(dp2246
g62
(dp2247
g70
I4
ssg71
Nsg64
(lp2248
sbasbasbasbag57
(g73
g59
NtRp2249
(dp2250
g62
(dp2251
sg71
g67
sg64
(lp2252
g57
(g78
g59
NtRp2253
(dp2254
g62
(dp2255
g82
g83
ssg71
g2249
sg64
(lp2256
S'wsgi'
p2257
asbag57
(g78
g59
NtRp2258
(dp2259
g62
(dp2260
g89
g90
ssg71
g2249
sg64
(lp2261
S':'
asbag57
(g78
g59
NtRp2262
(dp2263
g62
(dp2264
sg71
g2249
sg64
(lp2265
g57
(g58
g59
NtRp2266
(dp2267
g62
(dp2268
g70
I5
ssg71
g2262
sg64
(lp2269
g57
(g66
g59
NtRp2270
(dp2271
g62
(dp2272
g70
I4
ssg71
Nsg64
(lp2273
g57
(g73
g59
NtRp2274
(dp2275
g62
(dp2276
sg71
g2270
sg64
(lp2277
g57
(g78
g59
NtRp2278
(dp2279
g62
(dp2280
g82
g83
ssg71
g2274
sg64
(lp2281
S'environ'
p2282
asbag57
(g78
g59
NtRp2283
(dp2284
g62
(dp2285
g89
g90
ssg71
g2274
sg64
(lp2286
S':'
asbag57
(g78
g59
NtRp2287
(dp2288
g62
(dp2289
sg71
g2274
sg64
(lp2290
g57
(g58
g59
NtRp2291
(dp2292
g62
(dp2293
g70
I4
ssg71
g2287
sg64
(lp2294
g57
(g66
g59
NtRp2295
(dp2296
g62
(dp2297
g70
I3
ssg71
Nsg64
(lp2298
g57
(g73
g59
NtRp2299
(dp2300
g62
(dp2301
sg71
g2295
sg64
(lp2302
g57
(g78
g59
NtRp2303
(dp2304
g62
(dp2305
g82
g83
ssg71
g2299
sg64
(lp2306
S'HTTP_ACCEPT'
p2307
asbag57
(g78
g59
NtRp2308
(dp2309
g62
(dp2310
g89
g90
ssg71
g2299
sg64
(lp2311
S':'
asbag57
(g78
g59
NtRp2312
(dp2313
g62
(dp2314
sg71
g2299
sg64
(lp2315
g57
(g58
g59
NtRp2316
(dp2317
g62
(dp2318
g70
I3
ssg71
g2312
sg64
(lp2319
g656
asbasbasbag57
(g73
g59
NtRp2320
(dp2321
g62
(dp2322
sg71
g2295
sg64
(lp2323
g57
(g78
g59
NtRp2324
(dp2325
g62
(dp2326
g82
g83
ssg71
g2320
sg64
(lp2327
S'HTTP_ACCEPT_CHARSET'
p2328
asbag57
(g78
g59
NtRp2329
(dp2330
g62
(dp2331
g89
g90
ssg71
g2320
sg64
(lp2332
S':'
asbag57
(g78
g59
NtRp2333
(dp2334
g62
(dp2335
sg71
g2320
sg64
(lp2336
g57
(g58
g59
NtRp2337
(dp2338
g62
(dp2339
g70
I3
ssg71
g2333
sg64
(lp2340
g678
asbasbasbag57
(g73
g59
NtRp2341
(dp2342
g62
(dp2343
sg71
g2295
sg64
(lp2344
g57
(g78
g59
NtRp2345
(dp2346
g62
(dp2347
g82
g83
ssg71
g2341
sg64
(lp2348
S'HTTP_ACCEPT_ENCODING'
p2349
asbag57
(g78
g59
NtRp2350
(dp2351
g62
(dp2352
g89
g90
ssg71
g2341
sg64
(lp2353
S':'
asbag57
(g78
g59
NtRp2354
(dp2355
g62
(dp2356
sg71
g2341
sg64
(lp2357
g57
(g58
g59
NtRp2358
(dp2359
g62
(dp2360
g70
I3
ssg71
g2354
sg64
(lp2361
g700
asbasbasbag57
(g73
g59
NtRp2362
(dp2363
g62
(dp2364
sg71
g2295
sg64
(lp2365
g57
(g78
g59
NtRp2366
(dp2367
g62
(dp2368
g82
g83
ssg71
g2362
sg64
(lp2369
S'HTTP_ACCEPT_LANGUAGE'
p2370
asbag57
(g78
g59
NtRp2371
(dp2372
g62
(dp2373
g89
g90
ssg71
g2362
sg64
(lp2374
S':'
asbag57
(g78
g59
NtRp2375
(dp2376
g62
(dp2377
sg71
g2362
sg64
(lp2378
g57
(g58
g59
NtRp2379
(dp2380
g62
(dp2381
g70
I3
ssg71
g2375
sg64
(lp2382
g722
asbasbasbag57
(g73
g59
NtRp2383
(dp2384
g62
(dp2385
sg71
g2295
sg64
(lp2386
g57
(g78
g59
NtRp2387
(dp2388
g62
(dp2389
g82
g83
ssg71
g2383
sg64
(lp2390
S'HTTP_CACHE_CONTROL'
p2391
asbag57
(g78
g59
NtRp2392
(dp2393
g62
(dp2394
g89
g90
ssg71
g2383
sg64
(lp2395
S':'
asbag57
(g78
g59
NtRp2396
(dp2397
g62
(dp2398
sg71
g2383
sg64
(lp2399
g57
(g58
g59
NtRp2400
(dp2401
g62
(dp2402
g70
I3
ssg71
g2396
sg64
(lp2403
g744
asbasbasbag57
(g73
g59
NtRp2404
(dp2405
g62
(dp2406
sg71
g2295
sg64
(lp2407
g57
(g78
g59
NtRp2408
(dp2409
g62
(dp2410
g82
g83
ssg71
g2404
sg64
(lp2411
S'HTTP_CONNECTION'
p2412
asbag57
(g78
g59
NtRp2413
(dp2414
g62
(dp2415
g89
g90
ssg71
g2404
sg64
(lp2416
S':'
asbag57
(g78
g59
NtRp2417
(dp2418
g62
(dp2419
sg71
g2404
sg64
(lp2420
g57
(g58
g59
NtRp2421
(dp2422
g62
(dp2423
g70
I3
ssg71
g2417
sg64
(lp2424
g766
asbasbasbag57
(g73
g59
NtRp2425
(dp2426
g62
(dp2427
sg71
g2295
sg64
(lp2428
g57
(g78
g59
NtRp2429
(dp2430
g62
(dp2431
g82
g83
ssg71
g2425
sg64
(lp2432
S'HTTP_COOKIE'
p2433
asbag57
(g78
g59
NtRp2434
(dp2435
g62
(dp2436
g89
g90
ssg71
g2425
sg64
(lp2437
S':'
asbag57
(g78
g59
NtRp2438
(dp2439
g62
(dp2440
sg71
g2425
sg64
(lp2441
g57
(g58
g59
NtRp2442
(dp2443
g62
(dp2444
g70
I3
ssg71
g2438
sg64
(lp2445
g788
asbasbasbag57
(g73
g59
NtRp2446
(dp2447
g62
(dp2448
sg71
g2295
sg64
(lp2449
g57
(g78
g59
NtRp2450
(dp2451
g62
(dp2452
g82
g83
ssg71
g2446
sg64
(lp2453
S'HTTP_HOST'
p2454
asbag57
(g78
g59
NtRp2455
(dp2456
g62
(dp2457
g89
g90
ssg71
g2446
sg64
(lp2458
S':'
asbag57
(g78
g59
NtRp2459
(dp2460
g62
(dp2461
sg71
g2446
sg64
(lp2462
g57
(g58
g59
NtRp2463
(dp2464
g62
(dp2465
g70
I3
ssg71
g2459
sg64
(lp2466
g810
asbasbasbag57
(g73
g59
NtRp2467
(dp2468
g62
(dp2469
sg71
g2295
sg64
(lp2470
g57
(g78
g59
NtRp2471
(dp2472
g62
(dp2473
g82
g83
ssg71
g2467
sg64
(lp2474
S'HTTP_REFERER'
p2475
asbag57
(g78
g59
NtRp2476
(dp2477
g62
(dp2478
g89
g90
ssg71
g2467
sg64
(lp2479
S':'
asbag57
(g78
g59
NtRp2480
(dp2481
g62
(dp2482
sg71
g2467
sg64
(lp2483
g57
(g58
g59
NtRp2484
(dp2485
g62
(dp2486
g70
I3
ssg71
g2480
sg64
(lp2487
g832
asbasbasbag57
(g73
g59
NtRp2488
(dp2489
g62
(dp2490
sg71
g2295
sg64
(lp2491
g57
(g78
g59
NtRp2492
(dp2493
g62
(dp2494
g82
g83
ssg71
g2488
sg64
(lp2495
S'HTTP_USER_AGENT'
p2496
asbag57
(g78
g59
NtRp2497
(dp2498
g62
(dp2499
g89
g90
ssg71
g2488
sg64
(lp2500
S':'
asbag57
(g78
g59
NtRp2501
(dp2502
g62
(dp2503
sg71
g2488
sg64
(lp2504
g57
(g58
g59
NtRp2505
(dp2506
g62
(dp2507
g70
I3
ssg71
g2501
sg64
(lp2508
g854
asbasbasbag57
(g73
g59
NtRp2509
(dp2510
g62
(dp2511
sg71
g2295
sg64
(lp2512
g57
(g78
g59
NtRp2513
(dp2514
g62
(dp2515
g82
g83
ssg71
g2509
sg64
(lp2516
S'PATH_INFO'
p2517
asbag57
(g78
g59
NtRp2518
(dp2519
g62
(dp2520
g89
g90
ssg71
g2509
sg64
(lp2521
S':'
asbag57
(g78
g59
NtRp2522
(dp2523
g62
(dp2524
sg71
g2509
sg64
(lp2525
g57
(g58
g59
NtRp2526
(dp2527
g62
(dp2528
g70
I3
ssg71
g2522
sg64
(lp2529
g1008
asbasbasbag57
(g73
g59
NtRp2530
(dp2531
g62
(dp2532
sg71
g2295
sg64
(lp2533
g57
(g78
g59
NtRp2534
(dp2535
g62
(dp2536
g82
g83
ssg71
g2530
sg64
(lp2537
S'QUERY_STRING'
p2538
asbag57
(g78
g59
NtRp2539
(dp2540
g62
(dp2541
g89
g90
ssg71
g2530
sg64
(lp2542
S':'
asbag57
(g78
g59
NtRp2543
(dp2544
g62
(dp2545
sg71
g2530
sg64
(lp2546
g57
(g58
g59
NtRp2547
(dp2548
g62
(dp2549
g70
I3
ssg71
g2543
sg64
(lp2550
S''
asbasbasbag57
(g73
g59
NtRp2551
(dp2552
g62
(dp2553
sg71
g2295
sg64
(lp2554
g57
(g78
g59
NtRp2555
(dp2556
g62
(dp2557
g82
g83
ssg71
g2551
sg64
(lp2558
S'REMOTE_ADDR'
p2559
asbag57
(g78
g59
NtRp2560
(dp2561
g62
(dp2562
g89
g90
ssg71
g2551
sg64
(lp2563
S':'
asbag57
(g78
g59
NtRp2564
(dp2565
g62
(dp2566
sg71
g2551
sg64
(lp2567
g57
(g58
g59
NtRp2568
(dp2569
g62
(dp2570
g70
I3
ssg71
g2564
sg64
(lp2571
g212
asbasbasbag57
(g73
g59
NtRp2572
(dp2573
g62
(dp2574
sg71
g2295
sg64
(lp2575
g57
(g78
g59
NtRp2576
(dp2577
g62
(dp2578
g82
g83
ssg71
g2572
sg64
(lp2579
S'REMOTE_PORT'
p2580
asbag57
(g78
g59
NtRp2581
(dp2582
g62
(dp2583
g89
g90
ssg71
g2572
sg64
(lp2584
S':'
asbag57
(g78
g59
NtRp2585
(dp2586
g62
(dp2587
sg71
g2572
sg64
(lp2588
g57
(g58
g59
NtRp2589
(dp2590
g62
(dp2591
g70
I3
ssg71
g2585
sg64
(lp2592
g1072
asbasbasbag57
(g73
g59
NtRp2593
(dp2594
g62
(dp2595
sg71
g2295
sg64
(lp2596
g57
(g78
g59
NtRp2597
(dp2598
g62
(dp2599
g82
g83
ssg71
g2593
sg64
(lp2600
S'REQUEST_METHOD'
p2601
asbag57
(g78
g59
NtRp2602
(dp2603
g62
(dp2604
g89
g90
ssg71
g2593
sg64
(lp2605
S':'
asbag57
(g78
g59
NtRp2606
(dp2607
g62
(dp2608
sg71
g2593
sg64
(lp2609
g57
(g58
g59
NtRp2610
(dp2611
g62
(dp2612
g70
I3
ssg71
g2606
sg64
(lp2613
g1094
asbasbasbag57
(g73
g59
NtRp2614
(dp2615
g62
(dp2616
sg71
g2295
sg64
(lp2617
g57
(g78
g59
NtRp2618
(dp2619
g62
(dp2620
g82
g83
ssg71
g2614
sg64
(lp2621
S'REQUEST_URI'
p2622
asbag57
(g78
g59
NtRp2623
(dp2624
g62
(dp2625
g89
g90
ssg71
g2614
sg64
(lp2626
S':'
asbag57
(g78
g59
NtRp2627
(dp2628
g62
(dp2629
sg71
g2614
sg64
(lp2630
g57
(g58
g59
NtRp2631
(dp2632
g62
(dp2633
g70
I3
ssg71
g2627
sg64
(lp2634
g1008
asbasbasbag57
(g73
g59
NtRp2635
(dp2636
g62
(dp2637
sg71
g2295
sg64
(lp2638
g57
(g78
g59
NtRp2639
(dp2640
g62
(dp2641
g82
g83
ssg71
g2635
sg64
(lp2642
S'SCRIPT_NAME'
p2643
asbag57
(g78
g59
NtRp2644
(dp2645
g62
(dp2646
g89
g90
ssg71
g2635
sg64
(lp2647
S':'
asbag57
(g78
g59
NtRp2648
(dp2649
g62
(dp2650
sg71
g2635
sg64
(lp2651
g57
(g58
g59
NtRp2652
(dp2653
g62
(dp2654
g70
I3
ssg71
g2648
sg64
(lp2655
S''
asbasbasbag57
(g73
g59
NtRp2656
(dp2657
g62
(dp2658
sg71
g2295
sg64
(lp2659
g57
(g78
g59
NtRp2660
(dp2661
g62
(dp2662
g82
g83
ssg71
g2656
sg64
(lp2663
S'SERVER_NAME'
p2664
asbag57
(g78
g59
NtRp2665
(dp2666
g62
(dp2667
g89
g90
ssg71
g2656
sg64
(lp2668
S':'
asbag57
(g78
g59
NtRp2669
(dp2670
g62
(dp2671
sg71
g2656
sg64
(lp2672
g57
(g58
g59
NtRp2673
(dp2674
g62
(dp2675
g70
I3
ssg71
g2669
sg64
(lp2676
g1158
asbasbasbag57
(g73
g59
NtRp2677
(dp2678
g62
(dp2679
sg71
g2295
sg64
(lp2680
g57
(g78
g59
NtRp2681
(dp2682
g62
(dp2683
g82
g83
ssg71
g2677
sg64
(lp2684
S'SERVER_PORT'
p2685
asbag57
(g78
g59
NtRp2686
(dp2687
g62
(dp2688
g89
g90
ssg71
g2677
sg64
(lp2689
S':'
asbag57
(g78
g59
NtRp2690
(dp2691
g62
(dp2692
sg71
g2677
sg64
(lp2693
g57
(g58
g59
NtRp2694
(dp2695
g62
(dp2696
g70
I3
ssg71
g2690
sg64
(lp2697
g1180
asbasbasbag57
(g73
g59
NtRp2698
(dp2699
g62
(dp2700
sg71
g2295
sg64
(lp2701
g57
(g78
g59
NtRp2702
(dp2703
g62
(dp2704
g82
g83
ssg71
g2698
sg64
(lp2705
S'SERVER_PROTOCOL'
p2706
asbag57
(g78
g59
NtRp2707
(dp2708
g62
(dp2709
g89
g90
ssg71
g2698
sg64
(lp2710
S':'
asbag57
(g78
g59
NtRp2711
(dp2712
g62
(dp2713
sg71
g2698
sg64
(lp2714
g57
(g58
g59
NtRp2715
(dp2716
g62
(dp2717
g70
I3
ssg71
g2711
sg64
(lp2718
g1202
asbasbasbag57
(g73
g59
NtRp2719
(dp2720
g62
(dp2721
sg71
g2295
sg64
(lp2722
g57
(g78
g59
NtRp2723
(dp2724
g62
(dp2725
g82
g83
ssg71
g2719
sg64
(lp2726
S'SERVER_SOFTWARE'
p2727
asbag57
(g78
g59
NtRp2728
(dp2729
g62
(dp2730
g89
g90
ssg71
g2719
sg64
(lp2731
S':'
asbag57
(g78
g59
NtRp2732
(dp2733
g62
(dp2734
sg71
g2719
sg64
(lp2735
g57
(g58
g59
NtRp2736
(dp2737
g62
(dp2738
g70
I3
ssg71
g2732
sg64
(lp2739
g1224
asbasbasbag57
(g73
g59
NtRp2740
(dp2741
g62
(dp2742
sg71
g2295
sg64
(lp2743
g57
(g78
g59
NtRp2744
(dp2745
g62
(dp2746
g82
g83
ssg71
g2740
sg64
(lp2747
S'wsgi.errors'
p2748
asbag57
(g78
g59
NtRp2749
(dp2750
g62
(dp2751
g89
g90
ssg71
g2740
sg64
(lp2752
S':'
asbag57
(g78
g59
NtRp2753
(dp2754
g62
(dp2755
sg71
g2740
sg64
(lp2756
g57
(g58
g59
NtRp2757
(dp2758
g62
(dp2759
g70
I3
ssg71
g2753
sg64
(lp2760
S"<open file '<stderr>', mode 'w' at 0x7fbe13edc270>"
p2761
asbasbasbag57
(g73
g59
NtRp2762
(dp2763
g62
(dp2764
sg71
g2295
sg64
(lp2765
g57
(g78
g59
NtRp2766
(dp2767
g62
(dp2768
g82
g83
ssg71
g2762
sg64
(lp2769
S'wsgi.file_wrapper'
p2770
asbag57
(g78
g59
NtRp2771
(dp2772
g62
(dp2773
g89
g90
ssg71
g2762
sg64
(lp2774
S':'
asbag57
(g78
g59
NtRp2775
(dp2776
g62
(dp2777
sg71
g2762
sg64
(lp2778
g57
(g58
g59
NtRp2779
(dp2780
g62
(dp2781
g70
I3
ssg71
g2775
sg64
(lp2782
S'<class wsgiref.util.FileWrapper at 0x2b3d738>'
p2783
asbasbasbag57
(g73
g59
NtRp2784
(dp2785
g62
(dp2786
sg71
g2295
sg64
(lp2787
g57
(g78
g59
NtRp2788
(dp2789
g62
(dp2790
g82
g83
ssg71
g2784
sg64
(lp2791
S'wsgi.input'
p2792
asbag57
(g78
g59
NtRp2793
(dp2794
g62
(dp2795
g89
g90
ssg71
g2784
sg64
(lp2796
S':'
asbag57
(g78
g59
NtRp2797
(dp2798
g62
(dp2799
sg71
g2784
sg64
(lp2800
g57
(g58
g59
NtRp2801
(dp2802
g62
(dp2803
g70
I3
ssg71
g2797
sg64
(lp2804
S'<cStringIO.StringO object at 0x7fbdf00bb3e8>'
p2805
asbasbasbag57
(g73
g59
NtRp2806
(dp2807
g62
(dp2808
sg71
g2295
sg64
(lp2809
g57
(g78
g59
NtRp2810
(dp2811
g62
(dp2812
g82
g83
ssg71
g2806
sg64
(lp2813
S'wsgi.multiprocess'
p2814
asbag57
(g78
g59
NtRp2815
(dp2816
g62
(dp2817
g89
g90
ssg71
g2806
sg64
(lp2818
S':'
asbag57
(g78
g59
NtRp2819
(dp2820
g62
(dp2821
sg71
g2806
sg64
(lp2822
g57
(g58
g59
NtRp2823
(dp2824
g62
(dp2825
g70
I3
ssg71
g2819
sg64
(lp2826
g100
asbasbasbag57
(g73
g59
NtRp2827
(dp2828
g62
(dp2829
sg71
g2295
sg64
(lp2830
g57
(g78
g59
NtRp2831
(dp2832
g62
(dp2833
g82
g83
ssg71
g2827
sg64
(lp2834
S'wsgi.multithread'
p2835
asbag57
(g78
g59
NtRp2836
(dp2837
g62
(dp2838
g89
g90
ssg71
g2827
sg64
(lp2839
S':'
asbag57
(g78
g59
NtRp2840
(dp2841
g62
(dp2842
sg71
g2827
sg64
(lp2843
g57
(g58
g59
NtRp2844
(dp2845
g62
(dp2846
g70
I3
ssg71
g2840
sg64
(lp2847
g1441
asbasbasbag57
(g73
g59
NtRp2848
(dp2849
g62
(dp2850
sg71
g2295
sg64
(lp2851
g57
(g78
g59
NtRp2852
(dp2853
g62
(dp2854
g82
g83
ssg71
g2848
sg64
(lp2855
S'wsgi.run_once'
p2856
asbag57
(g78
g59
NtRp2857
(dp2858
g62
(dp2859
g89
g90
ssg71
g2848
sg64
(lp2860
S':'
asbag57
(g78
g59
NtRp2861
(dp2862
g62
(dp2863
sg71
g2848
sg64
(lp2864
g57
(g58
g59
NtRp2865
(dp2866
g62
(dp2867
g70
I3
ssg71
g2861
sg64
(lp2868
g100
asbasbasbag57
(g73
g59
NtRp2869
(dp2870
g62
(dp2871
sg71
g2295
sg64
(lp2872
g57
(g78
g59
NtRp2873
(dp2874
g62
(dp2875
g82
g83
ssg71
g2869
sg64
(lp2876
S'wsgi.url_scheme'
p2877
asbag57
(g78
g59
NtRp2878
(dp2879
g62
(dp2880
g89
g90
ssg71
g2869
sg64
(lp2881
S':'
asbag57
(g78
g59
NtRp2882
(dp2883
g62
(dp2884
sg71
g2869
sg64
(lp2885
g57
(g58
g59
NtRp2886
(dp2887
g62
(dp2888
g70
I3
ssg71
g2882
sg64
(lp2889
g1484
asbasbasbag57
(g73
g59
NtRp2890
(dp2891
g62
(dp2892
sg71
g2295
sg64
(lp2893
g57
(g78
g59
NtRp2894
(dp2895
g62
(dp2896
g82
g83
ssg71
g2890
sg64
(lp2897
S'wsgi.version'
p2898
asbag57
(g78
g59
NtRp2899
(dp2900
g62
(dp2901
g89
g90
ssg71
g2890
sg64
(lp2902
S':'
asbag57
(g78
g59
NtRp2903
(dp2904
g62
(dp2905
sg71
g2890
sg64
(lp2906
g57
(g58
g59
NtRp2907
(dp2908
g62
(dp2909
g70
I3
ssg71
g2903
sg64
(lp2910
S'1'
asbasbasbasbasbasbasbasbasbasbasbasbasbsS'frames'
p2911
(lp2912
(dp2913
S'file'
p2914
S'/home/diego/web2py/gluon/restricted.py'
p2915
sS'dump'
p2916
(dp2917
S'environment'
p2918
S"{'A': <class 'gluon.html.A'>, 'Auth': <class 'gluon.tools.Auth'>, 'B': <class 'gluon.html.B'>, 'BEAUTIFY': <class 'gluon.html.BEAUTIFY'>, 'BODY': <class 'gluon.html.BODY'>, 'BR': <class 'gluon.html.BR'>, 'BUTTON': <class 'gluon.html.BUTTON'>, 'CAT': <class 'gluon.html.CAT'>, 'CENTER': <class 'gluon.html.CENTER'>, 'CLEANUP': <class 'gluon.validators.CLEANUP'>, ...}"
p2919
sS'ccode'
p2920
S'<code object <module> at 0x7fbdf40dd530, file "/...ations/irecycle/views/default/home.html", line 1>'
p2921
ssS'lnum'
p2922
I212
sS'lines'
p2923
(dp2924
I207
S'    try:'
p2925
sI208
S'        if isinstance(code, types.CodeType):'
p2926
sI209
S'            ccode = code'
p2927
sI210
S'        else:'
p2928
sI211
S'            ccode = compile2(code, layer)'
p2929
sI212
S'        exec ccode in environment'
p2930
sI213
S'    except HTTP:'
p2931
sI214
S'        raise'
p2932
sI215
S'    except RestrictedError:'
p2933
sI216
S'        # do not encapsulate (obfuscate) the original RestrictedError'
p2934
ssS'call'
p2935
S'(code=r"response.write(\'\\n\\n\\n\\n\\n<!DOCTYPE html>\\n<html...n\\n  </body>\\n</html>\\n\\n\\n\\n\\n\\n\', escape=False)", environment={\'A\': <class \'gluon.html.A\'>, \'Auth\': <class \'gluon.tools.Auth\'>, \'B\': <class \'gluon.html.B\'>, \'BEAUTIFY\': <class \'gluon.html.BEAUTIFY\'>, \'BODY\': <class \'gluon.html.BODY\'>, \'BR\': <class \'gluon.html.BR\'>, \'BUTTON\': <class \'gluon.html.BUTTON\'>, \'CAT\': <class \'gluon.html.CAT\'>, \'CENTER\': <class \'gluon.html.CENTER\'>, \'CLEANUP\': <class \'gluon.validators.CLEANUP\'>, ...}, layer=\'/home/diego/web2py/applications/irecycle/views/default/home.html\')'
p2936
sS'func'
p2937
S'restricted'
p2938
sa(dp2939
g2914
S'/home/diego/web2py/applications/irecycle/views/default/home.html'
p2940
sg2916
(dp2941
S'top'
p2942
S'undefined'
p2943
sS'margin'
p2944
g2943
sS'px'
p2945
g2943
ssg2922
I35
sg2923
(dp2946
I32
S'response.write(\'">Friends</a></li>\\n\\t\\t\\t  <li><a href="\', escape=False)'
p2947
sI33
S"response.write(URL('search'))"
p2948
sI34
S'response.write(\'">Search</a></li>\\n\\t\\t\\t</ul>\\n\\t\\t  </div><!--/.nav-collapse -->\\n\\t\\t</div>\\n\\t  </div>\\n\\t</div>\\n\\n\\t<hr>\\n\\n\\t<h2>Ol\\xc3\\xa1  \', escape=False)'
p2949
sI35
S'response.write(user.name)'
p2950
sI36
S"response.write('</h2>\\n\\t\\n\\t', escape=False)"
p2951
sI37
S'response.write(form)'
p2952
sI38
S'response.write("\\n\\t<script>jQuery(\'textarea\').css(\'width\',\'600px\').css(\'height\',\'50px\');</script>\\n\\t", escape=False)'
p2953
sI39
S'for post in posts:'
p2954
sI40
S'    response.write(\'\\n\\t<div style="background: #f0f0f0; margin-bottom: 5px; padding: 8px;">\\n\\t\\t<h3>\', escape=False)'
p2955
sI41
S'    response.write(name_of(post.posted_by))'
p2956
sI42
S"    response.write(' on ', escape=False)"
p2957
sI43
S'    response.write(post.posted_on)'
p2958
sI44
S"    response.write(':</h3>\\n\\t\\t', escape=False)"
p2959
sI45
S'    response.write(MARKMIN(post.body))'
p2960
sI26
S'response.write(\'\\n\\t\\t\\t  <!-- Logged in as <a href="#" class="navbar-link">Username</a> -->\\n\\t\\t\\t</p>\\n\\t\\t\\t<ul class="nav">\\n\\t\\t\\t  <li class="active"><a href="\', escape=False)'
p2961
sI27
S"response.write(URL('index'))"
p2962
sI28
S'response.write(\'">Home</a></li>\\n\\t\\t\\t  <li><a href="\', escape=False)'
p2963
sI29
S"response.write(URL('wall'))"
p2964
sI30
S'response.write(\'">Wall</a></li>\\n\\t\\t\\t  <li><a href="\', escape=False)'
p2965
sI31
S"response.write(URL('friends'))"
p2966
ssg2935
S'()'
p2967
sg2937
S'<module>'
p2968
sasS'pyver'
p2969
S'Python 2.7.3: /usr/bin/python'
p2970
sS'session'
p2971
g57
(g58
g59
NtRp2972
(dp2973
g62
(dp2974
sg64
(lp2975
g57
(g66
g59
NtRp2976
(dp2977
g62
(dp2978
g70
I5
ssg71
Nsg64
(lp2979
g57
(g73
g59
NtRp2980
(dp2981
g62
(dp2982
sg71
g2976
sg64
(lp2983
g57
(g78
g59
NtRp2984
(dp2985
g62
(dp2986
g82
g83
ssg71
g2980
sg64
(lp2987
S'auth'
p2988
asbag57
(g78
g59
NtRp2989
(dp2990
g62
(dp2991
g89
g90
ssg71
g2980
sg64
(lp2992
S':'
asbag57
(g78
g59
NtRp2993
(dp2994
g62
(dp2995
sg71
g2980
sg64
(lp2996
g57
(g58
g59
NtRp2997
(dp2998
g62
(dp2999
g70
I5
ssg71
g2993
sg64
(lp3000
g57
(g66
g59
NtRp3001
(dp3002
g62
(dp3003
g70
I4
ssg71
Nsg64
(lp3004
g57
(g73
g59
NtRp3005
(dp3006
g62
(dp3007
sg71
g3001
sg64
(lp3008
g57
(g78
g59
NtRp3009
(dp3010
g62
(dp3011
g82
g83
ssg71
g3005
sg64
(lp3012
S'expiration'
p3013
asbag57
(g78
g59
NtRp3014
(dp3015
g62
(dp3016
g89
g90
ssg71
g3005
sg64
(lp3017
S':'
asbag57
(g78
g59
NtRp3018
(dp3019
g62
(dp3020
sg71
g3005
sg64
(lp3021
g57
(g58
g59
NtRp3022
(dp3023
g62
(dp3024
g70
I4
ssg71
g3018
sg64
(lp3025
S'3600'
p3026
asbasbasbag57
(g73
g59
NtRp3027
(dp3028
g62
(dp3029
sg71
g3001
sg64
(lp3030
g57
(g78
g59
NtRp3031
(dp3032
g62
(dp3033
g82
g83
ssg71
g3027
sg64
(lp3034
S'hmac_key'
p3035
asbag57
(g78
g59
NtRp3036
(dp3037
g62
(dp3038
g89
g90
ssg71
g3027
sg64
(lp3039
S':'
asbag57
(g78
g59
NtRp3040
(dp3041
g62
(dp3042
sg71
g3027
sg64
(lp3043
g57
(g58
g59
NtRp3044
(dp3045
g62
(dp3046
g70
I4
ssg71
g3040
sg64
(lp3047
S'e92ef018-9459-4821-a5a5-469b557cdc63'
p3048
asbasbasbag57
(g73
g59
NtRp3049
(dp3050
g62
(dp3051
sg71
g3001
sg64
(lp3052
g57
(g78
g59
NtRp3053
(dp3054
g62
(dp3055
g82
g83
ssg71
g3049
sg64
(lp3056
S'last_visit'
p3057
asbag57
(g78
g59
NtRp3058
(dp3059
g62
(dp3060
g89
g90
ssg71
g3049
sg64
(lp3061
S':'
asbag57
(g78
g59
NtRp3062
(dp3063
g62
(dp3064
sg71
g3049
sg64
(lp3065
g57
(g58
g59
NtRp3066
(dp3067
g62
(dp3068
g70
I4
ssg71
g3062
sg64
(lp3069
S'datetime.datetime(2013, 1, 31, 13, 46, 0, 729073)'
p3070
asbasbasbag57
(g73
g59
NtRp3071
(dp3072
g62
(dp3073
sg71
g3001
sg64
(lp3074
g57
(g78
g59
NtRp3075
(dp3076
g62
(dp3077
g82
g83
ssg71
g3071
sg64
(lp3078
S'remember'
p3079
asbag57
(g78
g59
NtRp3080
(dp3081
g62
(dp3082
g89
g90
ssg71
g3071
sg64
(lp3083
S':'
asbag57
(g78
g59
NtRp3084
(dp3085
g62
(dp3086
sg71
g3071
sg64
(lp3087
g57
(g58
g59
NtRp3088
(dp3089
g62
(dp3090
g70
I4
ssg71
g3084
sg64
(lp3091
g100
asbasbasbag57
(g73
g59
NtRp3092
(dp3093
g62
(dp3094
sg71
g3001
sg64
(lp3095
g57
(g78
g59
NtRp3096
(dp3097
g62
(dp3098
g82
g83
ssg71
g3092
sg64
(lp3099
S'user'
p3100
asbag57
(g78
g59
NtRp3101
(dp3102
g62
(dp3103
g89
g90
ssg71
g3092
sg64
(lp3104
S':'
asbag57
(g78
g59
NtRp3105
(dp3106
g62
(dp3107
sg71
g3092
sg64
(lp3108
g57
(g58
g59
NtRp3109
(dp3110
g62
(dp3111
g70
I4
ssg71
g3105
sg64
(lp3112
g57
(g66
g59
NtRp3113
(dp3114
g62
(dp3115
g70
I3
ssg71
Nsg64
(lp3116
g57
(g73
g59
NtRp3117
(dp3118
g62
(dp3119
sg71
g3113
sg64
(lp3120
g57
(g78
g59
NtRp3121
(dp3122
g62
(dp3123
g82
g83
ssg71
g3117
sg64
(lp3124
S'avatar'
p3125
asbag57
(g78
g59
NtRp3126
(dp3127
g62
(dp3128
g89
g90
ssg71
g3117
sg64
(lp3129
S':'
asbag57
(g78
g59
NtRp3130
(dp3131
g62
(dp3132
sg71
g3117
sg64
(lp3133
g57
(g58
g59
NtRp3134
(dp3135
g62
(dp3136
g70
I3
ssg71
g3130
sg64
(lp3137
S''
asbasbasbag57
(g73
g59
NtRp3138
(dp3139
g62
(dp3140
sg71
g3113
sg64
(lp3141
g57
(g78
g59
NtRp3142
(dp3143
g62
(dp3144
g82
g83
ssg71
g3138
sg64
(lp3145
S'email'
p3146
asbag57
(g78
g59
NtRp3147
(dp3148
g62
(dp3149
g89
g90
ssg71
g3138
sg64
(lp3150
S':'
asbag57
(g78
g59
NtRp3151
(dp3152
g62
(dp3153
sg71
g3138
sg64
(lp3154
g57
(g58
g59
NtRp3155
(dp3156
g62
(dp3157
g70
I3
ssg71
g3151
sg64
(lp3158
S'diego@teste.com'
p3159
asbasbasbag57
(g73
g59
NtRp3160
(dp3161
g62
(dp3162
sg71
g3113
sg64
(lp3163
g57
(g78
g59
NtRp3164
(dp3165
g62
(dp3166
g82
g83
ssg71
g3160
sg64
(lp3167
S'first_name'
p3168
asbag57
(g78
g59
NtRp3169
(dp3170
g62
(dp3171
g89
g90
ssg71
g3160
sg64
(lp3172
S':'
asbag57
(g78
g59
NtRp3173
(dp3174
g62
(dp3175
sg71
g3160
sg64
(lp3176
g57
(g58
g59
NtRp3177
(dp3178
g62
(dp3179
g70
I3
ssg71
g3173
sg64
(lp3180
S'diego'
p3181
asbasbasbag57
(g73
g59
NtRp3182
(dp3183
g62
(dp3184
sg71
g3113
sg64
(lp3185
g57
(g78
g59
NtRp3186
(dp3187
g62
(dp3188
g82
g83
ssg71
g3182
sg64
(lp3189
S'id'
p3190
asbag57
(g78
g59
NtRp3191
(dp3192
g62
(dp3193
g89
g90
ssg71
g3182
sg64
(lp3194
S':'
asbag57
(g78
g59
NtRp3195
(dp3196
g62
(dp3197
sg71
g3182
sg64
(lp3198
g57
(g58
g59
NtRp3199
(dp3200
g62
(dp3201
g70
I3
ssg71
g3195
sg64
(lp3202
S'1'
asbasbasbag57
(g73
g59
NtRp3203
(dp3204
g62
(dp3205
sg71
g3113
sg64
(lp3206
g57
(g78
g59
NtRp3207
(dp3208
g62
(dp3209
g82
g83
ssg71
g3203
sg64
(lp3210
S'last_name'
p3211
asbag57
(g78
g59
NtRp3212
(dp3213
g62
(dp3214
g89
g90
ssg71
g3203
sg64
(lp3215
S':'
asbag57
(g78
g59
NtRp3216
(dp3217
g62
(dp3218
sg71
g3203
sg64
(lp3219
g57
(g58
g59
NtRp3220
(dp3221
g62
(dp3222
g70
I3
ssg71
g3216
sg64
(lp3223
S'miranda'
p3224
asbasbasbag57
(g73
g59
NtRp3225
(dp3226
g62
(dp3227
sg71
g3113
sg64
(lp3228
g57
(g78
g59
NtRp3229
(dp3230
g62
(dp3231
g82
g83
ssg71
g3225
sg64
(lp3232
S'registration_id'
p3233
asbag57
(g78
g59
NtRp3234
(dp3235
g62
(dp3236
g89
g90
ssg71
g3225
sg64
(lp3237
S':'
asbag57
(g78
g59
NtRp3238
(dp3239
g62
(dp3240
sg71
g3225
sg64
(lp3241
g57
(g58
g59
NtRp3242
(dp3243
g62
(dp3244
g70
I3
ssg71
g3238
sg64
(lp3245
S''
asbasbasbag57
(g73
g59
NtRp3246
(dp3247
g62
(dp3248
sg71
g3113
sg64
(lp3249
g57
(g78
g59
NtRp3250
(dp3251
g62
(dp3252
g82
g83
ssg71
g3246
sg64
(lp3253
S'registration_key'
p3254
asbag57
(g78
g59
NtRp3255
(dp3256
g62
(dp3257
g89
g90
ssg71
g3246
sg64
(lp3258
S':'
asbag57
(g78
g59
NtRp3259
(dp3260
g62
(dp3261
sg71
g3246
sg64
(lp3262
g57
(g58
g59
NtRp3263
(dp3264
g62
(dp3265
g70
I3
ssg71
g3259
sg64
(lp3266
S''
asbasbasbag57
(g73
g59
NtRp3267
(dp3268
g62
(dp3269
sg71
g3113
sg64
(lp3270
g57
(g78
g59
NtRp3271
(dp3272
g62
(dp3273
g82
g83
ssg71
g3267
sg64
(lp3274
S'reset_password_key'
p3275
asbag57
(g78
g59
NtRp3276
(dp3277
g62
(dp3278
g89
g90
ssg71
g3267
sg64
(lp3279
S':'
asbag57
(g78
g59
NtRp3280
(dp3281
g62
(dp3282
sg71
g3267
sg64
(lp3283
g57
(g58
g59
NtRp3284
(dp3285
g62
(dp3286
g70
I3
ssg71
g3280
sg64
(lp3287
S''
asbasbasbag57
(g73
g59
NtRp3288
(dp3289
g62
(dp3290
sg71
g3113
sg64
(lp3291
g57
(g78
g59
NtRp3292
(dp3293
g62
(dp3294
g82
g83
ssg71
g3288
sg64
(lp3295
S'thumbnail'
p3296
asbag57
(g78
g59
NtRp3297
(dp3298
g62
(dp3299
g89
g90
ssg71
g3288
sg64
(lp3300
S':'
asbag57
(g78
g59
NtRp3301
(dp3302
g62
(dp3303
sg71
g3288
sg64
(lp3304
g57
(g58
g59
NtRp3305
(dp3306
g62
(dp3307
g70
I3
ssg71
g3301
sg64
(lp3308
S''
asbasbasbasbasbasbasbag57
(g73
g59
NtRp3309
(dp3310
g62
(dp3311
sg71
g3001
sg64
(lp3312
g57
(g78
g59
NtRp3313
(dp3314
g62
(dp3315
g82
g83
ssg71
g3309
sg64
(lp3316
S'user_groups'
p3317
asbag57
(g78
g59
NtRp3318
(dp3319
g62
(dp3320
g89
g90
ssg71
g3309
sg64
(lp3321
S':'
asbag57
(g78
g59
NtRp3322
(dp3323
g62
(dp3324
sg71
g3309
sg64
(lp3325
g57
(g58
g59
NtRp3326
(dp3327
g62
(dp3328
g70
I4
ssg71
g3322
sg64
(lp3329
g57
(g66
g59
NtRp3330
(dp3331
g62
(dp3332
g70
I3
ssg71
Nsg64
(lp3333
sbasbasbasbasbasbasbasbag57
(g73
g59
NtRp3334
(dp3335
g62
(dp3336
sg71
g2976
sg64
(lp3337
g57
(g78
g59
NtRp3338
(dp3339
g62
(dp3340
g82
g83
ssg71
g3334
sg64
(lp3341
S'flash'
p3342
asbag57
(g78
g59
NtRp3343
(dp3344
g62
(dp3345
g89
g90
ssg71
g3334
sg64
(lp3346
S':'
asbag57
(g78
g59
NtRp3347
(dp3348
g62
(dp3349
sg71
g3334
sg64
(lp3350
g57
(g58
g59
NtRp3351
(dp3352
g62
(dp3353
g70
I5
ssg71
g3347
sg64
(lp3354
S'None'
p3355
asbasbasbasbasbsS'etype'
p3356
S"<type 'exceptions.NameError'>"
p3357
sS'date'
p3358
S'Thu Jan 31 13:49:47 2013'
p3359
sS'response'
p3360
g57
(g58
g59
NtRp3361
(dp3362
g62
(dp3363
sg64
(lp3364
g57
(g66
g59
NtRp3365
(dp3366
g62
(dp3367
g70
I5
ssg71
Nsg64
(lp3368
g57
(g73
g59
NtRp3369
(dp3370
g62
(dp3371
sg71
g3365
sg64
(lp3372
g57
(g78
g59
NtRp3373
(dp3374
g62
(dp3375
g82
g83
ssg71
g3369
sg64
(lp3376
g155
asbag57
(g78
g59
NtRp3377
(dp3378
g62
(dp3379
g89
g90
ssg71
g3369
sg64
(lp3380
S':'
asbag57
(g78
g59
NtRp3381
(dp3382
g62
(dp3383
sg71
g3369
sg64
(lp3384
g57
(g58
g59
NtRp3385
(dp3386
g62
(dp3387
g70
I5
ssg71
g3381
sg64
(lp3388
S'<cStringIO.StringO object at 0x7fbdf00bbea0>'
p3389
asbasbasbag57
(g73
g59
NtRp3390
(dp3391
g62
(dp3392
sg71
g3365
sg64
(lp3393
g57
(g78
g59
NtRp3394
(dp3395
g62
(dp3396
g82
g83
ssg71
g3390
sg64
(lp3397
g243
asbag57
(g78
g59
NtRp3398
(dp3399
g62
(dp3400
g89
g90
ssg71
g3390
sg64
(lp3401
S':'
asbag57
(g78
g59
NtRp3402
(dp3403
g62
(dp3404
sg71
g3390
sg64
(lp3405
g57
(g58
g59
NtRp3406
(dp3407
g62
(dp3408
g70
I5
ssg71
g3402
sg64
(lp3409
g57
(g66
g59
NtRp3410
(dp3411
g62
(dp3412
g70
I4
ssg71
Nsg64
(lp3413
g57
(g73
g59
NtRp3414
(dp3415
g62
(dp3416
sg71
g3410
sg64
(lp3417
g57
(g78
g59
NtRp3418
(dp3419
g62
(dp3420
g82
g83
ssg71
g3414
sg64
(lp3421
S'session_id_irecycle'
p3422
asbag57
(g78
g59
NtRp3423
(dp3424
g62
(dp3425
g89
g90
ssg71
g3414
sg64
(lp3426
S':'
asbag57
(g78
g59
NtRp3427
(dp3428
g62
(dp3429
sg71
g3414
sg64
(lp3430
g57
(g58
g59
NtRp3431
(dp3432
g62
(dp3433
g70
I4
ssg71
g3427
sg64
(lp3434
g281
ag57
(g66
g59
NtRp3435
(dp3436
g62
(dp3437
g70
I3
ssg71
Nsg64
(lp3438
g57
(g73
g59
NtRp3439
(dp3440
g62
(dp3441
sg71
g3435
sg64
(lp3442
g57
(g78
g59
NtRp3443
(dp3444
g62
(dp3445
g82
g83
ssg71
g3439
sg64
(lp3446
g294
asbag57
(g78
g59
NtRp3447
(dp3448
g62
(dp3449
g89
g90
ssg71
g3439
sg64
(lp3450
S':'
asbag57
(g78
g59
NtRp3451
(dp3452
g62
(dp3453
sg71
g3439
sg64
(lp3454
g57
(g58
g59
NtRp3455
(dp3456
g62
(dp3457
g70
I3
ssg71
g3451
sg64
(lp3458
S''
asbasbasbag57
(g73
g59
NtRp3459
(dp3460
g62
(dp3461
sg71
g3435
sg64
(lp3462
g57
(g78
g59
NtRp3463
(dp3464
g62
(dp3465
g82
g83
ssg71
g3459
sg64
(lp3466
g315
asbag57
(g78
g59
NtRp3467
(dp3468
g62
(dp3469
g89
g90
ssg71
g3459
sg64
(lp3470
S':'
asbag57
(g78
g59
NtRp3471
(dp3472
g62
(dp3473
sg71
g3459
sg64
(lp3474
g57
(g58
g59
NtRp3475
(dp3476
g62
(dp3477
g70
I3
ssg71
g3471
sg64
(lp3478
S''
asbasbasbag57
(g73
g59
NtRp3479
(dp3480
g62
(dp3481
sg71
g3435
sg64
(lp3482
g57
(g78
g59
NtRp3483
(dp3484
g62
(dp3485
g82
g83
ssg71
g3479
sg64
(lp3486
g336
asbag57
(g78
g59
NtRp3487
(dp3488
g62
(dp3489
g89
g90
ssg71
g3479
sg64
(lp3490
S':'
asbag57
(g78
g59
NtRp3491
(dp3492
g62
(dp3493
sg71
g3479
sg64
(lp3494
g57
(g58
g59
NtRp3495
(dp3496
g62
(dp3497
g70
I3
ssg71
g3491
sg64
(lp3498
S''
asbasbasbag57
(g73
g59
NtRp3499
(dp3500
g62
(dp3501
sg71
g3435
sg64
(lp3502
g57
(g78
g59
NtRp3503
(dp3504
g62
(dp3505
g82
g83
ssg71
g3499
sg64
(lp3506
g357
asbag57
(g78
g59
NtRp3507
(dp3508
g62
(dp3509
g89
g90
ssg71
g3499
sg64
(lp3510
S':'
asbag57
(g78
g59
NtRp3511
(dp3512
g62
(dp3513
sg71
g3499
sg64
(lp3514
g57
(g58
g59
NtRp3515
(dp3516
g62
(dp3517
g70
I3
ssg71
g3511
sg64
(lp3518
S''
asbasbasbag57
(g73
g59
NtRp3519
(dp3520
g62
(dp3521
sg71
g3435
sg64
(lp3522
g57
(g78
g59
NtRp3523
(dp3524
g62
(dp3525
g82
g83
ssg71
g3519
sg64
(lp3526
g378
asbag57
(g78
g59
NtRp3527
(dp3528
g62
(dp3529
g89
g90
ssg71
g3519
sg64
(lp3530
S':'
asbag57
(g78
g59
NtRp3531
(dp3532
g62
(dp3533
sg71
g3519
sg64
(lp3534
g57
(g58
g59
NtRp3535
(dp3536
g62
(dp3537
g70
I3
ssg71
g3531
sg64
(lp3538
S''
asbasbasbag57
(g73
g59
NtRp3539
(dp3540
g62
(dp3541
sg71
g3435
sg64
(lp3542
g57
(g78
g59
NtRp3543
(dp3544
g62
(dp3545
g82
g83
ssg71
g3539
sg64
(lp3546
g399
asbag57
(g78
g59
NtRp3547
(dp3548
g62
(dp3549
g89
g90
ssg71
g3539
sg64
(lp3550
S':'
asbag57
(g78
g59
NtRp3551
(dp3552
g62
(dp3553
sg71
g3539
sg64
(lp3554
g57
(g58
g59
NtRp3555
(dp3556
g62
(dp3557
g70
I3
ssg71
g3551
sg64
(lp3558
S'/'
asbasbasbag57
(g73
g59
NtRp3559
(dp3560
g62
(dp3561
sg71
g3435
sg64
(lp3562
g57
(g78
g59
NtRp3563
(dp3564
g62
(dp3565
g82
g83
ssg71
g3559
sg64
(lp3566
g420
asbag57
(g78
g59
NtRp3567
(dp3568
g62
(dp3569
g89
g90
ssg71
g3559
sg64
(lp3570
S':'
asbag57
(g78
g59
NtRp3571
(dp3572
g62
(dp3573
sg71
g3559
sg64
(lp3574
g57
(g58
g59
NtRp3575
(dp3576
g62
(dp3577
g70
I3
ssg71
g3571
sg64
(lp3578
S''
asbasbasbag57
(g73
g59
NtRp3579
(dp3580
g62
(dp3581
sg71
g3435
sg64
(lp3582
g57
(g78
g59
NtRp3583
(dp3584
g62
(dp3585
g82
g83
ssg71
g3579
sg64
(lp3586
g441
asbag57
(g78
g59
NtRp3587
(dp3588
g62
(dp3589
g89
g90
ssg71
g3579
sg64
(lp3590
S':'
asbag57
(g78
g59
NtRp3591
(dp3592
g62
(dp3593
sg71
g3579
sg64
(lp3594
g57
(g58
g59
NtRp3595
(dp3596
g62
(dp3597
g70
I3
ssg71
g3591
sg64
(lp3598
S''
asbasbasbasbasbasbasbasbasbasbasbag57
(g73
g59
NtRp3599
(dp3600
g62
(dp3601
sg71
g3365
sg64
(lp3602
g57
(g78
g59
NtRp3603
(dp3604
g62
(dp3605
g82
g83
ssg71
g3599
sg64
(lp3606
S'delimiters'
p3607
asbag57
(g78
g59
NtRp3608
(dp3609
g62
(dp3610
g89
g90
ssg71
g3599
sg64
(lp3611
S':'
asbag57
(g78
g59
NtRp3612
(dp3613
g62
(dp3614
sg71
g3599
sg64
(lp3615
g57
(g58
g59
NtRp3616
(dp3617
g62
(dp3618
g70
I5
ssg71
g3612
sg64
(lp3619
g57
(g66
g59
NtRp3620
(dp3621
g62
(dp3622
g70
I4
ssg71
Nsg64
(lp3623
g57
(g73
g59
NtRp3624
(dp3625
g62
(dp3626
sg71
g3620
sg64
(lp3627
g57
(g78
g59
NtRp3628
(dp3629
g62
(dp3630
sg71
g3624
sg64
(lp3631
g57
(g58
g59
NtRp3632
(dp3633
g62
(dp3634
g70
I4
ssg71
g3628
sg64
(lp3635
S'{{'
p3636
asbasbasbag57
(g73
g59
NtRp3637
(dp3638
g62
(dp3639
sg71
g3620
sg64
(lp3640
g57
(g78
g59
NtRp3641
(dp3642
g62
(dp3643
sg71
g3637
sg64
(lp3644
g57
(g58
g59
NtRp3645
(dp3646
g62
(dp3647
g70
I4
ssg71
g3641
sg64
(lp3648
S'}}'
p3649
asbasbasbasbasbasbasbag57
(g73
g59
NtRp3650
(dp3651
g62
(dp3652
sg71
g3365
sg64
(lp3653
g57
(g78
g59
NtRp3654
(dp3655
g62
(dp3656
g82
g83
ssg71
g3650
sg64
(lp3657
S'files'
p3658
asbag57
(g78
g59
NtRp3659
(dp3660
g62
(dp3661
g89
g90
ssg71
g3650
sg64
(lp3662
S':'
asbag57
(g78
g59
NtRp3663
(dp3664
g62
(dp3665
sg71
g3650
sg64
(lp3666
g57
(g58
g59
NtRp3667
(dp3668
g62
(dp3669
g70
I5
ssg71
g3663
sg64
(lp3670
g57
(g66
g59
NtRp3671
(dp3672
g62
(dp3673
g70
I4
ssg71
Nsg64
(lp3674
g57
(g73
g59
NtRp3675
(dp3676
g62
(dp3677
sg71
g3671
sg64
(lp3678
g57
(g78
g59
NtRp3679
(dp3680
g62
(dp3681
sg71
g3675
sg64
(lp3682
g57
(g58
g59
NtRp3683
(dp3684
g62
(dp3685
g70
I4
ssg71
g3679
sg64
(lp3686
S'/irecycle/static/js/jquery.js'
p3687
asbasbasbag57
(g73
g59
NtRp3688
(dp3689
g62
(dp3690
sg71
g3671
sg64
(lp3691
g57
(g78
g59
NtRp3692
(dp3693
g62
(dp3694
sg71
g3688
sg64
(lp3695
g57
(g58
g59
NtRp3696
(dp3697
g62
(dp3698
g70
I4
ssg71
g3692
sg64
(lp3699
S'/irecycle/static/css/calendar.css'
p3700
asbasbasbag57
(g73
g59
NtRp3701
(dp3702
g62
(dp3703
sg71
g3671
sg64
(lp3704
g57
(g78
g59
NtRp3705
(dp3706
g62
(dp3707
sg71
g3701
sg64
(lp3708
g57
(g58
g59
NtRp3709
(dp3710
g62
(dp3711
g70
I4
ssg71
g3705
sg64
(lp3712
S'/irecycle/static/js/calendar.js'
p3713
asbasbasbag57
(g73
g59
NtRp3714
(dp3715
g62
(dp3716
sg71
g3671
sg64
(lp3717
g57
(g78
g59
NtRp3718
(dp3719
g62
(dp3720
sg71
g3714
sg64
(lp3721
g57
(g58
g59
NtRp3722
(dp3723
g62
(dp3724
g70
I4
ssg71
g3718
sg64
(lp3725
S'/irecycle/static/js/web2py.js'
p3726
asbasbasbasbasbasbasbag57
(g73
g59
NtRp3727
(dp3728
g62
(dp3729
sg71
g3365
sg64
(lp3730
g57
(g78
g59
NtRp3731
(dp3732
g62
(dp3733
g82
g83
ssg71
g3727
sg64
(lp3734
S'flash'
p3735
asbag57
(g78
g59
NtRp3736
(dp3737
g62
(dp3738
g89
g90
ssg71
g3727
sg64
(lp3739
S':'
asbag57
(g78
g59
NtRp3740
(dp3741
g62
(dp3742
sg71
g3727
sg64
(lp3743
g57
(g58
g59
NtRp3744
(dp3745
g62
(dp3746
g70
I5
ssg71
g3740
sg64
(lp3747
S''
asbasbasbag57
(g73
g59
NtRp3748
(dp3749
g62
(dp3750
sg71
g3365
sg64
(lp3751
g57
(g78
g59
NtRp3752
(dp3753
g62
(dp3754
g82
g83
ssg71
g3748
sg64
(lp3755
S'generic_patterns'
p3756
asbag57
(g78
g59
NtRp3757
(dp3758
g62
(dp3759
g89
g90
ssg71
g3748
sg64
(lp3760
S':'
asbag57
(g78
g59
NtRp3761
(dp3762
g62
(dp3763
sg71
g3748
sg64
(lp3764
g57
(g58
g59
NtRp3765
(dp3766
g62
(dp3767
g70
I5
ssg71
g3761
sg64
(lp3768
g57
(g66
g59
NtRp3769
(dp3770
g62
(dp3771
g70
I4
ssg71
Nsg64
(lp3772
g57
(g73
g59
NtRp3773
(dp3774
g62
(dp3775
sg71
g3769
sg64
(lp3776
g57
(g78
g59
NtRp3777
(dp3778
g62
(dp3779
sg71
g3773
sg64
(lp3780
g57
(g58
g59
NtRp3781
(dp3782
g62
(dp3783
g70
I4
ssg71
g3777
sg64
(lp3784
S'*'
asbasbasbasbasbasbasbag57
(g73
g59
NtRp3785
(dp3786
g62
(dp3787
sg71
g3365
sg64
(lp3788
g57
(g78
g59
NtRp3789
(dp3790
g62
(dp3791
g82
g83
ssg71
g3785
sg64
(lp3792
S'headers'
p3793
asbag57
(g78
g59
NtRp3794
(dp3795
g62
(dp3796
g89
g90
ssg71
g3785
sg64
(lp3797
S':'
asbag57
(g78
g59
NtRp3798
(dp3799
g62
(dp3800
sg71
g3785
sg64
(lp3801
g57
(g58
g59
NtRp3802
(dp3803
g62
(dp3804
g70
I5
ssg71
g3798
sg64
(lp3805
g57
(g66
g59
NtRp3806
(dp3807
g62
(dp3808
g70
I4
ssg71
Nsg64
(lp3809
g57
(g73
g59
NtRp3810
(dp3811
g62
(dp3812
sg71
g3806
sg64
(lp3813
g57
(g78
g59
NtRp3814
(dp3815
g62
(dp3816
g82
g83
ssg71
g3810
sg64
(lp3817
S'X-Powered-By'
p3818
asbag57
(g78
g59
NtRp3819
(dp3820
g62
(dp3821
g89
g90
ssg71
g3810
sg64
(lp3822
S':'
asbag57
(g78
g59
NtRp3823
(dp3824
g62
(dp3825
sg71
g3810
sg64
(lp3826
g57
(g58
g59
NtRp3827
(dp3828
g62
(dp3829
g70
I4
ssg71
g3823
sg64
(lp3830
S'web2py'
p3831
asbasbasbasbasbasbasbag57
(g73
g59
NtRp3832
(dp3833
g62
(dp3834
sg71
g3365
sg64
(lp3835
g57
(g78
g59
NtRp3836
(dp3837
g62
(dp3838
g82
g83
ssg71
g3832
sg64
(lp3839
S'menu'
p3840
asbag57
(g78
g59
NtRp3841
(dp3842
g62
(dp3843
g89
g90
ssg71
g3832
sg64
(lp3844
S':'
asbag57
(g78
g59
NtRp3845
(dp3846
g62
(dp3847
sg71
g3832
sg64
(lp3848
g57
(g58
g59
NtRp3849
(dp3850
g62
(dp3851
g70
I5
ssg71
g3845
sg64
(lp3852
g57
(g66
g59
NtRp3853
(dp3854
g62
(dp3855
g70
I4
ssg71
Nsg64
(lp3856
g57
(g73
g59
NtRp3857
(dp3858
g62
(dp3859
sg71
g3853
sg64
(lp3860
g57
(g78
g59
NtRp3861
(dp3862
g62
(dp3863
sg71
g3857
sg64
(lp3864
g57
(g58
g59
NtRp3865
(dp3866
g62
(dp3867
g70
I4
ssg71
g3861
sg64
(lp3868
g57
(g66
g59
NtRp3869
(dp3870
g62
(dp3871
g70
I3
ssg71
Nsg64
(lp3872
g57
(g73
g59
NtRp3873
(dp3874
g62
(dp3875
sg71
g3869
sg64
(lp3876
g57
(g78
g59
NtRp3877
(dp3878
g62
(dp3879
sg71
g3873
sg64
(lp3880
g57
(g58
g59
NtRp3881
(dp3882
g62
(dp3883
g70
I3
ssg71
g3877
sg64
(lp3884
cgluon.languages
lazyT_unpickle
p3885
(S't\x04\x00\x00\x00Home'
tRp3886
asbasbasbag57
(g73
g59
NtRp3887
(dp3888
g62
(dp3889
sg71
g3869
sg64
(lp3890
g57
(g78
g59
NtRp3891
(dp3892
g62
(dp3893
sg71
g3887
sg64
(lp3894
g57
(g58
g59
NtRp3895
(dp3896
g62
(dp3897
g70
I3
ssg71
g3891
sg64
(lp3898
g100
asbasbasbag57
(g73
g59
NtRp3899
(dp3900
g62
(dp3901
sg71
g3869
sg64
(lp3902
g57
(g78
g59
NtRp3903
(dp3904
g62
(dp3905
sg71
g3899
sg64
(lp3906
g57
(g58
g59
NtRp3907
(dp3908
g62
(dp3909
g70
I3
ssg71
g3903
sg64
(lp3910
S'/irecycle/default/home'
p3911
asbasbasbasbasbasbasbag57
(g73
g59
NtRp3912
(dp3913
g62
(dp3914
sg71
g3853
sg64
(lp3915
g57
(g78
g59
NtRp3916
(dp3917
g62
(dp3918
sg71
g3912
sg64
(lp3919
g57
(g58
g59
NtRp3920
(dp3921
g62
(dp3922
g70
I4
ssg71
g3916
sg64
(lp3923
g57
(g66
g59
NtRp3924
(dp3925
g62
(dp3926
g70
I3
ssg71
Nsg64
(lp3927
g57
(g73
g59
NtRp3928
(dp3929
g62
(dp3930
sg71
g3924
sg64
(lp3931
g57
(g78
g59
NtRp3932
(dp3933
g62
(dp3934
sg71
g3928
sg64
(lp3935
g57
(g58
g59
NtRp3936
(dp3937
g62
(dp3938
g70
I3
ssg71
g3932
sg64
(lp3939
g3885
(S't\x04\x00\x00\x00Wall'
tRp3940
asbasbasbag57
(g73
g59
NtRp3941
(dp3942
g62
(dp3943
sg71
g3924
sg64
(lp3944
g57
(g78
g59
NtRp3945
(dp3946
g62
(dp3947
sg71
g3941
sg64
(lp3948
g57
(g58
g59
NtRp3949
(dp3950
g62
(dp3951
g70
I3
ssg71
g3945
sg64
(lp3952
g100
asbasbasbag57
(g73
g59
NtRp3953
(dp3954
g62
(dp3955
sg71
g3924
sg64
(lp3956
g57
(g78
g59
NtRp3957
(dp3958
g62
(dp3959
sg71
g3953
sg64
(lp3960
g57
(g58
g59
NtRp3961
(dp3962
g62
(dp3963
g70
I3
ssg71
g3957
sg64
(lp3964
S'/irecycle/default/wall'
p3965
asbasbasbasbasbasbasbag57
(g73
g59
NtRp3966
(dp3967
g62
(dp3968
sg71
g3853
sg64
(lp3969
g57
(g78
g59
NtRp3970
(dp3971
g62
(dp3972
sg71
g3966
sg64
(lp3973
g57
(g58
g59
NtRp3974
(dp3975
g62
(dp3976
g70
I4
ssg71
g3970
sg64
(lp3977
g57
(g66
g59
NtRp3978
(dp3979
g62
(dp3980
g70
I3
ssg71
Nsg64
(lp3981
g57
(g73
g59
NtRp3982
(dp3983
g62
(dp3984
sg71
g3978
sg64
(lp3985
g57
(g78
g59
NtRp3986
(dp3987
g62
(dp3988
sg71
g3982
sg64
(lp3989
g57
(g58
g59
NtRp3990
(dp3991
g62
(dp3992
g70
I3
ssg71
g3986
sg64
(lp3993
g3885
(S't\x07\x00\x00\x00Friends'
tRp3994
asbasbasbag57
(g73
g59
NtRp3995
(dp3996
g62
(dp3997
sg71
g3978
sg64
(lp3998
g57
(g78
g59
NtRp3999
(dp4000
g62
(dp4001
sg71
g3995
sg64
(lp4002
g57
(g58
g59
NtRp4003
(dp4004
g62
(dp4005
g70
I3
ssg71
g3999
sg64
(lp4006
g100
asbasbasbag57
(g73
g59
NtRp4007
(dp4008
g62
(dp4009
sg71
g3978
sg64
(lp4010
g57
(g78
g59
NtRp4011
(dp4012
g62
(dp4013
sg71
g4007
sg64
(lp4014
g57
(g58
g59
NtRp4015
(dp4016
g62
(dp4017
g70
I3
ssg71
g4011
sg64
(lp4018
S'/irecycle/default/friends'
p4019
asbasbasbasbasbasbasbag57
(g73
g59
NtRp4020
(dp4021
g62
(dp4022
sg71
g3853
sg64
(lp4023
g57
(g78
g59
NtRp4024
(dp4025
g62
(dp4026
sg71
g4020
sg64
(lp4027
g57
(g58
g59
NtRp4028
(dp4029
g62
(dp4030
g70
I4
ssg71
g4024
sg64
(lp4031
g57
(g66
g59
NtRp4032
(dp4033
g62
(dp4034
g70
I3
ssg71
Nsg64
(lp4035
g57
(g73
g59
NtRp4036
(dp4037
g62
(dp4038
sg71
g4032
sg64
(lp4039
g57
(g78
g59
NtRp4040
(dp4041
g62
(dp4042
sg71
g4036
sg64
(lp4043
g57
(g58
g59
NtRp4044
(dp4045
g62
(dp4046
g70
I3
ssg71
g4040
sg64
(lp4047
g3885
(S't\x06\x00\x00\x00Search'
tRp4048
asbasbasbag57
(g73
g59
NtRp4049
(dp4050
g62
(dp4051
sg71
g4032
sg64
(lp4052
g57
(g78
g59
NtRp4053
(dp4054
g62
(dp4055
sg71
g4049
sg64
(lp4056
g57
(g58
g59
NtRp4057
(dp4058
g62
(dp4059
g70
I3
ssg71
g4053
sg64
(lp4060
g100
asbasbasbag57
(g73
g59
NtRp4061
(dp4062
g62
(dp4063
sg71
g4032
sg64
(lp4064
g57
(g78
g59
NtRp4065
(dp4066
g62
(dp4067
sg71
g4061
sg64
(lp4068
g57
(g58
g59
NtRp4069
(dp4070
g62
(dp4071
g70
I3
ssg71
g4065
sg64
(lp4072
S'/irecycle/default/search'
p4073
asbasbasbasbasbasbasbasbasbasbasbag57
(g73
g59
NtRp4074
(dp4075
g62
(dp4076
sg71
g3365
sg64
(lp4077
g57
(g78
g59
NtRp4078
(dp4079
g62
(dp4080
g82
g83
ssg71
g4074
sg64
(lp4081
S'meta'
p4082
asbag57
(g78
g59
NtRp4083
(dp4084
g62
(dp4085
g89
g90
ssg71
g4074
sg64
(lp4086
S':'
asbag57
(g78
g59
NtRp4087
(dp4088
g62
(dp4089
sg71
g4074
sg64
(lp4090
g57
(g58
g59
NtRp4091
(dp4092
g62
(dp4093
g70
I5
ssg71
g4087
sg64
(lp4094
g57
(g66
g59
NtRp4095
(dp4096
g62
(dp4097
g70
I4
ssg71
Nsg64
(lp4098
g57
(g73
g59
NtRp4099
(dp4100
g62
(dp4101
sg71
g4095
sg64
(lp4102
g57
(g78
g59
NtRp4103
(dp4104
g62
(dp4105
g82
g83
ssg71
g4099
sg64
(lp4106
S'author'
p4107
asbag57
(g78
g59
NtRp4108
(dp4109
g62
(dp4110
g89
g90
ssg71
g4099
sg64
(lp4111
S':'
asbag57
(g78
g59
NtRp4112
(dp4113
g62
(dp4114
sg71
g4099
sg64
(lp4115
g57
(g58
g59
NtRp4116
(dp4117
g62
(dp4118
g70
I4
ssg71
g4112
sg64
(lp4119
S'Diego Miranda'
p4120
asbasbasbag57
(g73
g59
NtRp4121
(dp4122
g62
(dp4123
sg71
g4095
sg64
(lp4124
g57
(g78
g59
NtRp4125
(dp4126
g62
(dp4127
g82
g83
ssg71
g4121
sg64
(lp4128
S'copyright'
p4129
asbag57
(g78
g59
NtRp4130
(dp4131
g62
(dp4132
g89
g90
ssg71
g4121
sg64
(lp4133
S':'
asbag57
(g78
g59
NtRp4134
(dp4135
g62
(dp4136
sg71
g4121
sg64
(lp4137
g57
(g58
g59
NtRp4138
(dp4139
g62
(dp4140
g70
I4
ssg71
g4134
sg64
(lp4141
S'DSMTech Copyright 2012'
p4142
asbasbasbag57
(g73
g59
NtRp4143
(dp4144
g62
(dp4145
sg71
g4095
sg64
(lp4146
g57
(g78
g59
NtRp4147
(dp4148
g62
(dp4149
g82
g83
ssg71
g4143
sg64
(lp4150
S'description'
p4151
asbag57
(g78
g59
NtRp4152
(dp4153
g62
(dp4154
g89
g90
ssg71
g4143
sg64
(lp4155
S':'
asbag57
(g78
g59
NtRp4156
(dp4157
g62
(dp4158
sg71
g4143
sg64
(lp4159
g57
(g58
g59
NtRp4160
(dp4161
g62
(dp4162
g70
I4
ssg71
g4156
sg64
(lp4163
S'App for recycling trash'
p4164
asbasbasbag57
(g73
g59
NtRp4165
(dp4166
g62
(dp4167
sg71
g4095
sg64
(lp4168
g57
(g78
g59
NtRp4169
(dp4170
g62
(dp4171
g82
g83
ssg71
g4165
sg64
(lp4172
S'generator'
p4173
asbag57
(g78
g59
NtRp4174
(dp4175
g62
(dp4176
g89
g90
ssg71
g4165
sg64
(lp4177
S':'
asbag57
(g78
g59
NtRp4178
(dp4179
g62
(dp4180
sg71
g4165
sg64
(lp4181
g57
(g58
g59
NtRp4182
(dp4183
g62
(dp4184
g70
I4
ssg71
g4178
sg64
(lp4185
S'web2py web framework'
p4186
asbasbasbag57
(g73
g59
NtRp4187
(dp4188
g62
(dp4189
sg71
g4095
sg64
(lp4190
g57
(g78
g59
NtRp4191
(dp4192
g62
(dp4193
g82
g83
ssg71
g4187
sg64
(lp4194
S'keywords'
p4195
asbag57
(g78
g59
NtRp4196
(dp4197
g62
(dp4198
g89
g90
ssg71
g4187
sg64
(lp4199
S':'
asbag57
(g78
g59
NtRp4200
(dp4201
g62
(dp4202
sg71
g4187
sg64
(lp4203
g57
(g58
g59
NtRp4204
(dp4205
g62
(dp4206
g70
I4
ssg71
g4200
sg64
(lp4207
S'web2py, python framework'
p4208
asbasbasbasbasbasbasbag57
(g73
g59
NtRp4209
(dp4210
g62
(dp4211
sg71
g3365
sg64
(lp4212
g57
(g78
g59
NtRp4213
(dp4214
g62
(dp4215
g82
g83
ssg71
g4209
sg64
(lp4216
S'models_to_run'
p4217
asbag57
(g78
g59
NtRp4218
(dp4219
g62
(dp4220
g89
g90
ssg71
g4209
sg64
(lp4221
S':'
asbag57
(g78
g59
NtRp4222
(dp4223
g62
(dp4224
sg71
g4209
sg64
(lp4225
g57
(g58
g59
NtRp4226
(dp4227
g62
(dp4228
g70
I5
ssg71
g4222
sg64
(lp4229
g57
(g66
g59
NtRp4230
(dp4231
g62
(dp4232
g70
I4
ssg71
Nsg64
(lp4233
g57
(g73
g59
NtRp4234
(dp4235
g62
(dp4236
sg71
g4230
sg64
(lp4237
g57
(g78
g59
NtRp4238
(dp4239
g62
(dp4240
sg71
g4234
sg64
(lp4241
g57
(g58
g59
NtRp4242
(dp4243
g62
(dp4244
g70
I4
ssg71
g4238
sg64
(lp4245
S'^\\w+\\.py$'
p4246
asbasbasbag57
(g73
g59
NtRp4247
(dp4248
g62
(dp4249
sg71
g4230
sg64
(lp4250
g57
(g78
g59
NtRp4251
(dp4252
g62
(dp4253
sg71
g4247
sg64
(lp4254
g57
(g58
g59
NtRp4255
(dp4256
g62
(dp4257
g70
I4
ssg71
g4251
sg64
(lp4258
S'^default/\\w+\\.py$'
p4259
asbasbasbag57
(g73
g59
NtRp4260
(dp4261
g62
(dp4262
sg71
g4230
sg64
(lp4263
g57
(g78
g59
NtRp4264
(dp4265
g62
(dp4266
sg71
g4260
sg64
(lp4267
g57
(g58
g59
NtRp4268
(dp4269
g62
(dp4270
g70
I4
ssg71
g4264
sg64
(lp4271
S'^default/home/\\w+\\.py$'
p4272
asbasbasbasbasbasbasbag57
(g73
g59
NtRp4273
(dp4274
g62
(dp4275
sg71
g3365
sg64
(lp4276
g57
(g78
g59
NtRp4277
(dp4278
g62
(dp4279
g82
g83
ssg71
g4273
sg64
(lp4280
S'postprocessing'
p4281
asbag57
(g78
g59
NtRp4282
(dp4283
g62
(dp4284
g89
g90
ssg71
g4273
sg64
(lp4285
S':'
asbag57
(g78
g59
NtRp4286
(dp4287
g62
(dp4288
sg71
g4273
sg64
(lp4289
g57
(g58
g59
NtRp4290
(dp4291
g62
(dp4292
g70
I5
ssg71
g4286
sg64
(lp4293
g57
(g66
g59
NtRp4294
(dp4295
g62
(dp4296
g70
I4
ssg71
Nsg64
(lp4297
sbasbasbasbag57
(g73
g59
NtRp4298
(dp4299
g62
(dp4300
sg71
g3365
sg64
(lp4301
g57
(g78
g59
NtRp4302
(dp4303
g62
(dp4304
g82
g83
ssg71
g4298
sg64
(lp4305
S'session_cookie_expires'
p4306
asbag57
(g78
g59
NtRp4307
(dp4308
g62
(dp4309
g89
g90
ssg71
g4298
sg64
(lp4310
S':'
asbag57
(g78
g59
NtRp4311
(dp4312
g62
(dp4313
sg71
g4298
sg64
(lp4314
g57
(g58
g59
NtRp4315
(dp4316
g62
(dp4317
g70
I5
ssg71
g4311
sg64
(lp4318
S'None'
p4319
asbasbasbag57
(g73
g59
NtRp4320
(dp4321
g62
(dp4322
sg71
g3365
sg64
(lp4323
g57
(g78
g59
NtRp4324
(dp4325
g62
(dp4326
g82
g83
ssg71
g4320
sg64
(lp4327
S'session_data_name'
p4328
asbag57
(g78
g59
NtRp4329
(dp4330
g62
(dp4331
g89
g90
ssg71
g4320
sg64
(lp4332
S':'
asbag57
(g78
g59
NtRp4333
(dp4334
g62
(dp4335
sg71
g4320
sg64
(lp4336
g57
(g58
g59
NtRp4337
(dp4338
g62
(dp4339
g70
I5
ssg71
g4333
sg64
(lp4340
S'session_data_irecycle'
p4341
asbasbasbag57
(g73
g59
NtRp4342
(dp4343
g62
(dp4344
sg71
g3365
sg64
(lp4345
g57
(g78
g59
NtRp4346
(dp4347
g62
(dp4348
g82
g83
ssg71
g4342
sg64
(lp4349
S'session_file'
p4350
asbag57
(g78
g59
NtRp4351
(dp4352
g62
(dp4353
g89
g90
ssg71
g4342
sg64
(lp4354
S':'
asbag57
(g78
g59
NtRp4355
(dp4356
g62
(dp4357
sg71
g4342
sg64
(lp4358
g57
(g58
g59
NtRp4359
(dp4360
g62
(dp4361
g70
I5
ssg71
g4355
sg64
(lp4362
S"<open file '/home/diego/web2py/applications/irecycle/sessions/127.0.0.1-10f67e0b-8b95-4045-9f3c-2e1e4dff1c83', mode 'rb+' at 0x7fbdf40e0d20>"
p4363
asbasbasbag57
(g73
g59
NtRp4364
(dp4365
g62
(dp4366
sg71
g3365
sg64
(lp4367
g57
(g78
g59
NtRp4368
(dp4369
g62
(dp4370
g82
g83
ssg71
g4364
sg64
(lp4371
S'session_filename'
p4372
asbag57
(g78
g59
NtRp4373
(dp4374
g62
(dp4375
g89
g90
ssg71
g4364
sg64
(lp4376
S':'
asbag57
(g78
g59
NtRp4377
(dp4378
g62
(dp4379
sg71
g4364
sg64
(lp4380
g57
(g58
g59
NtRp4381
(dp4382
g62
(dp4383
g70
I5
ssg71
g4377
sg64
(lp4384
S'/home/diego/web2py/applications/irecycle/sessions/127.0.0.1-10f67e0b-8b95-4045-9f3c-2e1e4dff1c83'
p4385
asbasbasbag57
(g73
g59
NtRp4386
(dp4387
g62
(dp4388
sg71
g3365
sg64
(lp4389
g57
(g78
g59
NtRp4390
(dp4391
g62
(dp4392
g82
g83
ssg71
g4386
sg64
(lp4393
S'session_id'
p4394
asbag57
(g78
g59
NtRp4395
(dp4396
g62
(dp4397
g89
g90
ssg71
g4386
sg64
(lp4398
S':'
asbag57
(g78
g59
NtRp4399
(dp4400
g62
(dp4401
sg71
g4386
sg64
(lp4402
g57
(g58
g59
NtRp4403
(dp4404
g62
(dp4405
g70
I5
ssg71
g4399
sg64
(lp4406
g281
asbasbasbag57
(g73
g59
NtRp4407
(dp4408
g62
(dp4409
sg71
g3365
sg64
(lp4410
g57
(g78
g59
NtRp4411
(dp4412
g62
(dp4413
g82
g83
ssg71
g4407
sg64
(lp4414
S'session_id_name'
p4415
asbag57
(g78
g59
NtRp4416
(dp4417
g62
(dp4418
g89
g90
ssg71
g4407
sg64
(lp4419
S':'
asbag57
(g78
g59
NtRp4420
(dp4421
g62
(dp4422
sg71
g4407
sg64
(lp4423
g57
(g58
g59
NtRp4424
(dp4425
g62
(dp4426
g70
I5
ssg71
g4420
sg64
(lp4427
g3422
asbasbasbag57
(g73
g59
NtRp4428
(dp4429
g62
(dp4430
sg71
g3365
sg64
(lp4431
g57
(g78
g59
NtRp4432
(dp4433
g62
(dp4434
g82
g83
ssg71
g4428
sg64
(lp4435
S'session_locked'
p4436
asbag57
(g78
g59
NtRp4437
(dp4438
g62
(dp4439
g89
g90
ssg71
g4428
sg64
(lp4440
S':'
asbag57
(g78
g59
NtRp4441
(dp4442
g62
(dp4443
sg71
g4428
sg64
(lp4444
g57
(g58
g59
NtRp4445
(dp4446
g62
(dp4447
g70
I5
ssg71
g4441
sg64
(lp4448
g1441
asbasbasbag57
(g73
g59
NtRp4449
(dp4450
g62
(dp4451
sg71
g3365
sg64
(lp4452
g57
(g78
g59
NtRp4453
(dp4454
g62
(dp4455
g82
g83
ssg71
g4449
sg64
(lp4456
S'session_new'
p4457
asbag57
(g78
g59
NtRp4458
(dp4459
g62
(dp4460
g89
g90
ssg71
g4449
sg64
(lp4461
S':'
asbag57
(g78
g59
NtRp4462
(dp4463
g62
(dp4464
sg71
g4449
sg64
(lp4465
g57
(g58
g59
NtRp4466
(dp4467
g62
(dp4468
g70
I5
ssg71
g4462
sg64
(lp4469
g100
asbasbasbag57
(g73
g59
NtRp4470
(dp4471
g62
(dp4472
sg71
g3365
sg64
(lp4473
g57
(g78
g59
NtRp4474
(dp4475
g62
(dp4476
g82
g83
ssg71
g4470
sg64
(lp4477
S'session_storage_type'
p4478
asbag57
(g78
g59
NtRp4479
(dp4480
g62
(dp4481
g89
g90
ssg71
g4470
sg64
(lp4482
S':'
asbag57
(g78
g59
NtRp4483
(dp4484
g62
(dp4485
sg71
g4470
sg64
(lp4486
g57
(g58
g59
NtRp4487
(dp4488
g62
(dp4489
g70
I5
ssg71
g4483
sg64
(lp4490
g2914
asbasbasbag57
(g73
g59
NtRp4491
(dp4492
g62
(dp4493
sg71
g3365
sg64
(lp4494
g57
(g78
g59
NtRp4495
(dp4496
g62
(dp4497
g82
g83
ssg71
g4491
sg64
(lp4498
S'status'
p4499
asbag57
(g78
g59
NtRp4500
(dp4501
g62
(dp4502
g89
g90
ssg71
g4491
sg64
(lp4503
S':'
asbag57
(g78
g59
NtRp4504
(dp4505
g62
(dp4506
sg71
g4491
sg64
(lp4507
g57
(g58
g59
NtRp4508
(dp4509
g62
(dp4510
g70
I5
ssg71
g4504
sg64
(lp4511
S'200'
p4512
asbasbasbag57
(g73
g59
NtRp4513
(dp4514
g62
(dp4515
sg71
g3365
sg64
(lp4516
g57
(g78
g59
NtRp4517
(dp4518
g62
(dp4519
g82
g83
ssg71
g4513
sg64
(lp4520
S'subtitle'
p4521
asbag57
(g78
g59
NtRp4522
(dp4523
g62
(dp4524
g89
g90
ssg71
g4513
sg64
(lp4525
S':'
asbag57
(g78
g59
NtRp4526
(dp4527
g62
(dp4528
sg71
g4513
sg64
(lp4529
g57
(g58
g59
NtRp4530
(dp4531
g62
(dp4532
g70
I5
ssg71
g4526
sg64
(lp4533
g3885
(S't\t\x00\x00\x00EuReciclo'
tRp4534
asbasbasbag57
(g73
g59
NtRp4535
(dp4536
g62
(dp4537
sg71
g3365
sg64
(lp4538
g57
(g78
g59
NtRp4539
(dp4540
g62
(dp4541
g82
g83
ssg71
g4535
sg64
(lp4542
S'title'
p4543
asbag57
(g78
g59
NtRp4544
(dp4545
g62
(dp4546
g89
g90
ssg71
g4535
sg64
(lp4547
S':'
asbag57
(g78
g59
NtRp4548
(dp4549
g62
(dp4550
sg71
g4535
sg64
(lp4551
g57
(g58
g59
NtRp4552
(dp4553
g62
(dp4554
g70
I5
ssg71
g4548
sg64
(lp4555
S'EuReciclo'
p4556
asbasbasbag57
(g73
g59
NtRp4557
(dp4558
g62
(dp4559
sg71
g3365
sg64
(lp4560
g57
(g78
g59
NtRp4561
(dp4562
g62
(dp4563
g82
g83
ssg71
g4557
sg64
(lp4564
S'view'
p4565
asbag57
(g78
g59
NtRp4566
(dp4567
g62
(dp4568
g89
g90
ssg71
g4557
sg64
(lp4569
S':'
asbag57
(g78
g59
NtRp4570
(dp4571
g62
(dp4572
sg71
g4557
sg64
(lp4573
g57
(g58
g59
NtRp4574
(dp4575
g62
(dp4576
g70
I5
ssg71
g4570
sg64
(lp4577
S'default/home.html'
p4578
asbasbasbasbasbsS'locals'
p4579
(dp4580
S'Service'
p4581
S"<class 'gluon.tools.Service'>"
p4582
sS'myfriends'
p4583
S"<Set ((link.fonte = 1) AND (link.accepted = 'T'))>"
p4584
sS'OBJECT'
p4585
S"<class 'gluon.html.OBJECT'>"
p4586
sS'track_changes'
p4587
S'<function track_changes>'
p4588
sS'SQLDB'
p4589
S"<class 'gluon.dal.DAL'>"
p4590
sg2971
S"<Storage {'_formkey[register]': 'd6120a3d-780b-4...mail': 'diego@teste.com'}>, 'user_groups': {}}>}>"
p4591
sS'LINK'
p4592
S"<class 'gluon.html.LINK'>"
p4593
sS'BR'
p4594
S"<class 'gluon.html.BR'>"
p4595
sS'local_import'
p4596
S'<function <lambda>>'
p4597
sS'OPTGROUP'
p4598
S"<class 'gluon.html.OPTGROUP'>"
p4599
sS'__package__'
p4600
S'None'
p4601
sS'PRE'
p4602
S"<class 'gluon.html.PRE'>"
p4603
sS'IS_INT_IN_RANGE'
p4604
S"<class 'gluon.validators.IS_INT_IN_RANGE'>"
p4605
sS'alphabetical'
p4606
S'<gluon.dal.Expression object>'
p4607
sS'IS_LOWER'
p4608
S"<class 'gluon.validators.IS_LOWER'>"
p4609
sS'IS_STRONG'
p4610
S"<class 'gluon.validators.IS_STRONG'>"
p4611
sS'cache'
p4612
S'<gluon.cache.Cache object>'
p4613
sS'IS_IN_DB'
p4614
S"<class 'gluon.validators.IS_IN_DB'>"
p4615
sS'TAG'
p4616
S'<gluon.html.__TAG__ object>'
p4617
sS'CRYPT'
p4618
S"<class 'gluon.validators.CRYPT'>"
p4619
sS'SQLField'
p4620
S"<class 'gluon.dal.Field'>"
p4621
sS'mail'
p4622
S'<applications.irecycle.modules.helpers.mail.Mailer object>'
p4623
sS'dbset'
p4624
S"<Set (username.user_id = '1')>"
p4625
sS'BODY'
p4626
S"<class 'gluon.html.BODY'>"
p4627
sS'IS_DATE_IN_RANGE'
p4628
S"<class 'gluon.validators.IS_DATE_IN_RANGE'>"
p4629
sS'IFRAME'
p4630
S"<class 'gluon.html.IFRAME'>"
p4631
sS'URL'
p4632
S'<function URL>'
p4633
sS'config'
p4634
S"<Storage {'mail': <Storage {'login': 'dsousamira...ult/home', 'login_after_registration': True}>}>}>"
p4635
sS'__file__'
p4636
S"'/home/diego/web2py/applications/irecycle/views/default/home.html'"
p4637
sS'db'
p4638
S'<DAL uri="sqlite://recycle.sqlite">'
p4639
sS'auth'
p4640
S'<gluon.tools.Auth object>'
p4641
sS'P'
S"<class 'gluon.html.P'>"
p4642
sS'TFOOT'
p4643
S"<class 'gluon.html.TFOOT'>"
p4644
sS'XHTML'
p4645
S"<class 'gluon.html.XHTML'>"
p4646
sS'ON'
p4647
g1441
sS'OL'
p4648
S"<class 'gluon.html.OL'>"
p4649
sS'TEXTAREA'
p4650
S"<class 'gluon.html.TEXTAREA'>"
p4651
sS'MENU'
p4652
S"<class 'gluon.html.MENU'>"
p4653
sS'posts'
p4654
S'<Rows (1)>'
p4655
sS'IS_IMAGE'
p4656
S"<class 'gluon.validators.IS_IMAGE'>"
p4657
sS'EM'
p4658
S"<class 'gluon.html.EM'>"
p4659
sS'CODE'
p4660
S"<class 'gluon.html.CODE'>"
p4661
sS'HTTP'
p4662
S"<class 'gluon.http.HTTP'>"
p4663
sS'HR'
p4664
S"<class 'gluon.html.HR'>"
p4665
sS'IS_DATETIME'
p4666
S"<class 'gluon.validators.IS_DATETIME'>"
p4667
sS'Storage'
p4668
S"<class 'gluon.storage.Storage'>"
p4669
sS'STYLE'
p4670
S"<class 'gluon.html.STYLE'>"
p4671
sS'LABEL'
p4672
S"<class 'gluon.html.LABEL'>"
p4673
sS'CLEANUP'
p4674
S"<class 'gluon.validators.CLEANUP'>"
p4675
sS'SELECT'
p4676
S"<class 'gluon.html.SELECT'>"
p4677
sS'CENTER'
p4678
S"<class 'gluon.html.CENTER'>"
p4679
sS'private_service'
p4680
S'<gluon.tools.Service object>'
p4681
sS'Crud'
p4682
S"<class 'gluon.tools.Crud'>"
p4683
sS'Auth'
p4684
S"<class 'gluon.tools.Auth'>"
p4685
sS'current'
p4686
S'<thread._local object>'
p4687
sS'__builtins__'
p4688
S"{'ArithmeticError': <type 'exceptions.ArithmeticError'>, 'AssertionError': <type 'exceptions.AssertionError'>, 'AttributeError': <type 'exceptions.AttributeError'>, 'BaseException': <type 'exceptions.BaseException'>, 'BufferError': <type 'exceptions.BufferError'>, 'BytesWarning': <type 'exceptions.BytesWarning'>, 'DeprecationWarning': <type 'exceptions.DeprecationWarning'>, 'EOFError': <type 'exceptions.EOFError'>, 'Ellipsis': Ellipsis, 'EnvironmentError': <type 'exceptions.EnvironmentError'>, ...}"
p4689
sS'HTML'
p4690
S"<class 'gluon.html.HTML'>"
p4691
sS'Link'
p4692
S'<Table link (id,fonte,target,accepted)>'
p4693
sS'SQLFORM'
p4694
S"<class 'gluon.sqlhtml.SQLFORM'>"
p4695
sS'NOT_STARTS_WITH'
p4696
S"<class '__restricted__.NOT_STARTS_WITH'>"
p4697
sS'LOAD'
p4698
S'<function LOAD>'
p4699
sS'redirect'
p4700
S'<function redirect>'
p4701
sS'FIELDSET'
p4702
S"<class 'gluon.html.FIELDSET'>"
p4703
sS'IS_EQUAL_TO'
p4704
S"<class 'gluon.validators.IS_EQUAL_TO'>"
p4705
sS'embed64'
p4706
S'<function embed64>'
p4707
sS'IS_LIST_OF'
p4708
S"<class 'gluon.validators.IS_LIST_OF'>"
p4709
sS'INPUT'
p4710
S"<class 'gluon.html.INPUT'>"
p4711
sS'EMBED'
p4712
S"<class 'gluon.html.EMBED'>"
p4713
sS'IS_NOT_IN_DB'
p4714
S"<class 'gluon.validators.IS_NOT_IN_DB'>"
p4715
sS'H2'
p4716
S"<class 'gluon.html.H2'>"
p4717
sS'H3'
p4718
S"<class 'gluon.html.H3'>"
p4719
sS'BUTTON'
p4720
S"<class 'gluon.html.BUTTON'>"
p4721
sS'H1'
p4722
S"<class 'gluon.html.H1'>"
p4723
sS'H6'
p4724
S"<class 'gluon.html.H6'>"
p4725
sS'H4'
p4726
S"<class 'gluon.html.H4'>"
p4727
sS'H5'
p4728
S"<class 'gluon.html.H5'>"
p4729
sS'UL'
p4730
S"<class 'gluon.html.UL'>"
p4731
sS'IS_UPPER'
p4732
S"<class 'gluon.validators.IS_UPPER'>"
p4733
sS'xmlescape'
p4734
S'<function xmlescape>'
p4735
sS'IS_TIME'
p4736
S"<class 'gluon.validators.IS_TIME'>"
p4737
sS'OPTION'
p4738
S"<class 'gluon.html.OPTION'>"
p4739
sS'TITLE'
p4740
S"<class 'gluon.html.TITLE'>"
p4741
sS'Pictures'
p4742
S'<Table pictures (id,pic,thumb,foto)>'
p4743
sS'IS_EMPTY_OR'
p4744
S"<class 'gluon.validators.IS_EMPTY_OR'>"
p4745
sS'MARKMIN'
p4746
S"<class 'gluon.html.MARKMIN'>"
p4747
sS'__name__'
p4748
S"'__restricted__'"
p4749
sS'STRONG'
p4750
S"<class 'gluon.html.STRONG'>"
p4751
sS'COL'
p4752
S"<class 'gluon.html.COL'>"
p4753
sS'UserAddress'
p4754
S'<Table user_address (id,user_id,zip_code,country...ncy,city,address_type,address,home_number,extra)>'
p4755
sS'service'
p4756
S'<gluon.tools.Service object>'
p4757
sS'SCRIPT'
p4758
S"<class 'gluon.html.SCRIPT'>"
p4759
sS'name_of'
p4760
S'<function name_of>'
p4761
sS'User'
p4762
S'<Table auth_user (id,first_name,last_name,email,...t_password_key,registration_id,avatar,thumbnail)>'
p4763
sS'TABLE'
p4764
S"<class 'gluon.html.TABLE'>"
p4765
sS'Post'
p4766
S'<Table post (id,body,posted_on,posted_by)>'
p4767
sS'IS_IPV4'
p4768
S"<class 'gluon.validators.IS_IPV4'>"
p4769
sS'IS_LENGTH'
p4770
S"<class 'gluon.validators.IS_LENGTH'>"
p4771
sS'XML'
p4772
S"<class 'gluon.html.XML'>"
p4773
sS'B'
S"<class 'gluon.html.B'>"
p4774
sS'IMG'
p4775
S"<class 'gluon.html.IMG'>"
p4776
sS'SQLTABLE'
p4777
S"<class 'gluon.sqlhtml.SQLTABLE'>"
p4778
sS'IS_MATCH'
p4779
S"<class 'gluon.validators.IS_MATCH'>"
p4780
sS'IS_ALPHANUMERIC'
p4781
S"<class 'gluon.validators.IS_ALPHANUMERIC'>"
p4782
sS'Contacts'
p4783
S'<Table contacts (id,name,posting)>'
p4784
sS'Entrar'
p4785
S'<Table logn (id,name,email,password)>'
p4786
sS'me'
p4787
S'1'
sS'SPAN'
p4788
S"<class 'gluon.html.SPAN'>"
p4789
sS'Wall'
p4790
S'<Table post (id,body,posted_on,posted_by)>'
p4791
sS'IS_SLUG'
p4792
S"<class 'gluon.validators.IS_SLUG'>"
p4793
sS'BEAUTIFY'
p4794
S"<class 'gluon.html.BEAUTIFY'>"
p4795
sS'META'
p4796
S"<class 'gluon.html.META'>"
p4797
sS'IS_DATE'
p4798
S"<class 'gluon.validators.IS_DATE'>"
p4799
sS'IS_EMAIL'
p4800
S"<class 'gluon.validators.IS_EMAIL'>"
p4801
sS'IS_NOT_EMPTY'
p4802
S"<class 'gluon.validators.IS_NOT_EMPTY'>"
p4803
sS'IS_FLOAT_IN_RANGE'
p4804
S"<class 'gluon.validators.IS_FLOAT_IN_RANGE'>"
p4805
sS'TBODY'
p4806
S"<class 'gluon.html.TBODY'>"
p4807
sS'CAT'
p4808
S"<class 'gluon.html.CAT'>"
p4809
sS'Field'
p4810
S"<class 'gluon.dal.Field'>"
p4811
sS'DIV'
p4812
S"<class 'gluon.html.DIV'>"
p4813
sS'LEGEND'
p4814
S"<class 'gluon.html.LEGEND'>"
p4815
sS'Mailer'
p4816
S"<class 'applications.irecycle.modules.helpers.mail.Mailer'>"
p4817
sS'Userr'
p4818
S'<Table username (id,user_id,name,email,tel,password,adress)>'
p4819
sS'form'
p4820
S'<gluon.sqlhtml.SQLFORM object>'
p4821
sS'COLGROUP'
p4822
S"<class 'gluon.html.COLGROUP'>"
p4823
sS'DAL'
p4824
S"<class 'gluon.dal.DAL'>"
p4825
sS'TT'
p4826
S"<class 'gluon.html.TT'>"
p4827
sS'TR'
p4828
S"<class 'gluon.html.TR'>"
p4829
sS'post_user'
p4830
S'<Rows (0)>'
p4831
sS'LI'
p4832
S"<class 'gluon.html.LI'>"
p4833
sS'TH'
p4834
S"<class 'gluon.html.TH'>"
p4835
sS'TD'
p4836
S"<class 'gluon.html.TD'>"
p4837
sS'IS_URL'
p4838
S"<class 'gluon.validators.IS_URL'>"
p4839
sS'A'
S"<class 'gluon.html.A'>"
p4840
sS'HEAD'
p4841
S"<class 'gluon.html.HEAD'>"
p4842
sS'IS_DATETIME_IN_RANGE'
p4843
S"<class 'gluon.validators.IS_DATETIME_IN_RANGE'>"
p4844
sS'FORM'
p4845
S"<class 'gluon.html.FORM'>"
p4846
sS'I'
S"<class 'gluon.html.I'>"
p4847
sS'crud'
p4848
S'<gluon.tools.Crud object>'
p4849
sS'a1'
p4850
S'None'
p4851
sS'a0'
p4852
S'None'
p4853
sS'friends'
p4854
S'[1]'
p4855
sg3360
S"<Storage {'body': <cStringIO.StringO object at 0...at 0x7fbdf40f4758>, 'view': 'default/home.html'}>"
p4856
sS'THEAD'
p4857
S"<class 'gluon.html.THEAD'>"
p4858
sS'IS_NULL_OR'
p4859
S"<class 'gluon.validators.IS_EMPTY_OR'>"
p4860
sg56
S"<Storage {'function': 'home', 'body': <cStringIO...lications/irecycle/', 'post_vars': <Storage {}>}>"
p4861
sS'IS_EXPR'
p4862
S"<class 'gluon.validators.IS_EXPR'>"
p4863
sS'T'
S'<gluon.languages.translator object>'
p4864
sS'IS_IN_SET'
p4865
S"<class 'gluon.validators.IS_IN_SET'>"
p4866
sS'IS_UPLOAD_FILENAME'
p4867
S"<class 'gluon.validators.IS_UPLOAD_FILENAME'>"
p4868
sS'IS_DECIMAL_IN_RANGE'
p4869
S"<class 'gluon.validators.IS_DECIMAL_IN_RANGE'>"
p4870
sssS'traceback'
p4871
S'Traceback (most recent call last):\n  File "/home/diego/web2py/gluon/restricted.py", line 212, in restricted\n    exec ccode in environment\n  File "/home/diego/web2py/applications/irecycle/views/default/home.html", line 35, in <module>\n    margin-top: 20px;\nNameError: name \'user\' is not defined\n'
p4872
s.