(dp1
S'output'
p2
S"<type 'exceptions.SyntaxError'> invalid syntax (3_db.py, line 4)"
p3
sS'layer'
p4
S'/home/diego/web2py/applications/irecycle/models/3_db.py'
p5
sS'code'
p6
S'\nEntrar = db.define_table("logn",\n\tField("name", "reference auth_user.first_name")\n\tField("email", "reference user_email", notnull=True, requires=IS_EMAIL()),\n\tField("password"))\n\n\nUserr = db.define_table("username",\n\tField("user_id" ),\n\tField("name", "reference auth_user", notnull=True, unique=True),\n\tField("email", requires=IS_EMAIL(), notnull=True),\n\tField("tel", requires=IS_MATCH(\'[\\d\\-\\(\\)] +\')),\n\tField("password"),\n\tField("adress"),\n\tformat="%(name)s")\n\nUserAddress = db.define_table("user_address",\n\tField("user_id", "reference user_id"),\n\tField("zip_code"),\n\tField("country"),\n\tField("region"),\n\tField("provincy"),\n\tField("city"),\n\tField("address_type"),\n\tField("address"),\n\tField("home_number"),\n\tField("extra"),\n\tformat="%(region)s")\n\nPictures = db.define_table("pictures",\n\tField("pic", "reference user_id"),\n\tField("thumb", "upload"),\n\tField("foto", "upload"))\n\nContacts = db.define_table("contacts",\n\tField("name", requires=IS_NOT_EMPTY()),\n\tField("posting", "text", required=True),\n\tformat=\'%(name)s\')\n\n#social db\nWall = db.define_table("post",\n\tField("body","text", requires=IS_NOT_EMPTY(),\n\t\tlabel=\'what happening?\'),\n\tField("posted_on","datetime", readable=False, writable=False),\n\tField("posted_by", "reference auth_user", readable=False,\n\t\twritable=False),\n\tformat=\'%(posted_by)s\')\n\nLink = db.define_table("link",\n\tField("fonte", "reference auth_user"),\n\tField("target", "reference auth_user"),\n\tField("accepted", "boolean", default=False))\n\n# and define some global variables that will make code more compact\nUser, Link, Post = db.auth_user, db.link, db.post\nme, a0, a1 = auth.user_id, request.args(0), request.args(1)\nmyfriends = db(Link.fonte==me)(Link.accepted==True)\nalphabetical = User.first_name | User.last_name\ndef name_of(user):\n\treturn \'%(first_name)s %(last_name)s\' % user\n\nclass NOT_STARTS_WITH(object):\n\tdef __init__(self, error_message="nao permitido iniciar com %s", letter="a"):\n\t\tself.error_message = error_message\n\t\tself.letter = letter\n\n\tdef __call__(self, value):\n\t\t# (value, None) # passou\n\t\t# (value, error_message) # n\xc3\xa3o passou\n\t\tif value.startswith(self.letter):\n\t\t\treturn (value, self.error_message % self.letter)\n\t\telse:\n\t\t\treturn (value, None)\n\n\nUserr.name.requires = [IS_NOT_EMPTY(error_message="voce deve preencher"),\n                          IS_NOT_IN_DB(db, \'Userr.name\')]\n# Contacts.description.represent = lambda value, row: XML(value)\nUserr.name.label = "email"\nUserr.name.comment = "Your name"\n\n#auth user\ndb.auth_user.avatar.label = "sua foto"\nconfig.auth.settings.login_next = URL(\'home\')\nconfig.auth.settings.register_next = URL(\'home\')\n\ndbset = db(Userr.user_id == auth.user_id)\nUserr.name.requires = IS_IN_DB(dbset, "user_address.id", "%(country)s - %(city)s")'
p7
sS'snapshot'
p8
(dp9
S'exception'
p10
(dp11
S'__getslice__'
p12
S"<method-wrapper '__getslice__' of exceptions.SyntaxError object>"
p13
sS'text'
p14
S'\'\\tField("email", "reference user_email", notnull=True, requires=IS_EMAIL()),\\n\''
p15
sS'__str__'
p16
S"<method-wrapper '__str__' of exceptions.SyntaxError object>"
p17
sS'__reduce__'
p18
S'<built-in method __reduce__ of exceptions.SyntaxError object>'
p19
sS'__dict__'
p20
S'{}'
p21
sS'__sizeof__'
p22
S'<built-in method __sizeof__ of exceptions.SyntaxError object>'
p23
sS'__init__'
p24
S"<method-wrapper '__init__' of exceptions.SyntaxError object>"
p25
sS'__setattr__'
p26
S"<method-wrapper '__setattr__' of exceptions.SyntaxError object>"
p27
sS'__reduce_ex__'
p28
S'<built-in method __reduce_ex__ of exceptions.SyntaxError object>'
p29
sS'__new__'
p30
S'<built-in method __new__ of type object>'
p31
sS'__format__'
p32
S'<built-in method __format__ of exceptions.SyntaxError object>'
p33
sS'__class__'
p34
S"<type 'exceptions.SyntaxError'>"
p35
sS'filename'
p36
S"'/home/diego/web2py/applications/irecycle/models/3_db.py'"
p37
sS'lineno'
p38
S'4'
sS'msg'
p39
S"'invalid syntax'"
p40
sS'__doc__'
p41
S"'Invalid syntax.'"
p42
sS'__getitem__'
p43
S"<method-wrapper '__getitem__' of exceptions.SyntaxError object>"
p44
sS'__setstate__'
p45
S'<built-in method __setstate__ of exceptions.SyntaxError object>'
p46
sS'__getattribute__'
p47
S"<method-wrapper '__getattribute__' of exceptions.SyntaxError object>"
p48
sS'print_file_and_line'
p49
S'None'
p50
sS'args'
p51
S'(\'invalid syntax\', (\'/home/diego/web2py/applications/irecycle/models/3_db.py\', 4, 6, \'\\tField("email", "reference user_email", notnull=True, requires=IS_EMAIL()),\\n\'))'
p52
sS'__subclasshook__'
p53
S'<built-in method __subclasshook__ of type object>'
p54
sS'offset'
p55
S'6'
sS'__unicode__'
p56
S'<built-in method __unicode__ of exceptions.SyntaxError object>'
p57
sS'__delattr__'
p58
S"<method-wrapper '__delattr__' of exceptions.SyntaxError object>"
p59
sS'__repr__'
p60
S"<method-wrapper '__repr__' of exceptions.SyntaxError object>"
p61
sS'__hash__'
p62
S"<method-wrapper '__hash__' of exceptions.SyntaxError object>"
p63
ssS'evalue'
p64
S'invalid syntax (3_db.py, line 4)'
p65
sS'request'
p66
ccopy_reg
_reconstructor
p67
(cgluon.html
BEAUTIFY
p68
c__builtin__
object
p69
NtRp70
(dp71
S'attributes'
p72
(dp73
sS'components'
p74
(lp75
g67
(cgluon.html
TABLE
p76
g69
NtRp77
(dp78
g72
(dp79
S'level'
p80
I5
ssS'parent'
p81
Nsg74
(lp82
g67
(cgluon.html
TR
p83
g69
NtRp84
(dp85
g72
(dp86
sg81
g77
sg74
(lp87
g67
(cgluon.html
TD
p88
g69
NtRp89
(dp90
g72
(dp91
S'_style'
p92
S'font-weight:bold;vertical-align:top'
p93
ssg81
g84
sg74
(lp94
S'ajax'
p95
asbag67
(g88
g69
NtRp96
(dp97
g72
(dp98
S'_valign'
p99
S'top'
p100
ssg81
g84
sg74
(lp101
S':'
asbag67
(g88
g69
NtRp102
(dp103
g72
(dp104
sg81
g84
sg74
(lp105
g67
(g68
g69
NtRp106
(dp107
g72
(dp108
g80
I5
ssg81
g102
sg74
(lp109
S'False'
p110
asbasbasbag67
(g83
g69
NtRp111
(dp112
g72
(dp113
sg81
g77
sg74
(lp114
g67
(g88
g69
NtRp115
(dp116
g72
(dp117
g92
g93
ssg81
g111
sg74
(lp118
S'application'
p119
asbag67
(g88
g69
NtRp120
(dp121
g72
(dp122
g99
g100
ssg81
g111
sg74
(lp123
S':'
asbag67
(g88
g69
NtRp124
(dp125
g72
(dp126
sg81
g111
sg74
(lp127
g67
(g68
g69
NtRp128
(dp129
g72
(dp130
g80
I5
ssg81
g124
sg74
(lp131
S'irecycle'
p132
asbasbasbag67
(g83
g69
NtRp133
(dp134
g72
(dp135
sg81
g77
sg74
(lp136
g67
(g88
g69
NtRp137
(dp138
g72
(dp139
g92
g93
ssg81
g133
sg74
(lp140
g51
asbag67
(g88
g69
NtRp141
(dp142
g72
(dp143
g99
g100
ssg81
g133
sg74
(lp144
S':'
asbag67
(g88
g69
NtRp145
(dp146
g72
(dp147
sg81
g133
sg74
(lp148
g67
(g68
g69
NtRp149
(dp150
g72
(dp151
g80
I5
ssg81
g145
sg74
(lp152
g67
(g76
g69
NtRp153
(dp154
g72
(dp155
g80
I4
ssg81
Nsg74
(lp156
sbasbasbasbag67
(g83
g69
NtRp157
(dp158
g72
(dp159
sg81
g77
sg74
(lp160
g67
(g88
g69
NtRp161
(dp162
g72
(dp163
g92
g93
ssg81
g157
sg74
(lp164
S'body'
p165
asbag67
(g88
g69
NtRp166
(dp167
g72
(dp168
g99
g100
ssg81
g157
sg74
(lp169
S':'
asbag67
(g88
g69
NtRp170
(dp171
g72
(dp172
sg81
g157
sg74
(lp173
g67
(g68
g69
NtRp174
(dp175
g72
(dp176
g80
I5
ssg81
g170
sg74
(lp177
S'<cStringIO.StringO object at 0x7f02f4132730>'
p178
asbasbasbag67
(g83
g69
NtRp179
(dp180
g72
(dp181
sg81
g77
sg74
(lp182
g67
(g88
g69
NtRp183
(dp184
g72
(dp185
g92
g93
ssg81
g179
sg74
(lp186
S'cid'
p187
asbag67
(g88
g69
NtRp188
(dp189
g72
(dp190
g99
g100
ssg81
g179
sg74
(lp191
S':'
asbag67
(g88
g69
NtRp192
(dp193
g72
(dp194
sg81
g179
sg74
(lp195
g67
(g68
g69
NtRp196
(dp197
g72
(dp198
g80
I5
ssg81
g192
sg74
(lp199
S'None'
p200
asbasbasbag67
(g83
g69
NtRp201
(dp202
g72
(dp203
sg81
g77
sg74
(lp204
g67
(g88
g69
NtRp205
(dp206
g72
(dp207
g92
g93
ssg81
g201
sg74
(lp208
S'client'
p209
asbag67
(g88
g69
NtRp210
(dp211
g72
(dp212
g99
g100
ssg81
g201
sg74
(lp213
S':'
asbag67
(g88
g69
NtRp214
(dp215
g72
(dp216
sg81
g201
sg74
(lp217
g67
(g68
g69
NtRp218
(dp219
g72
(dp220
g80
I5
ssg81
g214
sg74
(lp221
S'127.0.0.1'
p222
asbasbasbag67
(g83
g69
NtRp223
(dp224
g72
(dp225
sg81
g77
sg74
(lp226
g67
(g88
g69
NtRp227
(dp228
g72
(dp229
g92
g93
ssg81
g223
sg74
(lp230
S'controller'
p231
asbag67
(g88
g69
NtRp232
(dp233
g72
(dp234
g99
g100
ssg81
g223
sg74
(lp235
S':'
asbag67
(g88
g69
NtRp236
(dp237
g72
(dp238
sg81
g223
sg74
(lp239
g67
(g68
g69
NtRp240
(dp241
g72
(dp242
g80
I5
ssg81
g236
sg74
(lp243
S'default'
p244
asbasbasbag67
(g83
g69
NtRp245
(dp246
g72
(dp247
sg81
g77
sg74
(lp248
g67
(g88
g69
NtRp249
(dp250
g72
(dp251
g92
g93
ssg81
g245
sg74
(lp252
S'cookies'
p253
asbag67
(g88
g69
NtRp254
(dp255
g72
(dp256
g99
g100
ssg81
g245
sg74
(lp257
S':'
asbag67
(g88
g69
NtRp258
(dp259
g72
(dp260
sg81
g245
sg74
(lp261
g67
(g68
g69
NtRp262
(dp263
g72
(dp264
g80
I5
ssg81
g258
sg74
(lp265
g67
(g76
g69
NtRp266
(dp267
g72
(dp268
g80
I4
ssg81
Nsg74
(lp269
g67
(g83
g69
NtRp270
(dp271
g72
(dp272
sg81
g266
sg74
(lp273
g67
(g88
g69
NtRp274
(dp275
g72
(dp276
g92
g93
ssg81
g270
sg74
(lp277
S'session_id_admin'
p278
asbag67
(g88
g69
NtRp279
(dp280
g72
(dp281
g99
g100
ssg81
g270
sg74
(lp282
S':'
asbag67
(g88
g69
NtRp283
(dp284
g72
(dp285
sg81
g270
sg74
(lp286
g67
(g68
g69
NtRp287
(dp288
g72
(dp289
g80
I4
ssg81
g283
sg74
(lp290
S'127.0.0.1-1178fb15-8635-4562-92ac-0bdfeed62f9a'
p291
ag67
(g76
g69
NtRp292
(dp293
g72
(dp294
g80
I3
ssg81
Nsg74
(lp295
g67
(g83
g69
NtRp296
(dp297
g72
(dp298
sg81
g292
sg74
(lp299
g67
(g88
g69
NtRp300
(dp301
g72
(dp302
g92
g93
ssg81
g296
sg74
(lp303
S'comment'
p304
asbag67
(g88
g69
NtRp305
(dp306
g72
(dp307
g99
g100
ssg81
g296
sg74
(lp308
S':'
asbag67
(g88
g69
NtRp309
(dp310
g72
(dp311
sg81
g296
sg74
(lp312
g67
(g68
g69
NtRp313
(dp314
g72
(dp315
g80
I3
ssg81
g309
sg74
(lp316
S''
asbasbasbag67
(g83
g69
NtRp317
(dp318
g72
(dp319
sg81
g292
sg74
(lp320
g67
(g88
g69
NtRp321
(dp322
g72
(dp323
g92
g93
ssg81
g317
sg74
(lp324
S'domain'
p325
asbag67
(g88
g69
NtRp326
(dp327
g72
(dp328
g99
g100
ssg81
g317
sg74
(lp329
S':'
asbag67
(g88
g69
NtRp330
(dp331
g72
(dp332
sg81
g317
sg74
(lp333
g67
(g68
g69
NtRp334
(dp335
g72
(dp336
g80
I3
ssg81
g330
sg74
(lp337
S''
asbasbasbag67
(g83
g69
NtRp338
(dp339
g72
(dp340
sg81
g292
sg74
(lp341
g67
(g88
g69
NtRp342
(dp343
g72
(dp344
g92
g93
ssg81
g338
sg74
(lp345
S'expires'
p346
asbag67
(g88
g69
NtRp347
(dp348
g72
(dp349
g99
g100
ssg81
g338
sg74
(lp350
S':'
asbag67
(g88
g69
NtRp351
(dp352
g72
(dp353
sg81
g338
sg74
(lp354
g67
(g68
g69
NtRp355
(dp356
g72
(dp357
g80
I3
ssg81
g351
sg74
(lp358
S''
asbasbasbag67
(g83
g69
NtRp359
(dp360
g72
(dp361
sg81
g292
sg74
(lp362
g67
(g88
g69
NtRp363
(dp364
g72
(dp365
g92
g93
ssg81
g359
sg74
(lp366
S'httponly'
p367
asbag67
(g88
g69
NtRp368
(dp369
g72
(dp370
g99
g100
ssg81
g359
sg74
(lp371
S':'
asbag67
(g88
g69
NtRp372
(dp373
g72
(dp374
sg81
g359
sg74
(lp375
g67
(g68
g69
NtRp376
(dp377
g72
(dp378
g80
I3
ssg81
g372
sg74
(lp379
S''
asbasbasbag67
(g83
g69
NtRp380
(dp381
g72
(dp382
sg81
g292
sg74
(lp383
g67
(g88
g69
NtRp384
(dp385
g72
(dp386
g92
g93
ssg81
g380
sg74
(lp387
S'max-age'
p388
asbag67
(g88
g69
NtRp389
(dp390
g72
(dp391
g99
g100
ssg81
g380
sg74
(lp392
S':'
asbag67
(g88
g69
NtRp393
(dp394
g72
(dp395
sg81
g380
sg74
(lp396
g67
(g68
g69
NtRp397
(dp398
g72
(dp399
g80
I3
ssg81
g393
sg74
(lp400
S''
asbasbasbag67
(g83
g69
NtRp401
(dp402
g72
(dp403
sg81
g292
sg74
(lp404
g67
(g88
g69
NtRp405
(dp406
g72
(dp407
g92
g93
ssg81
g401
sg74
(lp408
S'path'
p409
asbag67
(g88
g69
NtRp410
(dp411
g72
(dp412
g99
g100
ssg81
g401
sg74
(lp413
S':'
asbag67
(g88
g69
NtRp414
(dp415
g72
(dp416
sg81
g401
sg74
(lp417
g67
(g68
g69
NtRp418
(dp419
g72
(dp420
g80
I3
ssg81
g414
sg74
(lp421
S''
asbasbasbag67
(g83
g69
NtRp422
(dp423
g72
(dp424
sg81
g292
sg74
(lp425
g67
(g88
g69
NtRp426
(dp427
g72
(dp428
g92
g93
ssg81
g422
sg74
(lp429
S'secure'
p430
asbag67
(g88
g69
NtRp431
(dp432
g72
(dp433
g99
g100
ssg81
g422
sg74
(lp434
S':'
asbag67
(g88
g69
NtRp435
(dp436
g72
(dp437
sg81
g422
sg74
(lp438
g67
(g68
g69
NtRp439
(dp440
g72
(dp441
g80
I3
ssg81
g435
sg74
(lp442
S''
asbasbasbag67
(g83
g69
NtRp443
(dp444
g72
(dp445
sg81
g292
sg74
(lp446
g67
(g88
g69
NtRp447
(dp448
g72
(dp449
g92
g93
ssg81
g443
sg74
(lp450
S'version'
p451
asbag67
(g88
g69
NtRp452
(dp453
g72
(dp454
g99
g100
ssg81
g443
sg74
(lp455
S':'
asbag67
(g88
g69
NtRp456
(dp457
g72
(dp458
sg81
g443
sg74
(lp459
g67
(g68
g69
NtRp460
(dp461
g72
(dp462
g80
I3
ssg81
g456
sg74
(lp463
S''
asbasbasbasbasbasbasbag67
(g83
g69
NtRp464
(dp465
g72
(dp466
sg81
g266
sg74
(lp467
g67
(g88
g69
NtRp468
(dp469
g72
(dp470
g92
g93
ssg81
g464
sg74
(lp471
S'session_id_irecycle'
p472
asbag67
(g88
g69
NtRp473
(dp474
g72
(dp475
g99
g100
ssg81
g464
sg74
(lp476
S':'
asbag67
(g88
g69
NtRp477
(dp478
g72
(dp479
sg81
g464
sg74
(lp480
g67
(g68
g69
NtRp481
(dp482
g72
(dp483
g80
I4
ssg81
g477
sg74
(lp484
S'127.0.0.1-52497e39-155c-423e-8fad-ac44f096ff04'
p485
ag67
(g76
g69
NtRp486
(dp487
g72
(dp488
g80
I3
ssg81
Nsg74
(lp489
g67
(g83
g69
NtRp490
(dp491
g72
(dp492
sg81
g486
sg74
(lp493
g67
(g88
g69
NtRp494
(dp495
g72
(dp496
g92
g93
ssg81
g490
sg74
(lp497
g304
asbag67
(g88
g69
NtRp498
(dp499
g72
(dp500
g99
g100
ssg81
g490
sg74
(lp501
S':'
asbag67
(g88
g69
NtRp502
(dp503
g72
(dp504
sg81
g490
sg74
(lp505
g67
(g68
g69
NtRp506
(dp507
g72
(dp508
g80
I3
ssg81
g502
sg74
(lp509
S''
asbasbasbag67
(g83
g69
NtRp510
(dp511
g72
(dp512
sg81
g486
sg74
(lp513
g67
(g88
g69
NtRp514
(dp515
g72
(dp516
g92
g93
ssg81
g510
sg74
(lp517
g325
asbag67
(g88
g69
NtRp518
(dp519
g72
(dp520
g99
g100
ssg81
g510
sg74
(lp521
S':'
asbag67
(g88
g69
NtRp522
(dp523
g72
(dp524
sg81
g510
sg74
(lp525
g67
(g68
g69
NtRp526
(dp527
g72
(dp528
g80
I3
ssg81
g522
sg74
(lp529
S''
asbasbasbag67
(g83
g69
NtRp530
(dp531
g72
(dp532
sg81
g486
sg74
(lp533
g67
(g88
g69
NtRp534
(dp535
g72
(dp536
g92
g93
ssg81
g530
sg74
(lp537
g346
asbag67
(g88
g69
NtRp538
(dp539
g72
(dp540
g99
g100
ssg81
g530
sg74
(lp541
S':'
asbag67
(g88
g69
NtRp542
(dp543
g72
(dp544
sg81
g530
sg74
(lp545
g67
(g68
g69
NtRp546
(dp547
g72
(dp548
g80
I3
ssg81
g542
sg74
(lp549
S''
asbasbasbag67
(g83
g69
NtRp550
(dp551
g72
(dp552
sg81
g486
sg74
(lp553
g67
(g88
g69
NtRp554
(dp555
g72
(dp556
g92
g93
ssg81
g550
sg74
(lp557
g367
asbag67
(g88
g69
NtRp558
(dp559
g72
(dp560
g99
g100
ssg81
g550
sg74
(lp561
S':'
asbag67
(g88
g69
NtRp562
(dp563
g72
(dp564
sg81
g550
sg74
(lp565
g67
(g68
g69
NtRp566
(dp567
g72
(dp568
g80
I3
ssg81
g562
sg74
(lp569
S''
asbasbasbag67
(g83
g69
NtRp570
(dp571
g72
(dp572
sg81
g486
sg74
(lp573
g67
(g88
g69
NtRp574
(dp575
g72
(dp576
g92
g93
ssg81
g570
sg74
(lp577
g388
asbag67
(g88
g69
NtRp578
(dp579
g72
(dp580
g99
g100
ssg81
g570
sg74
(lp581
S':'
asbag67
(g88
g69
NtRp582
(dp583
g72
(dp584
sg81
g570
sg74
(lp585
g67
(g68
g69
NtRp586
(dp587
g72
(dp588
g80
I3
ssg81
g582
sg74
(lp589
S''
asbasbasbag67
(g83
g69
NtRp590
(dp591
g72
(dp592
sg81
g486
sg74
(lp593
g67
(g88
g69
NtRp594
(dp595
g72
(dp596
g92
g93
ssg81
g590
sg74
(lp597
g409
asbag67
(g88
g69
NtRp598
(dp599
g72
(dp600
g99
g100
ssg81
g590
sg74
(lp601
S':'
asbag67
(g88
g69
NtRp602
(dp603
g72
(dp604
sg81
g590
sg74
(lp605
g67
(g68
g69
NtRp606
(dp607
g72
(dp608
g80
I3
ssg81
g602
sg74
(lp609
S''
asbasbasbag67
(g83
g69
NtRp610
(dp611
g72
(dp612
sg81
g486
sg74
(lp613
g67
(g88
g69
NtRp614
(dp615
g72
(dp616
g92
g93
ssg81
g610
sg74
(lp617
g430
asbag67
(g88
g69
NtRp618
(dp619
g72
(dp620
g99
g100
ssg81
g610
sg74
(lp621
S':'
asbag67
(g88
g69
NtRp622
(dp623
g72
(dp624
sg81
g610
sg74
(lp625
g67
(g68
g69
NtRp626
(dp627
g72
(dp628
g80
I3
ssg81
g622
sg74
(lp629
S''
asbasbasbag67
(g83
g69
NtRp630
(dp631
g72
(dp632
sg81
g486
sg74
(lp633
g67
(g88
g69
NtRp634
(dp635
g72
(dp636
g92
g93
ssg81
g630
sg74
(lp637
g451
asbag67
(g88
g69
NtRp638
(dp639
g72
(dp640
g99
g100
ssg81
g630
sg74
(lp641
S':'
asbag67
(g88
g69
NtRp642
(dp643
g72
(dp644
sg81
g630
sg74
(lp645
g67
(g68
g69
NtRp646
(dp647
g72
(dp648
g80
I3
ssg81
g642
sg74
(lp649
S''
asbasbasbasbasbasbasbasbasbasbasbag67
(g83
g69
NtRp650
(dp651
g72
(dp652
sg81
g77
sg74
(lp653
g67
(g88
g69
NtRp654
(dp655
g72
(dp656
g92
g93
ssg81
g650
sg74
(lp657
S'env'
p658
asbag67
(g88
g69
NtRp659
(dp660
g72
(dp661
g99
g100
ssg81
g650
sg74
(lp662
S':'
asbag67
(g88
g69
NtRp663
(dp664
g72
(dp665
sg81
g650
sg74
(lp666
g67
(g68
g69
NtRp667
(dp668
g72
(dp669
g80
I5
ssg81
g663
sg74
(lp670
g67
(g76
g69
NtRp671
(dp672
g72
(dp673
g80
I4
ssg81
Nsg74
(lp674
g67
(g83
g69
NtRp675
(dp676
g72
(dp677
sg81
g671
sg74
(lp678
g67
(g88
g69
NtRp679
(dp680
g72
(dp681
g92
g93
ssg81
g675
sg74
(lp682
S'app_folders'
p683
asbag67
(g88
g69
NtRp684
(dp685
g72
(dp686
g99
g100
ssg81
g675
sg74
(lp687
S':'
asbag67
(g88
g69
NtRp688
(dp689
g72
(dp690
sg81
g675
sg74
(lp691
g67
(g68
g69
NtRp692
(dp693
g72
(dp694
g80
I4
ssg81
g688
sg74
(lp695
S"set(['/home/diego/web2py/applications/irecycle/', '/home/diego/web2py/applications/admin/'])"
p696
asbasbasbag67
(g83
g69
NtRp697
(dp698
g72
(dp699
sg81
g671
sg74
(lp700
g67
(g88
g69
NtRp701
(dp702
g72
(dp703
g92
g93
ssg81
g697
sg74
(lp704
S'applications_parent'
p705
asbag67
(g88
g69
NtRp706
(dp707
g72
(dp708
g99
g100
ssg81
g697
sg74
(lp709
S':'
asbag67
(g88
g69
NtRp710
(dp711
g72
(dp712
sg81
g697
sg74
(lp713
g67
(g68
g69
NtRp714
(dp715
g72
(dp716
g80
I4
ssg81
g710
sg74
(lp717
S'/home/diego/web2py'
p718
asbasbasbag67
(g83
g69
NtRp719
(dp720
g72
(dp721
sg81
g671
sg74
(lp722
g67
(g88
g69
NtRp723
(dp724
g72
(dp725
g92
g93
ssg81
g719
sg74
(lp726
S'cmd_args'
p727
asbag67
(g88
g69
NtRp728
(dp729
g72
(dp730
g99
g100
ssg81
g719
sg74
(lp731
S':'
asbag67
(g88
g69
NtRp732
(dp733
g72
(dp734
sg81
g719
sg74
(lp735
g67
(g68
g69
NtRp736
(dp737
g72
(dp738
g80
I4
ssg81
g732
sg74
(lp739
g67
(g76
g69
NtRp740
(dp741
g72
(dp742
g80
I3
ssg81
Nsg74
(lp743
sbasbasbasbag67
(g83
g69
NtRp744
(dp745
g72
(dp746
sg81
g671
sg74
(lp747
g67
(g88
g69
NtRp748
(dp749
g72
(dp750
g92
g93
ssg81
g744
sg74
(lp751
S'cmd_options'
p752
asbag67
(g88
g69
NtRp753
(dp754
g72
(dp755
g99
g100
ssg81
g744
sg74
(lp756
S':'
asbag67
(g88
g69
NtRp757
(dp758
g72
(dp759
sg81
g744
sg74
(lp760
g67
(g68
g69
NtRp761
(dp762
g72
(dp763
g80
I4
ssg81
g757
sg74
(lp764
S"<Values at 0x20d5488: {'verbose': False, 'ip': '127.0.0.1', 'with_scheduler': False, 'ips': ['172.30.6.210'], 'shutdown_timeout': 5, 'taskbar': False, 'port': 8000, 'maxthreads': None, 'softcron': False, 'server_name': 'madagascar', 'bpython': False, 'nogui': False, 'pid_filename': 'httpserver.pid', 'extcron': False, 'runcron': False, 'run_system_tests': False, 'test': None, 'folder': '/home/diego/web2py', 'config': '', 'minthreads': None, 'winservice': '', 'shell': None, 'run': '', 'log_filename': 'httpserver.log', 'debuglevel': 30, 'args': [''], 'socket_timeout': 5, 'ssl_ca_certificate': None, 'scheduler': None, 'profiler_filename': None, 'ssl_private_key': '', 'scheduler_groups': None, 'password': '1234', 'request_queue_size': 5, 'ssl_certificate': '', 'cronjob': False, 'numthreads': None, 'quiet': False, 'interfaces': None, 'import_models': False, 'timeout': 10, 'plain': False, 'nobanner': False}>"
p765
asbasbasbag67
(g83
g69
NtRp766
(dp767
g72
(dp768
sg81
g671
sg74
(lp769
g67
(g88
g69
NtRp770
(dp771
g72
(dp772
g92
g93
ssg81
g766
sg74
(lp773
S'db_sessions'
p774
asbag67
(g88
g69
NtRp775
(dp776
g72
(dp777
g99
g100
ssg81
g766
sg74
(lp778
S':'
asbag67
(g88
g69
NtRp779
(dp780
g72
(dp781
sg81
g766
sg74
(lp782
g67
(g68
g69
NtRp783
(dp784
g72
(dp785
g80
I4
ssg81
g779
sg74
(lp786
S'set([])'
p787
asbasbasbag67
(g83
g69
NtRp788
(dp789
g72
(dp790
sg81
g671
sg74
(lp791
g67
(g88
g69
NtRp792
(dp793
g72
(dp794
g92
g93
ssg81
g788
sg74
(lp795
S'debugging'
p796
asbag67
(g88
g69
NtRp797
(dp798
g72
(dp799
g99
g100
ssg81
g788
sg74
(lp800
S':'
asbag67
(g88
g69
NtRp801
(dp802
g72
(dp803
sg81
g788
sg74
(lp804
g67
(g68
g69
NtRp805
(dp806
g72
(dp807
g80
I4
ssg81
g801
sg74
(lp808
g110
asbasbasbag67
(g83
g69
NtRp809
(dp810
g72
(dp811
sg81
g671
sg74
(lp812
g67
(g88
g69
NtRp813
(dp814
g72
(dp815
g92
g93
ssg81
g809
sg74
(lp816
S'gluon_parent'
p817
asbag67
(g88
g69
NtRp818
(dp819
g72
(dp820
g99
g100
ssg81
g809
sg74
(lp821
S':'
asbag67
(g88
g69
NtRp822
(dp823
g72
(dp824
sg81
g809
sg74
(lp825
g67
(g68
g69
NtRp826
(dp827
g72
(dp828
g80
I4
ssg81
g822
sg74
(lp829
S'/home/diego/web2py'
p830
asbasbasbag67
(g83
g69
NtRp831
(dp832
g72
(dp833
sg81
g671
sg74
(lp834
g67
(g88
g69
NtRp835
(dp836
g72
(dp837
g92
g93
ssg81
g831
sg74
(lp838
S'http_accept'
p839
asbag67
(g88
g69
NtRp840
(dp841
g72
(dp842
g99
g100
ssg81
g831
sg74
(lp843
S':'
asbag67
(g88
g69
NtRp844
(dp845
g72
(dp846
sg81
g831
sg74
(lp847
g67
(g68
g69
NtRp848
(dp849
g72
(dp850
g80
I4
ssg81
g844
sg74
(lp851
S'text/html,application/xhtml+xml,application/xml;q=0.9,*/*;q=0.8'
p852
asbasbasbag67
(g83
g69
NtRp853
(dp854
g72
(dp855
sg81
g671
sg74
(lp856
g67
(g88
g69
NtRp857
(dp858
g72
(dp859
g92
g93
ssg81
g853
sg74
(lp860
S'http_accept_charset'
p861
asbag67
(g88
g69
NtRp862
(dp863
g72
(dp864
g99
g100
ssg81
g853
sg74
(lp865
S':'
asbag67
(g88
g69
NtRp866
(dp867
g72
(dp868
sg81
g853
sg74
(lp869
g67
(g68
g69
NtRp870
(dp871
g72
(dp872
g80
I4
ssg81
g866
sg74
(lp873
S'ISO-8859-1,utf-8;q=0.7,*;q=0.3'
p874
asbasbasbag67
(g83
g69
NtRp875
(dp876
g72
(dp877
sg81
g671
sg74
(lp878
g67
(g88
g69
NtRp879
(dp880
g72
(dp881
g92
g93
ssg81
g875
sg74
(lp882
S'http_accept_encoding'
p883
asbag67
(g88
g69
NtRp884
(dp885
g72
(dp886
g99
g100
ssg81
g875
sg74
(lp887
S':'
asbag67
(g88
g69
NtRp888
(dp889
g72
(dp890
sg81
g875
sg74
(lp891
g67
(g68
g69
NtRp892
(dp893
g72
(dp894
g80
I4
ssg81
g888
sg74
(lp895
S'gzip,deflate,sdch'
p896
asbasbasbag67
(g83
g69
NtRp897
(dp898
g72
(dp899
sg81
g671
sg74
(lp900
g67
(g88
g69
NtRp901
(dp902
g72
(dp903
g92
g93
ssg81
g897
sg74
(lp904
S'http_accept_language'
p905
asbag67
(g88
g69
NtRp906
(dp907
g72
(dp908
g99
g100
ssg81
g897
sg74
(lp909
S':'
asbag67
(g88
g69
NtRp910
(dp911
g72
(dp912
sg81
g897
sg74
(lp913
g67
(g68
g69
NtRp914
(dp915
g72
(dp916
g80
I4
ssg81
g910
sg74
(lp917
S'pt-BR,pt;q=0.8,en-US;q=0.6,en;q=0.4'
p918
asbasbasbag67
(g83
g69
NtRp919
(dp920
g72
(dp921
sg81
g671
sg74
(lp922
g67
(g88
g69
NtRp923
(dp924
g72
(dp925
g92
g93
ssg81
g919
sg74
(lp926
S'http_cache_control'
p927
asbag67
(g88
g69
NtRp928
(dp929
g72
(dp930
g99
g100
ssg81
g919
sg74
(lp931
S':'
asbag67
(g88
g69
NtRp932
(dp933
g72
(dp934
sg81
g919
sg74
(lp935
g67
(g68
g69
NtRp936
(dp937
g72
(dp938
g80
I4
ssg81
g932
sg74
(lp939
S'max-age=0'
p940
asbasbasbag67
(g83
g69
NtRp941
(dp942
g72
(dp943
sg81
g671
sg74
(lp944
g67
(g88
g69
NtRp945
(dp946
g72
(dp947
g92
g93
ssg81
g941
sg74
(lp948
S'http_connection'
p949
asbag67
(g88
g69
NtRp950
(dp951
g72
(dp952
g99
g100
ssg81
g941
sg74
(lp953
S':'
asbag67
(g88
g69
NtRp954
(dp955
g72
(dp956
sg81
g941
sg74
(lp957
g67
(g68
g69
NtRp958
(dp959
g72
(dp960
g80
I4
ssg81
g954
sg74
(lp961
S'keep-alive'
p962
asbasbasbag67
(g83
g69
NtRp963
(dp964
g72
(dp965
sg81
g671
sg74
(lp966
g67
(g88
g69
NtRp967
(dp968
g72
(dp969
g92
g93
ssg81
g963
sg74
(lp970
S'http_cookie'
p971
asbag67
(g88
g69
NtRp972
(dp973
g72
(dp974
g99
g100
ssg81
g963
sg74
(lp975
S':'
asbag67
(g88
g69
NtRp976
(dp977
g72
(dp978
sg81
g963
sg74
(lp979
g67
(g68
g69
NtRp980
(dp981
g72
(dp982
g80
I4
ssg81
g976
sg74
(lp983
S'session_id_irecycle=127.0.0.1-52497e39-155c-423e-8fad-ac44f096ff04; session_id_admin=127.0.0.1-1178fb15-8635-4562-92ac-0bdfeed62f9a'
p984
asbasbasbag67
(g83
g69
NtRp985
(dp986
g72
(dp987
sg81
g671
sg74
(lp988
g67
(g88
g69
NtRp989
(dp990
g72
(dp991
g92
g93
ssg81
g985
sg74
(lp992
S'http_host'
p993
asbag67
(g88
g69
NtRp994
(dp995
g72
(dp996
g99
g100
ssg81
g985
sg74
(lp997
S':'
asbag67
(g88
g69
NtRp998
(dp999
g72
(dp1000
sg81
g985
sg74
(lp1001
g67
(g68
g69
NtRp1002
(dp1003
g72
(dp1004
g80
I4
ssg81
g998
sg74
(lp1005
S'localhost:8000'
p1006
asbasbasbag67
(g83
g69
NtRp1007
(dp1008
g72
(dp1009
sg81
g671
sg74
(lp1010
g67
(g88
g69
NtRp1011
(dp1012
g72
(dp1013
g92
g93
ssg81
g1007
sg74
(lp1014
S'http_referer'
p1015
asbag67
(g88
g69
NtRp1016
(dp1017
g72
(dp1018
g99
g100
ssg81
g1007
sg74
(lp1019
S':'
asbag67
(g88
g69
NtRp1020
(dp1021
g72
(dp1022
sg81
g1007
sg74
(lp1023
g67
(g68
g69
NtRp1024
(dp1025
g72
(dp1026
g80
I4
ssg81
g1020
sg74
(lp1027
S'http://localhost:8000/irecycle/default/wall'
p1028
asbasbasbag67
(g83
g69
NtRp1029
(dp1030
g72
(dp1031
sg81
g671
sg74
(lp1032
g67
(g88
g69
NtRp1033
(dp1034
g72
(dp1035
g92
g93
ssg81
g1029
sg74
(lp1036
S'http_user_agent'
p1037
asbag67
(g88
g69
NtRp1038
(dp1039
g72
(dp1040
g99
g100
ssg81
g1029
sg74
(lp1041
S':'
asbag67
(g88
g69
NtRp1042
(dp1043
g72
(dp1044
sg81
g1029
sg74
(lp1045
g67
(g68
g69
NtRp1046
(dp1047
g72
(dp1048
g80
I4
ssg81
g1042
sg74
(lp1049
S'Mozilla/5.0 (X11; Linux x86_64) AppleWebKit/537.17 (KHTML, like Gecko) Chrome/24.0.1312.52 Safari/537.17'
p1050
asbasbasbag67
(g83
g69
NtRp1051
(dp1052
g72
(dp1053
sg81
g671
sg74
(lp1054
g67
(g88
g69
NtRp1055
(dp1056
g72
(dp1057
g92
g93
ssg81
g1051
sg74
(lp1058
S'is_jython'
p1059
asbag67
(g88
g69
NtRp1060
(dp1061
g72
(dp1062
g99
g100
ssg81
g1051
sg74
(lp1063
S':'
asbag67
(g88
g69
NtRp1064
(dp1065
g72
(dp1066
sg81
g1051
sg74
(lp1067
g67
(g68
g69
NtRp1068
(dp1069
g72
(dp1070
g80
I4
ssg81
g1064
sg74
(lp1071
g110
asbasbasbag67
(g83
g69
NtRp1072
(dp1073
g72
(dp1074
sg81
g671
sg74
(lp1075
g67
(g88
g69
NtRp1076
(dp1077
g72
(dp1078
g92
g93
ssg81
g1072
sg74
(lp1079
S'is_pypy'
p1080
asbag67
(g88
g69
NtRp1081
(dp1082
g72
(dp1083
g99
g100
ssg81
g1072
sg74
(lp1084
S':'
asbag67
(g88
g69
NtRp1085
(dp1086
g72
(dp1087
sg81
g1072
sg74
(lp1088
g67
(g68
g69
NtRp1089
(dp1090
g72
(dp1091
g80
I4
ssg81
g1085
sg74
(lp1092
g110
asbasbasbag67
(g83
g69
NtRp1093
(dp1094
g72
(dp1095
sg81
g671
sg74
(lp1096
g67
(g88
g69
NtRp1097
(dp1098
g72
(dp1099
g92
g93
ssg81
g1093
sg74
(lp1100
S'local_hosts'
p1101
asbag67
(g88
g69
NtRp1102
(dp1103
g72
(dp1104
g99
g100
ssg81
g1093
sg74
(lp1105
S':'
asbag67
(g88
g69
NtRp1106
(dp1107
g72
(dp1108
sg81
g1093
sg74
(lp1109
g67
(g68
g69
NtRp1110
(dp1111
g72
(dp1112
g80
I4
ssg81
g1106
sg74
(lp1113
g67
(g76
g69
NtRp1114
(dp1115
g72
(dp1116
g80
I3
ssg81
Nsg74
(lp1117
g67
(g83
g69
NtRp1118
(dp1119
g72
(dp1120
sg81
g1114
sg74
(lp1121
g67
(g88
g69
NtRp1122
(dp1123
g72
(dp1124
sg81
g1118
sg74
(lp1125
g67
(g68
g69
NtRp1126
(dp1127
g72
(dp1128
g80
I3
ssg81
g1122
sg74
(lp1129
S'::1'
p1130
asbasbasbag67
(g83
g69
NtRp1131
(dp1132
g72
(dp1133
sg81
g1114
sg74
(lp1134
g67
(g88
g69
NtRp1135
(dp1136
g72
(dp1137
sg81
g1131
sg74
(lp1138
g67
(g68
g69
NtRp1139
(dp1140
g72
(dp1141
g80
I3
ssg81
g1135
sg74
(lp1142
S'madagascar'
p1143
asbasbasbag67
(g83
g69
NtRp1144
(dp1145
g72
(dp1146
sg81
g1114
sg74
(lp1147
g67
(g88
g69
NtRp1148
(dp1149
g72
(dp1150
sg81
g1144
sg74
(lp1151
g67
(g68
g69
NtRp1152
(dp1153
g72
(dp1154
g80
I3
ssg81
g1148
sg74
(lp1155
S'::ffff:127.0.0.1'
p1156
asbasbasbag67
(g83
g69
NtRp1157
(dp1158
g72
(dp1159
sg81
g1114
sg74
(lp1160
g67
(g88
g69
NtRp1161
(dp1162
g72
(dp1163
sg81
g1157
sg74
(lp1164
g67
(g68
g69
NtRp1165
(dp1166
g72
(dp1167
g80
I3
ssg81
g1161
sg74
(lp1168
S'127.0.0.1'
p1169
asbasbasbag67
(g83
g69
NtRp1170
(dp1171
g72
(dp1172
sg81
g1114
sg74
(lp1173
g67
(g88
g69
NtRp1174
(dp1175
g72
(dp1176
sg81
g1170
sg74
(lp1177
g67
(g68
g69
NtRp1178
(dp1179
g72
(dp1180
g80
I3
ssg81
g1174
sg74
(lp1181
S'172.30.6.210'
p1182
asbasbasbasbasbasbasbag67
(g83
g69
NtRp1183
(dp1184
g72
(dp1185
sg81
g671
sg74
(lp1186
g67
(g88
g69
NtRp1187
(dp1188
g72
(dp1189
g92
g93
ssg81
g1183
sg74
(lp1190
S'path_info'
p1191
asbag67
(g88
g69
NtRp1192
(dp1193
g72
(dp1194
g99
g100
ssg81
g1183
sg74
(lp1195
S':'
asbag67
(g88
g69
NtRp1196
(dp1197
g72
(dp1198
sg81
g1183
sg74
(lp1199
g67
(g68
g69
NtRp1200
(dp1201
g72
(dp1202
g80
I4
ssg81
g1196
sg74
(lp1203
S'/irecycle/default/home'
p1204
asbasbasbag67
(g83
g69
NtRp1205
(dp1206
g72
(dp1207
sg81
g671
sg74
(lp1208
g67
(g88
g69
NtRp1209
(dp1210
g72
(dp1211
g92
g93
ssg81
g1205
sg74
(lp1212
S'query_string'
p1213
asbag67
(g88
g69
NtRp1214
(dp1215
g72
(dp1216
g99
g100
ssg81
g1205
sg74
(lp1217
S':'
asbag67
(g88
g69
NtRp1218
(dp1219
g72
(dp1220
sg81
g1205
sg74
(lp1221
g67
(g68
g69
NtRp1222
(dp1223
g72
(dp1224
g80
I4
ssg81
g1218
sg74
(lp1225
S''
asbasbasbag67
(g83
g69
NtRp1226
(dp1227
g72
(dp1228
sg81
g671
sg74
(lp1229
g67
(g88
g69
NtRp1230
(dp1231
g72
(dp1232
g92
g93
ssg81
g1226
sg74
(lp1233
S'remote_addr'
p1234
asbag67
(g88
g69
NtRp1235
(dp1236
g72
(dp1237
g99
g100
ssg81
g1226
sg74
(lp1238
S':'
asbag67
(g88
g69
NtRp1239
(dp1240
g72
(dp1241
sg81
g1226
sg74
(lp1242
g67
(g68
g69
NtRp1243
(dp1244
g72
(dp1245
g80
I4
ssg81
g1239
sg74
(lp1246
g222
asbasbasbag67
(g83
g69
NtRp1247
(dp1248
g72
(dp1249
sg81
g671
sg74
(lp1250
g67
(g88
g69
NtRp1251
(dp1252
g72
(dp1253
g92
g93
ssg81
g1247
sg74
(lp1254
S'remote_port'
p1255
asbag67
(g88
g69
NtRp1256
(dp1257
g72
(dp1258
g99
g100
ssg81
g1247
sg74
(lp1259
S':'
asbag67
(g88
g69
NtRp1260
(dp1261
g72
(dp1262
sg81
g1247
sg74
(lp1263
g67
(g68
g69
NtRp1264
(dp1265
g72
(dp1266
g80
I4
ssg81
g1260
sg74
(lp1267
S'40621'
p1268
asbasbasbag67
(g83
g69
NtRp1269
(dp1270
g72
(dp1271
sg81
g671
sg74
(lp1272
g67
(g88
g69
NtRp1273
(dp1274
g72
(dp1275
g92
g93
ssg81
g1269
sg74
(lp1276
S'request_method'
p1277
asbag67
(g88
g69
NtRp1278
(dp1279
g72
(dp1280
g99
g100
ssg81
g1269
sg74
(lp1281
S':'
asbag67
(g88
g69
NtRp1282
(dp1283
g72
(dp1284
sg81
g1269
sg74
(lp1285
g67
(g68
g69
NtRp1286
(dp1287
g72
(dp1288
g80
I4
ssg81
g1282
sg74
(lp1289
S'GET'
p1290
asbasbasbag67
(g83
g69
NtRp1291
(dp1292
g72
(dp1293
sg81
g671
sg74
(lp1294
g67
(g88
g69
NtRp1295
(dp1296
g72
(dp1297
g92
g93
ssg81
g1291
sg74
(lp1298
S'request_uri'
p1299
asbag67
(g88
g69
NtRp1300
(dp1301
g72
(dp1302
g99
g100
ssg81
g1291
sg74
(lp1303
S':'
asbag67
(g88
g69
NtRp1304
(dp1305
g72
(dp1306
sg81
g1291
sg74
(lp1307
g67
(g68
g69
NtRp1308
(dp1309
g72
(dp1310
g80
I4
ssg81
g1304
sg74
(lp1311
g1204
asbasbasbag67
(g83
g69
NtRp1312
(dp1313
g72
(dp1314
sg81
g671
sg74
(lp1315
g67
(g88
g69
NtRp1316
(dp1317
g72
(dp1318
g92
g93
ssg81
g1312
sg74
(lp1319
S'script_name'
p1320
asbag67
(g88
g69
NtRp1321
(dp1322
g72
(dp1323
g99
g100
ssg81
g1312
sg74
(lp1324
S':'
asbag67
(g88
g69
NtRp1325
(dp1326
g72
(dp1327
sg81
g1312
sg74
(lp1328
g67
(g68
g69
NtRp1329
(dp1330
g72
(dp1331
g80
I4
ssg81
g1325
sg74
(lp1332
S''
asbasbasbag67
(g83
g69
NtRp1333
(dp1334
g72
(dp1335
sg81
g671
sg74
(lp1336
g67
(g88
g69
NtRp1337
(dp1338
g72
(dp1339
g92
g93
ssg81
g1333
sg74
(lp1340
S'server_name'
p1341
asbag67
(g88
g69
NtRp1342
(dp1343
g72
(dp1344
g99
g100
ssg81
g1333
sg74
(lp1345
S':'
asbag67
(g88
g69
NtRp1346
(dp1347
g72
(dp1348
sg81
g1333
sg74
(lp1349
g67
(g68
g69
NtRp1350
(dp1351
g72
(dp1352
g80
I4
ssg81
g1346
sg74
(lp1353
S'madagascar'
p1354
asbasbasbag67
(g83
g69
NtRp1355
(dp1356
g72
(dp1357
sg81
g671
sg74
(lp1358
g67
(g88
g69
NtRp1359
(dp1360
g72
(dp1361
g92
g93
ssg81
g1355
sg74
(lp1362
S'server_port'
p1363
asbag67
(g88
g69
NtRp1364
(dp1365
g72
(dp1366
g99
g100
ssg81
g1355
sg74
(lp1367
S':'
asbag67
(g88
g69
NtRp1368
(dp1369
g72
(dp1370
sg81
g1355
sg74
(lp1371
g67
(g68
g69
NtRp1372
(dp1373
g72
(dp1374
g80
I4
ssg81
g1368
sg74
(lp1375
S'8000'
p1376
asbasbasbag67
(g83
g69
NtRp1377
(dp1378
g72
(dp1379
sg81
g671
sg74
(lp1380
g67
(g88
g69
NtRp1381
(dp1382
g72
(dp1383
g92
g93
ssg81
g1377
sg74
(lp1384
S'server_protocol'
p1385
asbag67
(g88
g69
NtRp1386
(dp1387
g72
(dp1388
g99
g100
ssg81
g1377
sg74
(lp1389
S':'
asbag67
(g88
g69
NtRp1390
(dp1391
g72
(dp1392
sg81
g1377
sg74
(lp1393
g67
(g68
g69
NtRp1394
(dp1395
g72
(dp1396
g80
I4
ssg81
g1390
sg74
(lp1397
S'HTTP/1.1'
p1398
asbasbasbag67
(g83
g69
NtRp1399
(dp1400
g72
(dp1401
sg81
g671
sg74
(lp1402
g67
(g88
g69
NtRp1403
(dp1404
g72
(dp1405
g92
g93
ssg81
g1399
sg74
(lp1406
S'server_software'
p1407
asbag67
(g88
g69
NtRp1408
(dp1409
g72
(dp1410
g99
g100
ssg81
g1399
sg74
(lp1411
S':'
asbag67
(g88
g69
NtRp1412
(dp1413
g72
(dp1414
sg81
g1399
sg74
(lp1415
g67
(g68
g69
NtRp1416
(dp1417
g72
(dp1418
g80
I4
ssg81
g1412
sg74
(lp1419
S'Rocket 1.2.6'
p1420
asbasbasbag67
(g83
g69
NtRp1421
(dp1422
g72
(dp1423
sg81
g671
sg74
(lp1424
g67
(g88
g69
NtRp1425
(dp1426
g72
(dp1427
g92
g93
ssg81
g1421
sg74
(lp1428
S'web2py_path'
p1429
asbag67
(g88
g69
NtRp1430
(dp1431
g72
(dp1432
g99
g100
ssg81
g1421
sg74
(lp1433
S':'
asbag67
(g88
g69
NtRp1434
(dp1435
g72
(dp1436
sg81
g1421
sg74
(lp1437
g67
(g68
g69
NtRp1438
(dp1439
g72
(dp1440
g80
I4
ssg81
g1434
sg74
(lp1441
g718
asbasbasbag67
(g83
g69
NtRp1442
(dp1443
g72
(dp1444
sg81
g671
sg74
(lp1445
g67
(g88
g69
NtRp1446
(dp1447
g72
(dp1448
g92
g93
ssg81
g1442
sg74
(lp1449
S'web2py_version'
p1450
asbag67
(g88
g69
NtRp1451
(dp1452
g72
(dp1453
g99
g100
ssg81
g1442
sg74
(lp1454
S':'
asbag67
(g88
g69
NtRp1455
(dp1456
g72
(dp1457
sg81
g1442
sg74
(lp1458
g67
(g68
g69
NtRp1459
(dp1460
g72
(dp1461
g80
I4
ssg81
g1455
sg74
(lp1462
g67
(g76
g69
NtRp1463
(dp1464
g72
(dp1465
g80
I3
ssg81
Nsg74
(lp1466
g67
(g83
g69
NtRp1467
(dp1468
g72
(dp1469
sg81
g1463
sg74
(lp1470
g67
(g88
g69
NtRp1471
(dp1472
g72
(dp1473
sg81
g1467
sg74
(lp1474
g67
(g68
g69
NtRp1475
(dp1476
g72
(dp1477
g80
I3
ssg81
g1471
sg74
(lp1478
S'2'
asbasbasbag67
(g83
g69
NtRp1479
(dp1480
g72
(dp1481
sg81
g1463
sg74
(lp1482
g67
(g88
g69
NtRp1483
(dp1484
g72
(dp1485
sg81
g1479
sg74
(lp1486
g67
(g68
g69
NtRp1487
(dp1488
g72
(dp1489
g80
I3
ssg81
g1483
sg74
(lp1490
S'3'
asbasbasbag67
(g83
g69
NtRp1491
(dp1492
g72
(dp1493
sg81
g1463
sg74
(lp1494
g67
(g88
g69
NtRp1495
(dp1496
g72
(dp1497
sg81
g1491
sg74
(lp1498
g67
(g68
g69
NtRp1499
(dp1500
g72
(dp1501
g80
I3
ssg81
g1495
sg74
(lp1502
S'2'
asbasbasbag67
(g83
g69
NtRp1503
(dp1504
g72
(dp1505
sg81
g1463
sg74
(lp1506
g67
(g88
g69
NtRp1507
(dp1508
g72
(dp1509
sg81
g1503
sg74
(lp1510
g67
(g68
g69
NtRp1511
(dp1512
g72
(dp1513
g80
I3
ssg81
g1507
sg74
(lp1514
S'datetime.datetime(2012, 12, 17, 15, 3, 30)'
p1515
asbasbasbag67
(g83
g69
NtRp1516
(dp1517
g72
(dp1518
sg81
g1463
sg74
(lp1519
g67
(g88
g69
NtRp1520
(dp1521
g72
(dp1522
sg81
g1516
sg74
(lp1523
g67
(g68
g69
NtRp1524
(dp1525
g72
(dp1526
g80
I3
ssg81
g1520
sg74
(lp1527
S'stable'
p1528
asbasbasbasbasbasbasbag67
(g83
g69
NtRp1529
(dp1530
g72
(dp1531
sg81
g671
sg74
(lp1532
g67
(g88
g69
NtRp1533
(dp1534
g72
(dp1535
g92
g93
ssg81
g1529
sg74
(lp1536
S'wsgi_errors'
p1537
asbag67
(g88
g69
NtRp1538
(dp1539
g72
(dp1540
g99
g100
ssg81
g1529
sg74
(lp1541
S':'
asbag67
(g88
g69
NtRp1542
(dp1543
g72
(dp1544
sg81
g1529
sg74
(lp1545
g67
(g68
g69
NtRp1546
(dp1547
g72
(dp1548
g80
I4
ssg81
g1542
sg74
(lp1549
S"<open file '<stderr>', mode 'w' at 0x7f02ff32a270>"
p1550
asbasbasbag67
(g83
g69
NtRp1551
(dp1552
g72
(dp1553
sg81
g671
sg74
(lp1554
g67
(g88
g69
NtRp1555
(dp1556
g72
(dp1557
g92
g93
ssg81
g1551
sg74
(lp1558
S'wsgi_file_wrapper'
p1559
asbag67
(g88
g69
NtRp1560
(dp1561
g72
(dp1562
g99
g100
ssg81
g1551
sg74
(lp1563
S':'
asbag67
(g88
g69
NtRp1564
(dp1565
g72
(dp1566
sg81
g1551
sg74
(lp1567
g67
(g68
g69
NtRp1568
(dp1569
g72
(dp1570
g80
I4
ssg81
g1564
sg74
(lp1571
S'<class wsgiref.util.FileWrapper at 0x20347a0>'
p1572
asbasbasbag67
(g83
g69
NtRp1573
(dp1574
g72
(dp1575
sg81
g671
sg74
(lp1576
g67
(g88
g69
NtRp1577
(dp1578
g72
(dp1579
g92
g93
ssg81
g1573
sg74
(lp1580
S'wsgi_input'
p1581
asbag67
(g88
g69
NtRp1582
(dp1583
g72
(dp1584
g99
g100
ssg81
g1573
sg74
(lp1585
S':'
asbag67
(g88
g69
NtRp1586
(dp1587
g72
(dp1588
sg81
g1573
sg74
(lp1589
g67
(g68
g69
NtRp1590
(dp1591
g72
(dp1592
g80
I4
ssg81
g1586
sg74
(lp1593
S'<socket._fileobject object at 0x7f02e02edc50>'
p1594
asbasbasbag67
(g83
g69
NtRp1595
(dp1596
g72
(dp1597
sg81
g671
sg74
(lp1598
g67
(g88
g69
NtRp1599
(dp1600
g72
(dp1601
g92
g93
ssg81
g1595
sg74
(lp1602
S'wsgi_multiprocess'
p1603
asbag67
(g88
g69
NtRp1604
(dp1605
g72
(dp1606
g99
g100
ssg81
g1595
sg74
(lp1607
S':'
asbag67
(g88
g69
NtRp1608
(dp1609
g72
(dp1610
sg81
g1595
sg74
(lp1611
g67
(g68
g69
NtRp1612
(dp1613
g72
(dp1614
g80
I4
ssg81
g1608
sg74
(lp1615
g110
asbasbasbag67
(g83
g69
NtRp1616
(dp1617
g72
(dp1618
sg81
g671
sg74
(lp1619
g67
(g88
g69
NtRp1620
(dp1621
g72
(dp1622
g92
g93
ssg81
g1616
sg74
(lp1623
S'wsgi_multithread'
p1624
asbag67
(g88
g69
NtRp1625
(dp1626
g72
(dp1627
g99
g100
ssg81
g1616
sg74
(lp1628
S':'
asbag67
(g88
g69
NtRp1629
(dp1630
g72
(dp1631
sg81
g1616
sg74
(lp1632
g67
(g68
g69
NtRp1633
(dp1634
g72
(dp1635
g80
I4
ssg81
g1629
sg74
(lp1636
S'True'
p1637
asbasbasbag67
(g83
g69
NtRp1638
(dp1639
g72
(dp1640
sg81
g671
sg74
(lp1641
g67
(g88
g69
NtRp1642
(dp1643
g72
(dp1644
g92
g93
ssg81
g1638
sg74
(lp1645
S'wsgi_run_once'
p1646
asbag67
(g88
g69
NtRp1647
(dp1648
g72
(dp1649
g99
g100
ssg81
g1638
sg74
(lp1650
S':'
asbag67
(g88
g69
NtRp1651
(dp1652
g72
(dp1653
sg81
g1638
sg74
(lp1654
g67
(g68
g69
NtRp1655
(dp1656
g72
(dp1657
g80
I4
ssg81
g1651
sg74
(lp1658
g110
asbasbasbag67
(g83
g69
NtRp1659
(dp1660
g72
(dp1661
sg81
g671
sg74
(lp1662
g67
(g88
g69
NtRp1663
(dp1664
g72
(dp1665
g92
g93
ssg81
g1659
sg74
(lp1666
S'wsgi_url_scheme'
p1667
asbag67
(g88
g69
NtRp1668
(dp1669
g72
(dp1670
g99
g100
ssg81
g1659
sg74
(lp1671
S':'
asbag67
(g88
g69
NtRp1672
(dp1673
g72
(dp1674
sg81
g1659
sg74
(lp1675
g67
(g68
g69
NtRp1676
(dp1677
g72
(dp1678
g80
I4
ssg81
g1672
sg74
(lp1679
S'http'
p1680
asbasbasbag67
(g83
g69
NtRp1681
(dp1682
g72
(dp1683
sg81
g671
sg74
(lp1684
g67
(g88
g69
NtRp1685
(dp1686
g72
(dp1687
g92
g93
ssg81
g1681
sg74
(lp1688
S'wsgi_version'
p1689
asbag67
(g88
g69
NtRp1690
(dp1691
g72
(dp1692
g99
g100
ssg81
g1681
sg74
(lp1693
S':'
asbag67
(g88
g69
NtRp1694
(dp1695
g72
(dp1696
sg81
g1681
sg74
(lp1697
g67
(g68
g69
NtRp1698
(dp1699
g72
(dp1700
g80
I4
ssg81
g1694
sg74
(lp1701
g67
(g76
g69
NtRp1702
(dp1703
g72
(dp1704
g80
I3
ssg81
Nsg74
(lp1705
g67
(g83
g69
NtRp1706
(dp1707
g72
(dp1708
sg81
g1702
sg74
(lp1709
g67
(g88
g69
NtRp1710
(dp1711
g72
(dp1712
sg81
g1706
sg74
(lp1713
g67
(g68
g69
NtRp1714
(dp1715
g72
(dp1716
g80
I3
ssg81
g1710
sg74
(lp1717
S'1'
asbasbasbag67
(g83
g69
NtRp1718
(dp1719
g72
(dp1720
sg81
g1702
sg74
(lp1721
g67
(g88
g69
NtRp1722
(dp1723
g72
(dp1724
sg81
g1718
sg74
(lp1725
g67
(g68
g69
NtRp1726
(dp1727
g72
(dp1728
g80
I3
ssg81
g1722
sg74
(lp1729
S'0'
asbasbasbasbasbasbasbasbasbasbasbag67
(g83
g69
NtRp1730
(dp1731
g72
(dp1732
sg81
g77
sg74
(lp1733
g67
(g88
g69
NtRp1734
(dp1735
g72
(dp1736
g92
g93
ssg81
g1730
sg74
(lp1737
S'extension'
p1738
asbag67
(g88
g69
NtRp1739
(dp1740
g72
(dp1741
g99
g100
ssg81
g1730
sg74
(lp1742
S':'
asbag67
(g88
g69
NtRp1743
(dp1744
g72
(dp1745
sg81
g1730
sg74
(lp1746
g67
(g68
g69
NtRp1747
(dp1748
g72
(dp1749
g80
I5
ssg81
g1743
sg74
(lp1750
S'html'
p1751
asbasbasbag67
(g83
g69
NtRp1752
(dp1753
g72
(dp1754
sg81
g77
sg74
(lp1755
g67
(g88
g69
NtRp1756
(dp1757
g72
(dp1758
g92
g93
ssg81
g1752
sg74
(lp1759
S'folder'
p1760
asbag67
(g88
g69
NtRp1761
(dp1762
g72
(dp1763
g99
g100
ssg81
g1752
sg74
(lp1764
S':'
asbag67
(g88
g69
NtRp1765
(dp1766
g72
(dp1767
sg81
g1752
sg74
(lp1768
g67
(g68
g69
NtRp1769
(dp1770
g72
(dp1771
g80
I5
ssg81
g1765
sg74
(lp1772
S'/home/diego/web2py/applications/irecycle/'
p1773
asbasbasbag67
(g83
g69
NtRp1774
(dp1775
g72
(dp1776
sg81
g77
sg74
(lp1777
g67
(g88
g69
NtRp1778
(dp1779
g72
(dp1780
g92
g93
ssg81
g1774
sg74
(lp1781
S'function'
p1782
asbag67
(g88
g69
NtRp1783
(dp1784
g72
(dp1785
g99
g100
ssg81
g1774
sg74
(lp1786
S':'
asbag67
(g88
g69
NtRp1787
(dp1788
g72
(dp1789
sg81
g1774
sg74
(lp1790
g67
(g68
g69
NtRp1791
(dp1792
g72
(dp1793
g80
I5
ssg81
g1787
sg74
(lp1794
S'home'
p1795
asbasbasbag67
(g83
g69
NtRp1796
(dp1797
g72
(dp1798
sg81
g77
sg74
(lp1799
g67
(g88
g69
NtRp1800
(dp1801
g72
(dp1802
g92
g93
ssg81
g1796
sg74
(lp1803
S'get_vars'
p1804
asbag67
(g88
g69
NtRp1805
(dp1806
g72
(dp1807
g99
g100
ssg81
g1796
sg74
(lp1808
S':'
asbag67
(g88
g69
NtRp1809
(dp1810
g72
(dp1811
sg81
g1796
sg74
(lp1812
g67
(g68
g69
NtRp1813
(dp1814
g72
(dp1815
g80
I5
ssg81
g1809
sg74
(lp1816
g67
(g76
g69
NtRp1817
(dp1818
g72
(dp1819
g80
I4
ssg81
Nsg74
(lp1820
sbasbasbasbag67
(g83
g69
NtRp1821
(dp1822
g72
(dp1823
sg81
g77
sg74
(lp1824
g67
(g88
g69
NtRp1825
(dp1826
g72
(dp1827
g92
g93
ssg81
g1821
sg74
(lp1828
S'global_settings'
p1829
asbag67
(g88
g69
NtRp1830
(dp1831
g72
(dp1832
g99
g100
ssg81
g1821
sg74
(lp1833
S':'
asbag67
(g88
g69
NtRp1834
(dp1835
g72
(dp1836
sg81
g1821
sg74
(lp1837
g67
(g68
g69
NtRp1838
(dp1839
g72
(dp1840
g80
I5
ssg81
g1834
sg74
(lp1841
g67
(g76
g69
NtRp1842
(dp1843
g72
(dp1844
g80
I4
ssg81
Nsg74
(lp1845
g67
(g83
g69
NtRp1846
(dp1847
g72
(dp1848
sg81
g1842
sg74
(lp1849
g67
(g88
g69
NtRp1850
(dp1851
g72
(dp1852
g92
g93
ssg81
g1846
sg74
(lp1853
g683
asbag67
(g88
g69
NtRp1854
(dp1855
g72
(dp1856
g99
g100
ssg81
g1846
sg74
(lp1857
S':'
asbag67
(g88
g69
NtRp1858
(dp1859
g72
(dp1860
sg81
g1846
sg74
(lp1861
g67
(g68
g69
NtRp1862
(dp1863
g72
(dp1864
g80
I4
ssg81
g1858
sg74
(lp1865
S"set(['/home/diego/web2py/applications/irecycle/', '/home/diego/web2py/applications/admin/'])"
p1866
asbasbasbag67
(g83
g69
NtRp1867
(dp1868
g72
(dp1869
sg81
g1842
sg74
(lp1870
g67
(g88
g69
NtRp1871
(dp1872
g72
(dp1873
g92
g93
ssg81
g1867
sg74
(lp1874
g705
asbag67
(g88
g69
NtRp1875
(dp1876
g72
(dp1877
g99
g100
ssg81
g1867
sg74
(lp1878
S':'
asbag67
(g88
g69
NtRp1879
(dp1880
g72
(dp1881
sg81
g1867
sg74
(lp1882
g67
(g68
g69
NtRp1883
(dp1884
g72
(dp1885
g80
I4
ssg81
g1879
sg74
(lp1886
g718
asbasbasbag67
(g83
g69
NtRp1887
(dp1888
g72
(dp1889
sg81
g1842
sg74
(lp1890
g67
(g88
g69
NtRp1891
(dp1892
g72
(dp1893
g92
g93
ssg81
g1887
sg74
(lp1894
g727
asbag67
(g88
g69
NtRp1895
(dp1896
g72
(dp1897
g99
g100
ssg81
g1887
sg74
(lp1898
S':'
asbag67
(g88
g69
NtRp1899
(dp1900
g72
(dp1901
sg81
g1887
sg74
(lp1902
g67
(g68
g69
NtRp1903
(dp1904
g72
(dp1905
g80
I4
ssg81
g1899
sg74
(lp1906
g67
(g76
g69
NtRp1907
(dp1908
g72
(dp1909
g80
I3
ssg81
Nsg74
(lp1910
sbasbasbasbag67
(g83
g69
NtRp1911
(dp1912
g72
(dp1913
sg81
g1842
sg74
(lp1914
g67
(g88
g69
NtRp1915
(dp1916
g72
(dp1917
g92
g93
ssg81
g1911
sg74
(lp1918
g752
asbag67
(g88
g69
NtRp1919
(dp1920
g72
(dp1921
g99
g100
ssg81
g1911
sg74
(lp1922
S':'
asbag67
(g88
g69
NtRp1923
(dp1924
g72
(dp1925
sg81
g1911
sg74
(lp1926
g67
(g68
g69
NtRp1927
(dp1928
g72
(dp1929
g80
I4
ssg81
g1923
sg74
(lp1930
S"<Values at 0x20d5488: {'verbose': False, 'ip': '127.0.0.1', 'with_scheduler': False, 'ips': ['172.30.6.210'], 'shutdown_timeout': 5, 'taskbar': False, 'port': 8000, 'maxthreads': None, 'softcron': False, 'server_name': 'madagascar', 'bpython': False, 'nogui': False, 'pid_filename': 'httpserver.pid', 'extcron': False, 'runcron': False, 'run_system_tests': False, 'test': None, 'folder': '/home/diego/web2py', 'config': '', 'minthreads': None, 'winservice': '', 'shell': None, 'run': '', 'log_filename': 'httpserver.log', 'debuglevel': 30, 'args': [''], 'socket_timeout': 5, 'ssl_ca_certificate': None, 'scheduler': None, 'profiler_filename': None, 'ssl_private_key': '', 'scheduler_groups': None, 'password': '1234', 'request_queue_size': 5, 'ssl_certificate': '', 'cronjob': False, 'numthreads': None, 'quiet': False, 'interfaces': None, 'import_models': False, 'timeout': 10, 'plain': False, 'nobanner': False}>"
p1931
asbasbasbag67
(g83
g69
NtRp1932
(dp1933
g72
(dp1934
sg81
g1842
sg74
(lp1935
g67
(g88
g69
NtRp1936
(dp1937
g72
(dp1938
g92
g93
ssg81
g1932
sg74
(lp1939
g774
asbag67
(g88
g69
NtRp1940
(dp1941
g72
(dp1942
g99
g100
ssg81
g1932
sg74
(lp1943
S':'
asbag67
(g88
g69
NtRp1944
(dp1945
g72
(dp1946
sg81
g1932
sg74
(lp1947
g67
(g68
g69
NtRp1948
(dp1949
g72
(dp1950
g80
I4
ssg81
g1944
sg74
(lp1951
S'set([])'
p1952
asbasbasbag67
(g83
g69
NtRp1953
(dp1954
g72
(dp1955
sg81
g1842
sg74
(lp1956
g67
(g88
g69
NtRp1957
(dp1958
g72
(dp1959
g92
g93
ssg81
g1953
sg74
(lp1960
g796
asbag67
(g88
g69
NtRp1961
(dp1962
g72
(dp1963
g99
g100
ssg81
g1953
sg74
(lp1964
S':'
asbag67
(g88
g69
NtRp1965
(dp1966
g72
(dp1967
sg81
g1953
sg74
(lp1968
g67
(g68
g69
NtRp1969
(dp1970
g72
(dp1971
g80
I4
ssg81
g1965
sg74
(lp1972
g110
asbasbasbag67
(g83
g69
NtRp1973
(dp1974
g72
(dp1975
sg81
g1842
sg74
(lp1976
g67
(g88
g69
NtRp1977
(dp1978
g72
(dp1979
g92
g93
ssg81
g1973
sg74
(lp1980
g817
asbag67
(g88
g69
NtRp1981
(dp1982
g72
(dp1983
g99
g100
ssg81
g1973
sg74
(lp1984
S':'
asbag67
(g88
g69
NtRp1985
(dp1986
g72
(dp1987
sg81
g1973
sg74
(lp1988
g67
(g68
g69
NtRp1989
(dp1990
g72
(dp1991
g80
I4
ssg81
g1985
sg74
(lp1992
g830
asbasbasbag67
(g83
g69
NtRp1993
(dp1994
g72
(dp1995
sg81
g1842
sg74
(lp1996
g67
(g88
g69
NtRp1997
(dp1998
g72
(dp1999
g92
g93
ssg81
g1993
sg74
(lp2000
g1059
asbag67
(g88
g69
NtRp2001
(dp2002
g72
(dp2003
g99
g100
ssg81
g1993
sg74
(lp2004
S':'
asbag67
(g88
g69
NtRp2005
(dp2006
g72
(dp2007
sg81
g1993
sg74
(lp2008
g67
(g68
g69
NtRp2009
(dp2010
g72
(dp2011
g80
I4
ssg81
g2005
sg74
(lp2012
g110
asbasbasbag67
(g83
g69
NtRp2013
(dp2014
g72
(dp2015
sg81
g1842
sg74
(lp2016
g67
(g88
g69
NtRp2017
(dp2018
g72
(dp2019
g92
g93
ssg81
g2013
sg74
(lp2020
g1080
asbag67
(g88
g69
NtRp2021
(dp2022
g72
(dp2023
g99
g100
ssg81
g2013
sg74
(lp2024
S':'
asbag67
(g88
g69
NtRp2025
(dp2026
g72
(dp2027
sg81
g2013
sg74
(lp2028
g67
(g68
g69
NtRp2029
(dp2030
g72
(dp2031
g80
I4
ssg81
g2025
sg74
(lp2032
g110
asbasbasbag67
(g83
g69
NtRp2033
(dp2034
g72
(dp2035
sg81
g1842
sg74
(lp2036
g67
(g88
g69
NtRp2037
(dp2038
g72
(dp2039
g92
g93
ssg81
g2033
sg74
(lp2040
g1101
asbag67
(g88
g69
NtRp2041
(dp2042
g72
(dp2043
g99
g100
ssg81
g2033
sg74
(lp2044
S':'
asbag67
(g88
g69
NtRp2045
(dp2046
g72
(dp2047
sg81
g2033
sg74
(lp2048
g67
(g68
g69
NtRp2049
(dp2050
g72
(dp2051
g80
I4
ssg81
g2045
sg74
(lp2052
g67
(g76
g69
NtRp2053
(dp2054
g72
(dp2055
g80
I3
ssg81
Nsg74
(lp2056
g67
(g83
g69
NtRp2057
(dp2058
g72
(dp2059
sg81
g2053
sg74
(lp2060
g67
(g88
g69
NtRp2061
(dp2062
g72
(dp2063
sg81
g2057
sg74
(lp2064
g67
(g68
g69
NtRp2065
(dp2066
g72
(dp2067
g80
I3
ssg81
g2061
sg74
(lp2068
g1130
asbasbasbag67
(g83
g69
NtRp2069
(dp2070
g72
(dp2071
sg81
g2053
sg74
(lp2072
g67
(g88
g69
NtRp2073
(dp2074
g72
(dp2075
sg81
g2069
sg74
(lp2076
g67
(g68
g69
NtRp2077
(dp2078
g72
(dp2079
g80
I3
ssg81
g2073
sg74
(lp2080
g1143
asbasbasbag67
(g83
g69
NtRp2081
(dp2082
g72
(dp2083
sg81
g2053
sg74
(lp2084
g67
(g88
g69
NtRp2085
(dp2086
g72
(dp2087
sg81
g2081
sg74
(lp2088
g67
(g68
g69
NtRp2089
(dp2090
g72
(dp2091
g80
I3
ssg81
g2085
sg74
(lp2092
g1156
asbasbasbag67
(g83
g69
NtRp2093
(dp2094
g72
(dp2095
sg81
g2053
sg74
(lp2096
g67
(g88
g69
NtRp2097
(dp2098
g72
(dp2099
sg81
g2093
sg74
(lp2100
g67
(g68
g69
NtRp2101
(dp2102
g72
(dp2103
g80
I3
ssg81
g2097
sg74
(lp2104
g1169
asbasbasbag67
(g83
g69
NtRp2105
(dp2106
g72
(dp2107
sg81
g2053
sg74
(lp2108
g67
(g88
g69
NtRp2109
(dp2110
g72
(dp2111
sg81
g2105
sg74
(lp2112
g67
(g68
g69
NtRp2113
(dp2114
g72
(dp2115
g80
I3
ssg81
g2109
sg74
(lp2116
g1182
asbasbasbasbasbasbasbag67
(g83
g69
NtRp2117
(dp2118
g72
(dp2119
sg81
g1842
sg74
(lp2120
g67
(g88
g69
NtRp2121
(dp2122
g72
(dp2123
g92
g93
ssg81
g2117
sg74
(lp2124
g1450
asbag67
(g88
g69
NtRp2125
(dp2126
g72
(dp2127
g99
g100
ssg81
g2117
sg74
(lp2128
S':'
asbag67
(g88
g69
NtRp2129
(dp2130
g72
(dp2131
sg81
g2117
sg74
(lp2132
g67
(g68
g69
NtRp2133
(dp2134
g72
(dp2135
g80
I4
ssg81
g2129
sg74
(lp2136
g67
(g76
g69
NtRp2137
(dp2138
g72
(dp2139
g80
I3
ssg81
Nsg74
(lp2140
g67
(g83
g69
NtRp2141
(dp2142
g72
(dp2143
sg81
g2137
sg74
(lp2144
g67
(g88
g69
NtRp2145
(dp2146
g72
(dp2147
sg81
g2141
sg74
(lp2148
g67
(g68
g69
NtRp2149
(dp2150
g72
(dp2151
g80
I3
ssg81
g2145
sg74
(lp2152
S'2'
asbasbasbag67
(g83
g69
NtRp2153
(dp2154
g72
(dp2155
sg81
g2137
sg74
(lp2156
g67
(g88
g69
NtRp2157
(dp2158
g72
(dp2159
sg81
g2153
sg74
(lp2160
g67
(g68
g69
NtRp2161
(dp2162
g72
(dp2163
g80
I3
ssg81
g2157
sg74
(lp2164
S'3'
asbasbasbag67
(g83
g69
NtRp2165
(dp2166
g72
(dp2167
sg81
g2137
sg74
(lp2168
g67
(g88
g69
NtRp2169
(dp2170
g72
(dp2171
sg81
g2165
sg74
(lp2172
g67
(g68
g69
NtRp2173
(dp2174
g72
(dp2175
g80
I3
ssg81
g2169
sg74
(lp2176
S'2'
asbasbasbag67
(g83
g69
NtRp2177
(dp2178
g72
(dp2179
sg81
g2137
sg74
(lp2180
g67
(g88
g69
NtRp2181
(dp2182
g72
(dp2183
sg81
g2177
sg74
(lp2184
g67
(g68
g69
NtRp2185
(dp2186
g72
(dp2187
g80
I3
ssg81
g2181
sg74
(lp2188
S'datetime.datetime(2012, 12, 17, 15, 3, 30)'
p2189
asbasbasbag67
(g83
g69
NtRp2190
(dp2191
g72
(dp2192
sg81
g2137
sg74
(lp2193
g67
(g88
g69
NtRp2194
(dp2195
g72
(dp2196
sg81
g2190
sg74
(lp2197
g67
(g68
g69
NtRp2198
(dp2199
g72
(dp2200
g80
I3
ssg81
g2194
sg74
(lp2201
g1528
asbasbasbasbasbasbasbasbasbasbasbag67
(g83
g69
NtRp2202
(dp2203
g72
(dp2204
sg81
g77
sg74
(lp2205
g67
(g88
g69
NtRp2206
(dp2207
g72
(dp2208
g92
g93
ssg81
g2202
sg74
(lp2209
S'is_https'
p2210
asbag67
(g88
g69
NtRp2211
(dp2212
g72
(dp2213
g99
g100
ssg81
g2202
sg74
(lp2214
S':'
asbag67
(g88
g69
NtRp2215
(dp2216
g72
(dp2217
sg81
g2202
sg74
(lp2218
g67
(g68
g69
NtRp2219
(dp2220
g72
(dp2221
g80
I5
ssg81
g2215
sg74
(lp2222
g110
asbasbasbag67
(g83
g69
NtRp2223
(dp2224
g72
(dp2225
sg81
g77
sg74
(lp2226
g67
(g88
g69
NtRp2227
(dp2228
g72
(dp2229
g92
g93
ssg81
g2223
sg74
(lp2230
S'is_local'
p2231
asbag67
(g88
g69
NtRp2232
(dp2233
g72
(dp2234
g99
g100
ssg81
g2223
sg74
(lp2235
S':'
asbag67
(g88
g69
NtRp2236
(dp2237
g72
(dp2238
sg81
g2223
sg74
(lp2239
g67
(g68
g69
NtRp2240
(dp2241
g72
(dp2242
g80
I5
ssg81
g2236
sg74
(lp2243
g1637
asbasbasbag67
(g83
g69
NtRp2244
(dp2245
g72
(dp2246
sg81
g77
sg74
(lp2247
g67
(g88
g69
NtRp2248
(dp2249
g72
(dp2250
g92
g93
ssg81
g2244
sg74
(lp2251
S'is_restful'
p2252
asbag67
(g88
g69
NtRp2253
(dp2254
g72
(dp2255
g99
g100
ssg81
g2244
sg74
(lp2256
S':'
asbag67
(g88
g69
NtRp2257
(dp2258
g72
(dp2259
sg81
g2244
sg74
(lp2260
g67
(g68
g69
NtRp2261
(dp2262
g72
(dp2263
g80
I5
ssg81
g2257
sg74
(lp2264
g110
asbasbasbag67
(g83
g69
NtRp2265
(dp2266
g72
(dp2267
sg81
g77
sg74
(lp2268
g67
(g88
g69
NtRp2269
(dp2270
g72
(dp2271
g92
g93
ssg81
g2265
sg74
(lp2272
S'now'
p2273
asbag67
(g88
g69
NtRp2274
(dp2275
g72
(dp2276
g99
g100
ssg81
g2265
sg74
(lp2277
S':'
asbag67
(g88
g69
NtRp2278
(dp2279
g72
(dp2280
sg81
g2265
sg74
(lp2281
g67
(g68
g69
NtRp2282
(dp2283
g72
(dp2284
g80
I5
ssg81
g2278
sg74
(lp2285
S'datetime.datetime(2013, 1, 31, 9, 8, 9, 453150)'
p2286
asbasbasbag67
(g83
g69
NtRp2287
(dp2288
g72
(dp2289
sg81
g77
sg74
(lp2290
g67
(g88
g69
NtRp2291
(dp2292
g72
(dp2293
g92
g93
ssg81
g2287
sg74
(lp2294
S'post_vars'
p2295
asbag67
(g88
g69
NtRp2296
(dp2297
g72
(dp2298
g99
g100
ssg81
g2287
sg74
(lp2299
S':'
asbag67
(g88
g69
NtRp2300
(dp2301
g72
(dp2302
sg81
g2287
sg74
(lp2303
g67
(g68
g69
NtRp2304
(dp2305
g72
(dp2306
g80
I5
ssg81
g2300
sg74
(lp2307
g67
(g76
g69
NtRp2308
(dp2309
g72
(dp2310
g80
I4
ssg81
Nsg74
(lp2311
sbasbasbasbag67
(g83
g69
NtRp2312
(dp2313
g72
(dp2314
sg81
g77
sg74
(lp2315
g67
(g88
g69
NtRp2316
(dp2317
g72
(dp2318
g92
g93
ssg81
g2312
sg74
(lp2319
S'raw_args'
p2320
asbag67
(g88
g69
NtRp2321
(dp2322
g72
(dp2323
g99
g100
ssg81
g2312
sg74
(lp2324
S':'
asbag67
(g88
g69
NtRp2325
(dp2326
g72
(dp2327
sg81
g2312
sg74
(lp2328
g67
(g68
g69
NtRp2329
(dp2330
g72
(dp2331
g80
I5
ssg81
g2325
sg74
(lp2332
S''
asbasbasbag67
(g83
g69
NtRp2333
(dp2334
g72
(dp2335
sg81
g77
sg74
(lp2336
g67
(g88
g69
NtRp2337
(dp2338
g72
(dp2339
g92
g93
ssg81
g2333
sg74
(lp2340
S'raw_extension'
p2341
asbag67
(g88
g69
NtRp2342
(dp2343
g72
(dp2344
g99
g100
ssg81
g2333
sg74
(lp2345
S':'
asbag67
(g88
g69
NtRp2346
(dp2347
g72
(dp2348
sg81
g2333
sg74
(lp2349
g67
(g68
g69
NtRp2350
(dp2351
g72
(dp2352
g80
I5
ssg81
g2346
sg74
(lp2353
S'None'
p2354
asbasbasbag67
(g83
g69
NtRp2355
(dp2356
g72
(dp2357
sg81
g77
sg74
(lp2358
g67
(g88
g69
NtRp2359
(dp2360
g72
(dp2361
g92
g93
ssg81
g2355
sg74
(lp2362
S'url'
p2363
asbag67
(g88
g69
NtRp2364
(dp2365
g72
(dp2366
g99
g100
ssg81
g2355
sg74
(lp2367
S':'
asbag67
(g88
g69
NtRp2368
(dp2369
g72
(dp2370
sg81
g2355
sg74
(lp2371
g67
(g68
g69
NtRp2372
(dp2373
g72
(dp2374
g80
I5
ssg81
g2368
sg74
(lp2375
g1204
asbasbasbag67
(g83
g69
NtRp2376
(dp2377
g72
(dp2378
sg81
g77
sg74
(lp2379
g67
(g88
g69
NtRp2380
(dp2381
g72
(dp2382
g92
g93
ssg81
g2376
sg74
(lp2383
S'utcnow'
p2384
asbag67
(g88
g69
NtRp2385
(dp2386
g72
(dp2387
g99
g100
ssg81
g2376
sg74
(lp2388
S':'
asbag67
(g88
g69
NtRp2389
(dp2390
g72
(dp2391
sg81
g2376
sg74
(lp2392
g67
(g68
g69
NtRp2393
(dp2394
g72
(dp2395
g80
I5
ssg81
g2389
sg74
(lp2396
S'datetime.datetime(2013, 1, 31, 11, 8, 9, 453173)'
p2397
asbasbasbag67
(g83
g69
NtRp2398
(dp2399
g72
(dp2400
sg81
g77
sg74
(lp2401
g67
(g88
g69
NtRp2402
(dp2403
g72
(dp2404
g92
g93
ssg81
g2398
sg74
(lp2405
S'uuid'
p2406
asbag67
(g88
g69
NtRp2407
(dp2408
g72
(dp2409
g99
g100
ssg81
g2398
sg74
(lp2410
S':'
asbag67
(g88
g69
NtRp2411
(dp2412
g72
(dp2413
sg81
g2398
sg74
(lp2414
g67
(g68
g69
NtRp2415
(dp2416
g72
(dp2417
g80
I5
ssg81
g2411
sg74
(lp2418
S'irecycle/127.0.0.1.2013-01-31.09-08-09.a4b4cceb-8617-43f5-9b3d-1a094cacac88'
p2419
asbasbasbag67
(g83
g69
NtRp2420
(dp2421
g72
(dp2422
sg81
g77
sg74
(lp2423
g67
(g88
g69
NtRp2424
(dp2425
g72
(dp2426
g92
g93
ssg81
g2420
sg74
(lp2427
S'vars'
p2428
asbag67
(g88
g69
NtRp2429
(dp2430
g72
(dp2431
g99
g100
ssg81
g2420
sg74
(lp2432
S':'
asbag67
(g88
g69
NtRp2433
(dp2434
g72
(dp2435
sg81
g2420
sg74
(lp2436
g67
(g68
g69
NtRp2437
(dp2438
g72
(dp2439
g80
I5
ssg81
g2433
sg74
(lp2440
g67
(g76
g69
NtRp2441
(dp2442
g72
(dp2443
g80
I4
ssg81
Nsg74
(lp2444
sbasbasbasbag67
(g83
g69
NtRp2445
(dp2446
g72
(dp2447
sg81
g77
sg74
(lp2448
g67
(g88
g69
NtRp2449
(dp2450
g72
(dp2451
g92
g93
ssg81
g2445
sg74
(lp2452
S'wsgi'
p2453
asbag67
(g88
g69
NtRp2454
(dp2455
g72
(dp2456
g99
g100
ssg81
g2445
sg74
(lp2457
S':'
asbag67
(g88
g69
NtRp2458
(dp2459
g72
(dp2460
sg81
g2445
sg74
(lp2461
g67
(g68
g69
NtRp2462
(dp2463
g72
(dp2464
g80
I5
ssg81
g2458
sg74
(lp2465
g67
(g76
g69
NtRp2466
(dp2467
g72
(dp2468
g80
I4
ssg81
Nsg74
(lp2469
g67
(g83
g69
NtRp2470
(dp2471
g72
(dp2472
sg81
g2466
sg74
(lp2473
g67
(g88
g69
NtRp2474
(dp2475
g72
(dp2476
g92
g93
ssg81
g2470
sg74
(lp2477
S'environ'
p2478
asbag67
(g88
g69
NtRp2479
(dp2480
g72
(dp2481
g99
g100
ssg81
g2470
sg74
(lp2482
S':'
asbag67
(g88
g69
NtRp2483
(dp2484
g72
(dp2485
sg81
g2470
sg74
(lp2486
g67
(g68
g69
NtRp2487
(dp2488
g72
(dp2489
g80
I4
ssg81
g2483
sg74
(lp2490
g67
(g76
g69
NtRp2491
(dp2492
g72
(dp2493
g80
I3
ssg81
Nsg74
(lp2494
g67
(g83
g69
NtRp2495
(dp2496
g72
(dp2497
sg81
g2491
sg74
(lp2498
g67
(g88
g69
NtRp2499
(dp2500
g72
(dp2501
g92
g93
ssg81
g2495
sg74
(lp2502
S'HTTP_ACCEPT'
p2503
asbag67
(g88
g69
NtRp2504
(dp2505
g72
(dp2506
g99
g100
ssg81
g2495
sg74
(lp2507
S':'
asbag67
(g88
g69
NtRp2508
(dp2509
g72
(dp2510
sg81
g2495
sg74
(lp2511
g67
(g68
g69
NtRp2512
(dp2513
g72
(dp2514
g80
I3
ssg81
g2508
sg74
(lp2515
g852
asbasbasbag67
(g83
g69
NtRp2516
(dp2517
g72
(dp2518
sg81
g2491
sg74
(lp2519
g67
(g88
g69
NtRp2520
(dp2521
g72
(dp2522
g92
g93
ssg81
g2516
sg74
(lp2523
S'HTTP_ACCEPT_CHARSET'
p2524
asbag67
(g88
g69
NtRp2525
(dp2526
g72
(dp2527
g99
g100
ssg81
g2516
sg74
(lp2528
S':'
asbag67
(g88
g69
NtRp2529
(dp2530
g72
(dp2531
sg81
g2516
sg74
(lp2532
g67
(g68
g69
NtRp2533
(dp2534
g72
(dp2535
g80
I3
ssg81
g2529
sg74
(lp2536
g874
asbasbasbag67
(g83
g69
NtRp2537
(dp2538
g72
(dp2539
sg81
g2491
sg74
(lp2540
g67
(g88
g69
NtRp2541
(dp2542
g72
(dp2543
g92
g93
ssg81
g2537
sg74
(lp2544
S'HTTP_ACCEPT_ENCODING'
p2545
asbag67
(g88
g69
NtRp2546
(dp2547
g72
(dp2548
g99
g100
ssg81
g2537
sg74
(lp2549
S':'
asbag67
(g88
g69
NtRp2550
(dp2551
g72
(dp2552
sg81
g2537
sg74
(lp2553
g67
(g68
g69
NtRp2554
(dp2555
g72
(dp2556
g80
I3
ssg81
g2550
sg74
(lp2557
g896
asbasbasbag67
(g83
g69
NtRp2558
(dp2559
g72
(dp2560
sg81
g2491
sg74
(lp2561
g67
(g88
g69
NtRp2562
(dp2563
g72
(dp2564
g92
g93
ssg81
g2558
sg74
(lp2565
S'HTTP_ACCEPT_LANGUAGE'
p2566
asbag67
(g88
g69
NtRp2567
(dp2568
g72
(dp2569
g99
g100
ssg81
g2558
sg74
(lp2570
S':'
asbag67
(g88
g69
NtRp2571
(dp2572
g72
(dp2573
sg81
g2558
sg74
(lp2574
g67
(g68
g69
NtRp2575
(dp2576
g72
(dp2577
g80
I3
ssg81
g2571
sg74
(lp2578
g918
asbasbasbag67
(g83
g69
NtRp2579
(dp2580
g72
(dp2581
sg81
g2491
sg74
(lp2582
g67
(g88
g69
NtRp2583
(dp2584
g72
(dp2585
g92
g93
ssg81
g2579
sg74
(lp2586
S'HTTP_CACHE_CONTROL'
p2587
asbag67
(g88
g69
NtRp2588
(dp2589
g72
(dp2590
g99
g100
ssg81
g2579
sg74
(lp2591
S':'
asbag67
(g88
g69
NtRp2592
(dp2593
g72
(dp2594
sg81
g2579
sg74
(lp2595
g67
(g68
g69
NtRp2596
(dp2597
g72
(dp2598
g80
I3
ssg81
g2592
sg74
(lp2599
g940
asbasbasbag67
(g83
g69
NtRp2600
(dp2601
g72
(dp2602
sg81
g2491
sg74
(lp2603
g67
(g88
g69
NtRp2604
(dp2605
g72
(dp2606
g92
g93
ssg81
g2600
sg74
(lp2607
S'HTTP_CONNECTION'
p2608
asbag67
(g88
g69
NtRp2609
(dp2610
g72
(dp2611
g99
g100
ssg81
g2600
sg74
(lp2612
S':'
asbag67
(g88
g69
NtRp2613
(dp2614
g72
(dp2615
sg81
g2600
sg74
(lp2616
g67
(g68
g69
NtRp2617
(dp2618
g72
(dp2619
g80
I3
ssg81
g2613
sg74
(lp2620
g962
asbasbasbag67
(g83
g69
NtRp2621
(dp2622
g72
(dp2623
sg81
g2491
sg74
(lp2624
g67
(g88
g69
NtRp2625
(dp2626
g72
(dp2627
g92
g93
ssg81
g2621
sg74
(lp2628
S'HTTP_COOKIE'
p2629
asbag67
(g88
g69
NtRp2630
(dp2631
g72
(dp2632
g99
g100
ssg81
g2621
sg74
(lp2633
S':'
asbag67
(g88
g69
NtRp2634
(dp2635
g72
(dp2636
sg81
g2621
sg74
(lp2637
g67
(g68
g69
NtRp2638
(dp2639
g72
(dp2640
g80
I3
ssg81
g2634
sg74
(lp2641
g984
asbasbasbag67
(g83
g69
NtRp2642
(dp2643
g72
(dp2644
sg81
g2491
sg74
(lp2645
g67
(g88
g69
NtRp2646
(dp2647
g72
(dp2648
g92
g93
ssg81
g2642
sg74
(lp2649
S'HTTP_HOST'
p2650
asbag67
(g88
g69
NtRp2651
(dp2652
g72
(dp2653
g99
g100
ssg81
g2642
sg74
(lp2654
S':'
asbag67
(g88
g69
NtRp2655
(dp2656
g72
(dp2657
sg81
g2642
sg74
(lp2658
g67
(g68
g69
NtRp2659
(dp2660
g72
(dp2661
g80
I3
ssg81
g2655
sg74
(lp2662
g1006
asbasbasbag67
(g83
g69
NtRp2663
(dp2664
g72
(dp2665
sg81
g2491
sg74
(lp2666
g67
(g88
g69
NtRp2667
(dp2668
g72
(dp2669
g92
g93
ssg81
g2663
sg74
(lp2670
S'HTTP_REFERER'
p2671
asbag67
(g88
g69
NtRp2672
(dp2673
g72
(dp2674
g99
g100
ssg81
g2663
sg74
(lp2675
S':'
asbag67
(g88
g69
NtRp2676
(dp2677
g72
(dp2678
sg81
g2663
sg74
(lp2679
g67
(g68
g69
NtRp2680
(dp2681
g72
(dp2682
g80
I3
ssg81
g2676
sg74
(lp2683
g1028
asbasbasbag67
(g83
g69
NtRp2684
(dp2685
g72
(dp2686
sg81
g2491
sg74
(lp2687
g67
(g88
g69
NtRp2688
(dp2689
g72
(dp2690
g92
g93
ssg81
g2684
sg74
(lp2691
S'HTTP_USER_AGENT'
p2692
asbag67
(g88
g69
NtRp2693
(dp2694
g72
(dp2695
g99
g100
ssg81
g2684
sg74
(lp2696
S':'
asbag67
(g88
g69
NtRp2697
(dp2698
g72
(dp2699
sg81
g2684
sg74
(lp2700
g67
(g68
g69
NtRp2701
(dp2702
g72
(dp2703
g80
I3
ssg81
g2697
sg74
(lp2704
g1050
asbasbasbag67
(g83
g69
NtRp2705
(dp2706
g72
(dp2707
sg81
g2491
sg74
(lp2708
g67
(g88
g69
NtRp2709
(dp2710
g72
(dp2711
g92
g93
ssg81
g2705
sg74
(lp2712
S'PATH_INFO'
p2713
asbag67
(g88
g69
NtRp2714
(dp2715
g72
(dp2716
g99
g100
ssg81
g2705
sg74
(lp2717
S':'
asbag67
(g88
g69
NtRp2718
(dp2719
g72
(dp2720
sg81
g2705
sg74
(lp2721
g67
(g68
g69
NtRp2722
(dp2723
g72
(dp2724
g80
I3
ssg81
g2718
sg74
(lp2725
g1204
asbasbasbag67
(g83
g69
NtRp2726
(dp2727
g72
(dp2728
sg81
g2491
sg74
(lp2729
g67
(g88
g69
NtRp2730
(dp2731
g72
(dp2732
g92
g93
ssg81
g2726
sg74
(lp2733
S'QUERY_STRING'
p2734
asbag67
(g88
g69
NtRp2735
(dp2736
g72
(dp2737
g99
g100
ssg81
g2726
sg74
(lp2738
S':'
asbag67
(g88
g69
NtRp2739
(dp2740
g72
(dp2741
sg81
g2726
sg74
(lp2742
g67
(g68
g69
NtRp2743
(dp2744
g72
(dp2745
g80
I3
ssg81
g2739
sg74
(lp2746
S''
asbasbasbag67
(g83
g69
NtRp2747
(dp2748
g72
(dp2749
sg81
g2491
sg74
(lp2750
g67
(g88
g69
NtRp2751
(dp2752
g72
(dp2753
g92
g93
ssg81
g2747
sg74
(lp2754
S'REMOTE_ADDR'
p2755
asbag67
(g88
g69
NtRp2756
(dp2757
g72
(dp2758
g99
g100
ssg81
g2747
sg74
(lp2759
S':'
asbag67
(g88
g69
NtRp2760
(dp2761
g72
(dp2762
sg81
g2747
sg74
(lp2763
g67
(g68
g69
NtRp2764
(dp2765
g72
(dp2766
g80
I3
ssg81
g2760
sg74
(lp2767
g222
asbasbasbag67
(g83
g69
NtRp2768
(dp2769
g72
(dp2770
sg81
g2491
sg74
(lp2771
g67
(g88
g69
NtRp2772
(dp2773
g72
(dp2774
g92
g93
ssg81
g2768
sg74
(lp2775
S'REMOTE_PORT'
p2776
asbag67
(g88
g69
NtRp2777
(dp2778
g72
(dp2779
g99
g100
ssg81
g2768
sg74
(lp2780
S':'
asbag67
(g88
g69
NtRp2781
(dp2782
g72
(dp2783
sg81
g2768
sg74
(lp2784
g67
(g68
g69
NtRp2785
(dp2786
g72
(dp2787
g80
I3
ssg81
g2781
sg74
(lp2788
g1268
asbasbasbag67
(g83
g69
NtRp2789
(dp2790
g72
(dp2791
sg81
g2491
sg74
(lp2792
g67
(g88
g69
NtRp2793
(dp2794
g72
(dp2795
g92
g93
ssg81
g2789
sg74
(lp2796
S'REQUEST_METHOD'
p2797
asbag67
(g88
g69
NtRp2798
(dp2799
g72
(dp2800
g99
g100
ssg81
g2789
sg74
(lp2801
S':'
asbag67
(g88
g69
NtRp2802
(dp2803
g72
(dp2804
sg81
g2789
sg74
(lp2805
g67
(g68
g69
NtRp2806
(dp2807
g72
(dp2808
g80
I3
ssg81
g2802
sg74
(lp2809
g1290
asbasbasbag67
(g83
g69
NtRp2810
(dp2811
g72
(dp2812
sg81
g2491
sg74
(lp2813
g67
(g88
g69
NtRp2814
(dp2815
g72
(dp2816
g92
g93
ssg81
g2810
sg74
(lp2817
S'REQUEST_URI'
p2818
asbag67
(g88
g69
NtRp2819
(dp2820
g72
(dp2821
g99
g100
ssg81
g2810
sg74
(lp2822
S':'
asbag67
(g88
g69
NtRp2823
(dp2824
g72
(dp2825
sg81
g2810
sg74
(lp2826
g67
(g68
g69
NtRp2827
(dp2828
g72
(dp2829
g80
I3
ssg81
g2823
sg74
(lp2830
g1204
asbasbasbag67
(g83
g69
NtRp2831
(dp2832
g72
(dp2833
sg81
g2491
sg74
(lp2834
g67
(g88
g69
NtRp2835
(dp2836
g72
(dp2837
g92
g93
ssg81
g2831
sg74
(lp2838
S'SCRIPT_NAME'
p2839
asbag67
(g88
g69
NtRp2840
(dp2841
g72
(dp2842
g99
g100
ssg81
g2831
sg74
(lp2843
S':'
asbag67
(g88
g69
NtRp2844
(dp2845
g72
(dp2846
sg81
g2831
sg74
(lp2847
g67
(g68
g69
NtRp2848
(dp2849
g72
(dp2850
g80
I3
ssg81
g2844
sg74
(lp2851
S''
asbasbasbag67
(g83
g69
NtRp2852
(dp2853
g72
(dp2854
sg81
g2491
sg74
(lp2855
g67
(g88
g69
NtRp2856
(dp2857
g72
(dp2858
g92
g93
ssg81
g2852
sg74
(lp2859
S'SERVER_NAME'
p2860
asbag67
(g88
g69
NtRp2861
(dp2862
g72
(dp2863
g99
g100
ssg81
g2852
sg74
(lp2864
S':'
asbag67
(g88
g69
NtRp2865
(dp2866
g72
(dp2867
sg81
g2852
sg74
(lp2868
g67
(g68
g69
NtRp2869
(dp2870
g72
(dp2871
g80
I3
ssg81
g2865
sg74
(lp2872
g1354
asbasbasbag67
(g83
g69
NtRp2873
(dp2874
g72
(dp2875
sg81
g2491
sg74
(lp2876
g67
(g88
g69
NtRp2877
(dp2878
g72
(dp2879
g92
g93
ssg81
g2873
sg74
(lp2880
S'SERVER_PORT'
p2881
asbag67
(g88
g69
NtRp2882
(dp2883
g72
(dp2884
g99
g100
ssg81
g2873
sg74
(lp2885
S':'
asbag67
(g88
g69
NtRp2886
(dp2887
g72
(dp2888
sg81
g2873
sg74
(lp2889
g67
(g68
g69
NtRp2890
(dp2891
g72
(dp2892
g80
I3
ssg81
g2886
sg74
(lp2893
g1376
asbasbasbag67
(g83
g69
NtRp2894
(dp2895
g72
(dp2896
sg81
g2491
sg74
(lp2897
g67
(g88
g69
NtRp2898
(dp2899
g72
(dp2900
g92
g93
ssg81
g2894
sg74
(lp2901
S'SERVER_PROTOCOL'
p2902
asbag67
(g88
g69
NtRp2903
(dp2904
g72
(dp2905
g99
g100
ssg81
g2894
sg74
(lp2906
S':'
asbag67
(g88
g69
NtRp2907
(dp2908
g72
(dp2909
sg81
g2894
sg74
(lp2910
g67
(g68
g69
NtRp2911
(dp2912
g72
(dp2913
g80
I3
ssg81
g2907
sg74
(lp2914
g1398
asbasbasbag67
(g83
g69
NtRp2915
(dp2916
g72
(dp2917
sg81
g2491
sg74
(lp2918
g67
(g88
g69
NtRp2919
(dp2920
g72
(dp2921
g92
g93
ssg81
g2915
sg74
(lp2922
S'SERVER_SOFTWARE'
p2923
asbag67
(g88
g69
NtRp2924
(dp2925
g72
(dp2926
g99
g100
ssg81
g2915
sg74
(lp2927
S':'
asbag67
(g88
g69
NtRp2928
(dp2929
g72
(dp2930
sg81
g2915
sg74
(lp2931
g67
(g68
g69
NtRp2932
(dp2933
g72
(dp2934
g80
I3
ssg81
g2928
sg74
(lp2935
g1420
asbasbasbag67
(g83
g69
NtRp2936
(dp2937
g72
(dp2938
sg81
g2491
sg74
(lp2939
g67
(g88
g69
NtRp2940
(dp2941
g72
(dp2942
g92
g93
ssg81
g2936
sg74
(lp2943
S'wsgi.errors'
p2944
asbag67
(g88
g69
NtRp2945
(dp2946
g72
(dp2947
g99
g100
ssg81
g2936
sg74
(lp2948
S':'
asbag67
(g88
g69
NtRp2949
(dp2950
g72
(dp2951
sg81
g2936
sg74
(lp2952
g67
(g68
g69
NtRp2953
(dp2954
g72
(dp2955
g80
I3
ssg81
g2949
sg74
(lp2956
S"<open file '<stderr>', mode 'w' at 0x7f02ff32a270>"
p2957
asbasbasbag67
(g83
g69
NtRp2958
(dp2959
g72
(dp2960
sg81
g2491
sg74
(lp2961
g67
(g88
g69
NtRp2962
(dp2963
g72
(dp2964
g92
g93
ssg81
g2958
sg74
(lp2965
S'wsgi.file_wrapper'
p2966
asbag67
(g88
g69
NtRp2967
(dp2968
g72
(dp2969
g99
g100
ssg81
g2958
sg74
(lp2970
S':'
asbag67
(g88
g69
NtRp2971
(dp2972
g72
(dp2973
sg81
g2958
sg74
(lp2974
g67
(g68
g69
NtRp2975
(dp2976
g72
(dp2977
g80
I3
ssg81
g2971
sg74
(lp2978
S'<class wsgiref.util.FileWrapper at 0x20347a0>'
p2979
asbasbasbag67
(g83
g69
NtRp2980
(dp2981
g72
(dp2982
sg81
g2491
sg74
(lp2983
g67
(g88
g69
NtRp2984
(dp2985
g72
(dp2986
g92
g93
ssg81
g2980
sg74
(lp2987
S'wsgi.input'
p2988
asbag67
(g88
g69
NtRp2989
(dp2990
g72
(dp2991
g99
g100
ssg81
g2980
sg74
(lp2992
S':'
asbag67
(g88
g69
NtRp2993
(dp2994
g72
(dp2995
sg81
g2980
sg74
(lp2996
g67
(g68
g69
NtRp2997
(dp2998
g72
(dp2999
g80
I3
ssg81
g2993
sg74
(lp3000
S'<cStringIO.StringO object at 0x7f02f4132730>'
p3001
asbasbasbag67
(g83
g69
NtRp3002
(dp3003
g72
(dp3004
sg81
g2491
sg74
(lp3005
g67
(g88
g69
NtRp3006
(dp3007
g72
(dp3008
g92
g93
ssg81
g3002
sg74
(lp3009
S'wsgi.multiprocess'
p3010
asbag67
(g88
g69
NtRp3011
(dp3012
g72
(dp3013
g99
g100
ssg81
g3002
sg74
(lp3014
S':'
asbag67
(g88
g69
NtRp3015
(dp3016
g72
(dp3017
sg81
g3002
sg74
(lp3018
g67
(g68
g69
NtRp3019
(dp3020
g72
(dp3021
g80
I3
ssg81
g3015
sg74
(lp3022
g110
asbasbasbag67
(g83
g69
NtRp3023
(dp3024
g72
(dp3025
sg81
g2491
sg74
(lp3026
g67
(g88
g69
NtRp3027
(dp3028
g72
(dp3029
g92
g93
ssg81
g3023
sg74
(lp3030
S'wsgi.multithread'
p3031
asbag67
(g88
g69
NtRp3032
(dp3033
g72
(dp3034
g99
g100
ssg81
g3023
sg74
(lp3035
S':'
asbag67
(g88
g69
NtRp3036
(dp3037
g72
(dp3038
sg81
g3023
sg74
(lp3039
g67
(g68
g69
NtRp3040
(dp3041
g72
(dp3042
g80
I3
ssg81
g3036
sg74
(lp3043
g1637
asbasbasbag67
(g83
g69
NtRp3044
(dp3045
g72
(dp3046
sg81
g2491
sg74
(lp3047
g67
(g88
g69
NtRp3048
(dp3049
g72
(dp3050
g92
g93
ssg81
g3044
sg74
(lp3051
S'wsgi.run_once'
p3052
asbag67
(g88
g69
NtRp3053
(dp3054
g72
(dp3055
g99
g100
ssg81
g3044
sg74
(lp3056
S':'
asbag67
(g88
g69
NtRp3057
(dp3058
g72
(dp3059
sg81
g3044
sg74
(lp3060
g67
(g68
g69
NtRp3061
(dp3062
g72
(dp3063
g80
I3
ssg81
g3057
sg74
(lp3064
g110
asbasbasbag67
(g83
g69
NtRp3065
(dp3066
g72
(dp3067
sg81
g2491
sg74
(lp3068
g67
(g88
g69
NtRp3069
(dp3070
g72
(dp3071
g92
g93
ssg81
g3065
sg74
(lp3072
S'wsgi.url_scheme'
p3073
asbag67
(g88
g69
NtRp3074
(dp3075
g72
(dp3076
g99
g100
ssg81
g3065
sg74
(lp3077
S':'
asbag67
(g88
g69
NtRp3078
(dp3079
g72
(dp3080
sg81
g3065
sg74
(lp3081
g67
(g68
g69
NtRp3082
(dp3083
g72
(dp3084
g80
I3
ssg81
g3078
sg74
(lp3085
g1680
asbasbasbag67
(g83
g69
NtRp3086
(dp3087
g72
(dp3088
sg81
g2491
sg74
(lp3089
g67
(g88
g69
NtRp3090
(dp3091
g72
(dp3092
g92
g93
ssg81
g3086
sg74
(lp3093
S'wsgi.version'
p3094
asbag67
(g88
g69
NtRp3095
(dp3096
g72
(dp3097
g99
g100
ssg81
g3086
sg74
(lp3098
S':'
asbag67
(g88
g69
NtRp3099
(dp3100
g72
(dp3101
sg81
g3086
sg74
(lp3102
g67
(g68
g69
NtRp3103
(dp3104
g72
(dp3105
g80
I3
ssg81
g3099
sg74
(lp3106
S'1'
asbasbasbasbasbasbasbasbasbasbasbasbasbsS'frames'
p3107
(lp3108
(dp3109
S'file'
p3110
S'/home/diego/web2py/gluon/restricted.py'
p3111
sS'dump'
p3112
(dp3113
S'code'
p3114
S'\'\\nEntrar = db.define_table("logn",\\n\\tField("name",...set, "user_address.id", "%(country)s - %(city)s")\''
p3115
sS'layer'
p3116
S"'/home/diego/web2py/applications/irecycle/models/3_db.py'"
p3117
sS'global compile2'
p3118
S'<function compile2>'
p3119
sS'ccode'
p3120
S'undefined'
p3121
ssS'lnum'
p3122
I211
sS'lines'
p3123
(dp3124
I206
S"    environment['__name__'] = '__restricted__'"
p3125
sI207
S'    try:'
p3126
sI208
S'        if isinstance(code, types.CodeType):'
p3127
sI209
S'            ccode = code'
p3128
sI210
S'        else:'
p3129
sI211
S'            ccode = compile2(code, layer)'
p3130
sI212
S'        exec ccode in environment'
p3131
sI213
S'    except HTTP:'
p3132
sI214
S'        raise'
p3133
sI215
S'    except RestrictedError:'
p3134
ssS'call'
p3135
S'(code=\'\\nEntrar = db.define_table("logn",\\n\\tField("name",...set, "user_address.id", "%(country)s - %(city)s")\', environment={\'A\': <class \'gluon.html.A\'>, \'Auth\': <class \'gluon.tools.Auth\'>, \'B\': <class \'gluon.html.B\'>, \'BEAUTIFY\': <class \'gluon.html.BEAUTIFY\'>, \'BODY\': <class \'gluon.html.BODY\'>, \'BR\': <class \'gluon.html.BR\'>, \'BUTTON\': <class \'gluon.html.BUTTON\'>, \'CAT\': <class \'gluon.html.CAT\'>, \'CENTER\': <class \'gluon.html.CENTER\'>, \'CLEANUP\': <class \'gluon.validators.CLEANUP\'>, ...}, layer=\'/home/diego/web2py/applications/irecycle/models/3_db.py\')'
p3136
sS'func'
p3137
S'restricted'
p3138
sa(dp3139
g3110
S'/home/diego/web2py/gluon/restricted.py'
p3140
sg3112
(dp3141
S'builtincompile'
p3142
S'<built-in function compile>'
p3143
sS'code'
p3144
S'\'\\nEntrar = db.define_table("logn",\\n\\tField("name",...set, "user_address.id", "%(country)s - %(city)s")\''
p3145
sS'code.rstrip'
p3146
S'<built-in method rstrip of str object>'
p3147
sS').replace'
p3148
g3121
sS'layer'
p3149
S"'/home/diego/web2py/applications/irecycle/models/3_db.py'"
p3150
ssg3122
I194
sg3123
(dp3151
I192
S"    The +'\\n' is necessary else compile fails when code ends in a comment."
p3152
sI193
S'    """'
p3153
sI194
S"    return compile(code.rstrip().replace('\\r\\n', '\\n') + '\\n', layer, 'exec')"
p3154
sI195
S''
sI196
S''
sI197
S"def restricted(code, environment=None, layer='Unknown'):"
p3155
sI198
S'    """'
p3156
sI189
S''
sI190
S'def compile2(code, layer):'
p3157
sI191
S'    """'
p3158
ssg3135
S'(code=\'\\nEntrar = db.define_table("logn",\\n\\tField("name",...set, "user_address.id", "%(country)s - %(city)s")\', layer=\'/home/diego/web2py/applications/irecycle/models/3_db.py\')'
p3159
sg3137
S'compile2'
p3160
sasS'pyver'
p3161
S'Python 2.7.3: /usr/bin/python'
p3162
sS'session'
p3163
g67
(g68
g69
NtRp3164
(dp3165
g72
(dp3166
sg74
(lp3167
g67
(g76
g69
NtRp3168
(dp3169
g72
(dp3170
g80
I5
ssg81
Nsg74
(lp3171
g67
(g83
g69
NtRp3172
(dp3173
g72
(dp3174
sg81
g3168
sg74
(lp3175
g67
(g88
g69
NtRp3176
(dp3177
g72
(dp3178
g92
g93
ssg81
g3172
sg74
(lp3179
S'flash'
p3180
asbag67
(g88
g69
NtRp3181
(dp3182
g72
(dp3183
g99
g100
ssg81
g3172
sg74
(lp3184
S':'
asbag67
(g88
g69
NtRp3185
(dp3186
g72
(dp3187
sg81
g3172
sg74
(lp3188
g67
(g68
g69
NtRp3189
(dp3190
g72
(dp3191
g80
I5
ssg81
g3185
sg74
(lp3192
S'None'
p3193
asbasbasbag67
(g83
g69
NtRp3194
(dp3195
g72
(dp3196
sg81
g3168
sg74
(lp3197
g67
(g88
g69
NtRp3198
(dp3199
g72
(dp3200
g92
g93
ssg81
g3194
sg74
(lp3201
S'last_orderby'
p3202
asbag67
(g88
g69
NtRp3203
(dp3204
g72
(dp3205
g99
g100
ssg81
g3194
sg74
(lp3206
S':'
asbag67
(g88
g69
NtRp3207
(dp3208
g72
(dp3209
sg81
g3194
sg74
(lp3210
g67
(g68
g69
NtRp3211
(dp3212
g72
(dp3213
g80
I5
ssg81
g3207
sg74
(lp3214
S'None'
p3215
asbasbasbag67
(g83
g69
NtRp3216
(dp3217
g72
(dp3218
sg81
g3168
sg74
(lp3219
g67
(g88
g69
NtRp3220
(dp3221
g72
(dp3222
g92
g93
ssg81
g3216
sg74
(lp3223
S'last_query'
p3224
asbag67
(g88
g69
NtRp3225
(dp3226
g72
(dp3227
g99
g100
ssg81
g3216
sg74
(lp3228
S':'
asbag67
(g88
g69
NtRp3229
(dp3230
g72
(dp3231
sg81
g3216
sg74
(lp3232
g67
(g68
g69
NtRp3233
(dp3234
g72
(dp3235
g80
I5
ssg81
g3229
sg74
(lp3236
S'db.auth_user.id>0'
p3237
asbasbasbasbasbsS'etype'
p3238
S"<type 'exceptions.SyntaxError'>"
p3239
sS'date'
p3240
S'Thu Jan 31 09:08:09 2013'
p3241
sS'response'
p3242
g67
(g68
g69
NtRp3243
(dp3244
g72
(dp3245
sg74
(lp3246
g67
(g76
g69
NtRp3247
(dp3248
g72
(dp3249
g80
I5
ssg81
Nsg74
(lp3250
g67
(g83
g69
NtRp3251
(dp3252
g72
(dp3253
sg81
g3247
sg74
(lp3254
g67
(g88
g69
NtRp3255
(dp3256
g72
(dp3257
g92
g93
ssg81
g3251
sg74
(lp3258
g165
asbag67
(g88
g69
NtRp3259
(dp3260
g72
(dp3261
g99
g100
ssg81
g3251
sg74
(lp3262
S':'
asbag67
(g88
g69
NtRp3263
(dp3264
g72
(dp3265
sg81
g3251
sg74
(lp3266
g67
(g68
g69
NtRp3267
(dp3268
g72
(dp3269
g80
I5
ssg81
g3263
sg74
(lp3270
S'<cStringIO.StringO object at 0x7f02f41323e8>'
p3271
asbasbasbag67
(g83
g69
NtRp3272
(dp3273
g72
(dp3274
sg81
g3247
sg74
(lp3275
g67
(g88
g69
NtRp3276
(dp3277
g72
(dp3278
g92
g93
ssg81
g3272
sg74
(lp3279
g253
asbag67
(g88
g69
NtRp3280
(dp3281
g72
(dp3282
g99
g100
ssg81
g3272
sg74
(lp3283
S':'
asbag67
(g88
g69
NtRp3284
(dp3285
g72
(dp3286
sg81
g3272
sg74
(lp3287
g67
(g68
g69
NtRp3288
(dp3289
g72
(dp3290
g80
I5
ssg81
g3284
sg74
(lp3291
g67
(g76
g69
NtRp3292
(dp3293
g72
(dp3294
g80
I4
ssg81
Nsg74
(lp3295
g67
(g83
g69
NtRp3296
(dp3297
g72
(dp3298
sg81
g3292
sg74
(lp3299
g67
(g88
g69
NtRp3300
(dp3301
g72
(dp3302
g92
g93
ssg81
g3296
sg74
(lp3303
S'session_id_irecycle'
p3304
asbag67
(g88
g69
NtRp3305
(dp3306
g72
(dp3307
g99
g100
ssg81
g3296
sg74
(lp3308
S':'
asbag67
(g88
g69
NtRp3309
(dp3310
g72
(dp3311
sg81
g3296
sg74
(lp3312
g67
(g68
g69
NtRp3313
(dp3314
g72
(dp3315
g80
I4
ssg81
g3309
sg74
(lp3316
g485
ag67
(g76
g69
NtRp3317
(dp3318
g72
(dp3319
g80
I3
ssg81
Nsg74
(lp3320
g67
(g83
g69
NtRp3321
(dp3322
g72
(dp3323
sg81
g3317
sg74
(lp3324
g67
(g88
g69
NtRp3325
(dp3326
g72
(dp3327
g92
g93
ssg81
g3321
sg74
(lp3328
g304
asbag67
(g88
g69
NtRp3329
(dp3330
g72
(dp3331
g99
g100
ssg81
g3321
sg74
(lp3332
S':'
asbag67
(g88
g69
NtRp3333
(dp3334
g72
(dp3335
sg81
g3321
sg74
(lp3336
g67
(g68
g69
NtRp3337
(dp3338
g72
(dp3339
g80
I3
ssg81
g3333
sg74
(lp3340
S''
asbasbasbag67
(g83
g69
NtRp3341
(dp3342
g72
(dp3343
sg81
g3317
sg74
(lp3344
g67
(g88
g69
NtRp3345
(dp3346
g72
(dp3347
g92
g93
ssg81
g3341
sg74
(lp3348
g325
asbag67
(g88
g69
NtRp3349
(dp3350
g72
(dp3351
g99
g100
ssg81
g3341
sg74
(lp3352
S':'
asbag67
(g88
g69
NtRp3353
(dp3354
g72
(dp3355
sg81
g3341
sg74
(lp3356
g67
(g68
g69
NtRp3357
(dp3358
g72
(dp3359
g80
I3
ssg81
g3353
sg74
(lp3360
S''
asbasbasbag67
(g83
g69
NtRp3361
(dp3362
g72
(dp3363
sg81
g3317
sg74
(lp3364
g67
(g88
g69
NtRp3365
(dp3366
g72
(dp3367
g92
g93
ssg81
g3361
sg74
(lp3368
g346
asbag67
(g88
g69
NtRp3369
(dp3370
g72
(dp3371
g99
g100
ssg81
g3361
sg74
(lp3372
S':'
asbag67
(g88
g69
NtRp3373
(dp3374
g72
(dp3375
sg81
g3361
sg74
(lp3376
g67
(g68
g69
NtRp3377
(dp3378
g72
(dp3379
g80
I3
ssg81
g3373
sg74
(lp3380
S''
asbasbasbag67
(g83
g69
NtRp3381
(dp3382
g72
(dp3383
sg81
g3317
sg74
(lp3384
g67
(g88
g69
NtRp3385
(dp3386
g72
(dp3387
g92
g93
ssg81
g3381
sg74
(lp3388
g367
asbag67
(g88
g69
NtRp3389
(dp3390
g72
(dp3391
g99
g100
ssg81
g3381
sg74
(lp3392
S':'
asbag67
(g88
g69
NtRp3393
(dp3394
g72
(dp3395
sg81
g3381
sg74
(lp3396
g67
(g68
g69
NtRp3397
(dp3398
g72
(dp3399
g80
I3
ssg81
g3393
sg74
(lp3400
S''
asbasbasbag67
(g83
g69
NtRp3401
(dp3402
g72
(dp3403
sg81
g3317
sg74
(lp3404
g67
(g88
g69
NtRp3405
(dp3406
g72
(dp3407
g92
g93
ssg81
g3401
sg74
(lp3408
g388
asbag67
(g88
g69
NtRp3409
(dp3410
g72
(dp3411
g99
g100
ssg81
g3401
sg74
(lp3412
S':'
asbag67
(g88
g69
NtRp3413
(dp3414
g72
(dp3415
sg81
g3401
sg74
(lp3416
g67
(g68
g69
NtRp3417
(dp3418
g72
(dp3419
g80
I3
ssg81
g3413
sg74
(lp3420
S''
asbasbasbag67
(g83
g69
NtRp3421
(dp3422
g72
(dp3423
sg81
g3317
sg74
(lp3424
g67
(g88
g69
NtRp3425
(dp3426
g72
(dp3427
g92
g93
ssg81
g3421
sg74
(lp3428
g409
asbag67
(g88
g69
NtRp3429
(dp3430
g72
(dp3431
g99
g100
ssg81
g3421
sg74
(lp3432
S':'
asbag67
(g88
g69
NtRp3433
(dp3434
g72
(dp3435
sg81
g3421
sg74
(lp3436
g67
(g68
g69
NtRp3437
(dp3438
g72
(dp3439
g80
I3
ssg81
g3433
sg74
(lp3440
S'/'
asbasbasbag67
(g83
g69
NtRp3441
(dp3442
g72
(dp3443
sg81
g3317
sg74
(lp3444
g67
(g88
g69
NtRp3445
(dp3446
g72
(dp3447
g92
g93
ssg81
g3441
sg74
(lp3448
g430
asbag67
(g88
g69
NtRp3449
(dp3450
g72
(dp3451
g99
g100
ssg81
g3441
sg74
(lp3452
S':'
asbag67
(g88
g69
NtRp3453
(dp3454
g72
(dp3455
sg81
g3441
sg74
(lp3456
g67
(g68
g69
NtRp3457
(dp3458
g72
(dp3459
g80
I3
ssg81
g3453
sg74
(lp3460
S''
asbasbasbag67
(g83
g69
NtRp3461
(dp3462
g72
(dp3463
sg81
g3317
sg74
(lp3464
g67
(g88
g69
NtRp3465
(dp3466
g72
(dp3467
g92
g93
ssg81
g3461
sg74
(lp3468
g451
asbag67
(g88
g69
NtRp3469
(dp3470
g72
(dp3471
g99
g100
ssg81
g3461
sg74
(lp3472
S':'
asbag67
(g88
g69
NtRp3473
(dp3474
g72
(dp3475
sg81
g3461
sg74
(lp3476
g67
(g68
g69
NtRp3477
(dp3478
g72
(dp3479
g80
I3
ssg81
g3473
sg74
(lp3480
S''
asbasbasbasbasbasbasbasbasbasbasbag67
(g83
g69
NtRp3481
(dp3482
g72
(dp3483
sg81
g3247
sg74
(lp3484
g67
(g88
g69
NtRp3485
(dp3486
g72
(dp3487
g92
g93
ssg81
g3481
sg74
(lp3488
S'delimiters'
p3489
asbag67
(g88
g69
NtRp3490
(dp3491
g72
(dp3492
g99
g100
ssg81
g3481
sg74
(lp3493
S':'
asbag67
(g88
g69
NtRp3494
(dp3495
g72
(dp3496
sg81
g3481
sg74
(lp3497
g67
(g68
g69
NtRp3498
(dp3499
g72
(dp3500
g80
I5
ssg81
g3494
sg74
(lp3501
g67
(g76
g69
NtRp3502
(dp3503
g72
(dp3504
g80
I4
ssg81
Nsg74
(lp3505
g67
(g83
g69
NtRp3506
(dp3507
g72
(dp3508
sg81
g3502
sg74
(lp3509
g67
(g88
g69
NtRp3510
(dp3511
g72
(dp3512
sg81
g3506
sg74
(lp3513
g67
(g68
g69
NtRp3514
(dp3515
g72
(dp3516
g80
I4
ssg81
g3510
sg74
(lp3517
S'{{'
p3518
asbasbasbag67
(g83
g69
NtRp3519
(dp3520
g72
(dp3521
sg81
g3502
sg74
(lp3522
g67
(g88
g69
NtRp3523
(dp3524
g72
(dp3525
sg81
g3519
sg74
(lp3526
g67
(g68
g69
NtRp3527
(dp3528
g72
(dp3529
g80
I4
ssg81
g3523
sg74
(lp3530
S'}}'
p3531
asbasbasbasbasbasbasbag67
(g83
g69
NtRp3532
(dp3533
g72
(dp3534
sg81
g3247
sg74
(lp3535
g67
(g88
g69
NtRp3536
(dp3537
g72
(dp3538
g92
g93
ssg81
g3532
sg74
(lp3539
S'files'
p3540
asbag67
(g88
g69
NtRp3541
(dp3542
g72
(dp3543
g99
g100
ssg81
g3532
sg74
(lp3544
S':'
asbag67
(g88
g69
NtRp3545
(dp3546
g72
(dp3547
sg81
g3532
sg74
(lp3548
g67
(g68
g69
NtRp3549
(dp3550
g72
(dp3551
g80
I5
ssg81
g3545
sg74
(lp3552
g67
(g76
g69
NtRp3553
(dp3554
g72
(dp3555
g80
I4
ssg81
Nsg74
(lp3556
sbasbasbasbag67
(g83
g69
NtRp3557
(dp3558
g72
(dp3559
sg81
g3247
sg74
(lp3560
g67
(g88
g69
NtRp3561
(dp3562
g72
(dp3563
g92
g93
ssg81
g3557
sg74
(lp3564
S'flash'
p3565
asbag67
(g88
g69
NtRp3566
(dp3567
g72
(dp3568
g99
g100
ssg81
g3557
sg74
(lp3569
S':'
asbag67
(g88
g69
NtRp3570
(dp3571
g72
(dp3572
sg81
g3557
sg74
(lp3573
g67
(g68
g69
NtRp3574
(dp3575
g72
(dp3576
g80
I5
ssg81
g3570
sg74
(lp3577
S''
asbasbasbag67
(g83
g69
NtRp3578
(dp3579
g72
(dp3580
sg81
g3247
sg74
(lp3581
g67
(g88
g69
NtRp3582
(dp3583
g72
(dp3584
g92
g93
ssg81
g3578
sg74
(lp3585
S'generic_patterns'
p3586
asbag67
(g88
g69
NtRp3587
(dp3588
g72
(dp3589
g99
g100
ssg81
g3578
sg74
(lp3590
S':'
asbag67
(g88
g69
NtRp3591
(dp3592
g72
(dp3593
sg81
g3578
sg74
(lp3594
g67
(g68
g69
NtRp3595
(dp3596
g72
(dp3597
g80
I5
ssg81
g3591
sg74
(lp3598
g67
(g76
g69
NtRp3599
(dp3600
g72
(dp3601
g80
I4
ssg81
Nsg74
(lp3602
g67
(g83
g69
NtRp3603
(dp3604
g72
(dp3605
sg81
g3599
sg74
(lp3606
g67
(g88
g69
NtRp3607
(dp3608
g72
(dp3609
sg81
g3603
sg74
(lp3610
g67
(g68
g69
NtRp3611
(dp3612
g72
(dp3613
g80
I4
ssg81
g3607
sg74
(lp3614
S'*'
asbasbasbasbasbasbasbag67
(g83
g69
NtRp3615
(dp3616
g72
(dp3617
sg81
g3247
sg74
(lp3618
g67
(g88
g69
NtRp3619
(dp3620
g72
(dp3621
g92
g93
ssg81
g3615
sg74
(lp3622
S'headers'
p3623
asbag67
(g88
g69
NtRp3624
(dp3625
g72
(dp3626
g99
g100
ssg81
g3615
sg74
(lp3627
S':'
asbag67
(g88
g69
NtRp3628
(dp3629
g72
(dp3630
sg81
g3615
sg74
(lp3631
g67
(g68
g69
NtRp3632
(dp3633
g72
(dp3634
g80
I5
ssg81
g3628
sg74
(lp3635
g67
(g76
g69
NtRp3636
(dp3637
g72
(dp3638
g80
I4
ssg81
Nsg74
(lp3639
g67
(g83
g69
NtRp3640
(dp3641
g72
(dp3642
sg81
g3636
sg74
(lp3643
g67
(g88
g69
NtRp3644
(dp3645
g72
(dp3646
g92
g93
ssg81
g3640
sg74
(lp3647
S'X-Powered-By'
p3648
asbag67
(g88
g69
NtRp3649
(dp3650
g72
(dp3651
g99
g100
ssg81
g3640
sg74
(lp3652
S':'
asbag67
(g88
g69
NtRp3653
(dp3654
g72
(dp3655
sg81
g3640
sg74
(lp3656
g67
(g68
g69
NtRp3657
(dp3658
g72
(dp3659
g80
I4
ssg81
g3653
sg74
(lp3660
S'web2py'
p3661
asbasbasbasbasbasbasbag67
(g83
g69
NtRp3662
(dp3663
g72
(dp3664
sg81
g3247
sg74
(lp3665
g67
(g88
g69
NtRp3666
(dp3667
g72
(dp3668
g92
g93
ssg81
g3662
sg74
(lp3669
S'menu'
p3670
asbag67
(g88
g69
NtRp3671
(dp3672
g72
(dp3673
g99
g100
ssg81
g3662
sg74
(lp3674
S':'
asbag67
(g88
g69
NtRp3675
(dp3676
g72
(dp3677
sg81
g3662
sg74
(lp3678
g67
(g68
g69
NtRp3679
(dp3680
g72
(dp3681
g80
I5
ssg81
g3675
sg74
(lp3682
g67
(g76
g69
NtRp3683
(dp3684
g72
(dp3685
g80
I4
ssg81
Nsg74
(lp3686
sbasbasbasbag67
(g83
g69
NtRp3687
(dp3688
g72
(dp3689
sg81
g3247
sg74
(lp3690
g67
(g88
g69
NtRp3691
(dp3692
g72
(dp3693
g92
g93
ssg81
g3687
sg74
(lp3694
S'meta'
p3695
asbag67
(g88
g69
NtRp3696
(dp3697
g72
(dp3698
g99
g100
ssg81
g3687
sg74
(lp3699
S':'
asbag67
(g88
g69
NtRp3700
(dp3701
g72
(dp3702
sg81
g3687
sg74
(lp3703
g67
(g68
g69
NtRp3704
(dp3705
g72
(dp3706
g80
I5
ssg81
g3700
sg74
(lp3707
g67
(g76
g69
NtRp3708
(dp3709
g72
(dp3710
g80
I4
ssg81
Nsg74
(lp3711
g67
(g83
g69
NtRp3712
(dp3713
g72
(dp3714
sg81
g3708
sg74
(lp3715
g67
(g88
g69
NtRp3716
(dp3717
g72
(dp3718
g92
g93
ssg81
g3712
sg74
(lp3719
S'author'
p3720
asbag67
(g88
g69
NtRp3721
(dp3722
g72
(dp3723
g99
g100
ssg81
g3712
sg74
(lp3724
S':'
asbag67
(g88
g69
NtRp3725
(dp3726
g72
(dp3727
sg81
g3712
sg74
(lp3728
g67
(g68
g69
NtRp3729
(dp3730
g72
(dp3731
g80
I4
ssg81
g3725
sg74
(lp3732
S'Diego Miranda'
p3733
asbasbasbag67
(g83
g69
NtRp3734
(dp3735
g72
(dp3736
sg81
g3708
sg74
(lp3737
g67
(g88
g69
NtRp3738
(dp3739
g72
(dp3740
g92
g93
ssg81
g3734
sg74
(lp3741
S'copyright'
p3742
asbag67
(g88
g69
NtRp3743
(dp3744
g72
(dp3745
g99
g100
ssg81
g3734
sg74
(lp3746
S':'
asbag67
(g88
g69
NtRp3747
(dp3748
g72
(dp3749
sg81
g3734
sg74
(lp3750
g67
(g68
g69
NtRp3751
(dp3752
g72
(dp3753
g80
I4
ssg81
g3747
sg74
(lp3754
S'DSMTech Copyright 2012'
p3755
asbasbasbag67
(g83
g69
NtRp3756
(dp3757
g72
(dp3758
sg81
g3708
sg74
(lp3759
g67
(g88
g69
NtRp3760
(dp3761
g72
(dp3762
g92
g93
ssg81
g3756
sg74
(lp3763
S'description'
p3764
asbag67
(g88
g69
NtRp3765
(dp3766
g72
(dp3767
g99
g100
ssg81
g3756
sg74
(lp3768
S':'
asbag67
(g88
g69
NtRp3769
(dp3770
g72
(dp3771
sg81
g3756
sg74
(lp3772
g67
(g68
g69
NtRp3773
(dp3774
g72
(dp3775
g80
I4
ssg81
g3769
sg74
(lp3776
S'App for recycling trash'
p3777
asbasbasbag67
(g83
g69
NtRp3778
(dp3779
g72
(dp3780
sg81
g3708
sg74
(lp3781
g67
(g88
g69
NtRp3782
(dp3783
g72
(dp3784
g92
g93
ssg81
g3778
sg74
(lp3785
S'generator'
p3786
asbag67
(g88
g69
NtRp3787
(dp3788
g72
(dp3789
g99
g100
ssg81
g3778
sg74
(lp3790
S':'
asbag67
(g88
g69
NtRp3791
(dp3792
g72
(dp3793
sg81
g3778
sg74
(lp3794
g67
(g68
g69
NtRp3795
(dp3796
g72
(dp3797
g80
I4
ssg81
g3791
sg74
(lp3798
S'web2py web framework'
p3799
asbasbasbag67
(g83
g69
NtRp3800
(dp3801
g72
(dp3802
sg81
g3708
sg74
(lp3803
g67
(g88
g69
NtRp3804
(dp3805
g72
(dp3806
g92
g93
ssg81
g3800
sg74
(lp3807
S'keywords'
p3808
asbag67
(g88
g69
NtRp3809
(dp3810
g72
(dp3811
g99
g100
ssg81
g3800
sg74
(lp3812
S':'
asbag67
(g88
g69
NtRp3813
(dp3814
g72
(dp3815
sg81
g3800
sg74
(lp3816
g67
(g68
g69
NtRp3817
(dp3818
g72
(dp3819
g80
I4
ssg81
g3813
sg74
(lp3820
S'web2py, python framework'
p3821
asbasbasbasbasbasbasbag67
(g83
g69
NtRp3822
(dp3823
g72
(dp3824
sg81
g3247
sg74
(lp3825
g67
(g88
g69
NtRp3826
(dp3827
g72
(dp3828
g92
g93
ssg81
g3822
sg74
(lp3829
S'models_to_run'
p3830
asbag67
(g88
g69
NtRp3831
(dp3832
g72
(dp3833
g99
g100
ssg81
g3822
sg74
(lp3834
S':'
asbag67
(g88
g69
NtRp3835
(dp3836
g72
(dp3837
sg81
g3822
sg74
(lp3838
g67
(g68
g69
NtRp3839
(dp3840
g72
(dp3841
g80
I5
ssg81
g3835
sg74
(lp3842
g67
(g76
g69
NtRp3843
(dp3844
g72
(dp3845
g80
I4
ssg81
Nsg74
(lp3846
g67
(g83
g69
NtRp3847
(dp3848
g72
(dp3849
sg81
g3843
sg74
(lp3850
g67
(g88
g69
NtRp3851
(dp3852
g72
(dp3853
sg81
g3847
sg74
(lp3854
g67
(g68
g69
NtRp3855
(dp3856
g72
(dp3857
g80
I4
ssg81
g3851
sg74
(lp3858
S'^\\w+\\.py$'
p3859
asbasbasbag67
(g83
g69
NtRp3860
(dp3861
g72
(dp3862
sg81
g3843
sg74
(lp3863
g67
(g88
g69
NtRp3864
(dp3865
g72
(dp3866
sg81
g3860
sg74
(lp3867
g67
(g68
g69
NtRp3868
(dp3869
g72
(dp3870
g80
I4
ssg81
g3864
sg74
(lp3871
S'^default/\\w+\\.py$'
p3872
asbasbasbag67
(g83
g69
NtRp3873
(dp3874
g72
(dp3875
sg81
g3843
sg74
(lp3876
g67
(g88
g69
NtRp3877
(dp3878
g72
(dp3879
sg81
g3873
sg74
(lp3880
g67
(g68
g69
NtRp3881
(dp3882
g72
(dp3883
g80
I4
ssg81
g3877
sg74
(lp3884
S'^default/home/\\w+\\.py$'
p3885
asbasbasbasbasbasbasbag67
(g83
g69
NtRp3886
(dp3887
g72
(dp3888
sg81
g3247
sg74
(lp3889
g67
(g88
g69
NtRp3890
(dp3891
g72
(dp3892
g92
g93
ssg81
g3886
sg74
(lp3893
S'postprocessing'
p3894
asbag67
(g88
g69
NtRp3895
(dp3896
g72
(dp3897
g99
g100
ssg81
g3886
sg74
(lp3898
S':'
asbag67
(g88
g69
NtRp3899
(dp3900
g72
(dp3901
sg81
g3886
sg74
(lp3902
g67
(g68
g69
NtRp3903
(dp3904
g72
(dp3905
g80
I5
ssg81
g3899
sg74
(lp3906
g67
(g76
g69
NtRp3907
(dp3908
g72
(dp3909
g80
I4
ssg81
Nsg74
(lp3910
sbasbasbasbag67
(g83
g69
NtRp3911
(dp3912
g72
(dp3913
sg81
g3247
sg74
(lp3914
g67
(g88
g69
NtRp3915
(dp3916
g72
(dp3917
g92
g93
ssg81
g3911
sg74
(lp3918
S'session_cookie_expires'
p3919
asbag67
(g88
g69
NtRp3920
(dp3921
g72
(dp3922
g99
g100
ssg81
g3911
sg74
(lp3923
S':'
asbag67
(g88
g69
NtRp3924
(dp3925
g72
(dp3926
sg81
g3911
sg74
(lp3927
g67
(g68
g69
NtRp3928
(dp3929
g72
(dp3930
g80
I5
ssg81
g3924
sg74
(lp3931
S'None'
p3932
asbasbasbag67
(g83
g69
NtRp3933
(dp3934
g72
(dp3935
sg81
g3247
sg74
(lp3936
g67
(g88
g69
NtRp3937
(dp3938
g72
(dp3939
g92
g93
ssg81
g3933
sg74
(lp3940
S'session_data_name'
p3941
asbag67
(g88
g69
NtRp3942
(dp3943
g72
(dp3944
g99
g100
ssg81
g3933
sg74
(lp3945
S':'
asbag67
(g88
g69
NtRp3946
(dp3947
g72
(dp3948
sg81
g3933
sg74
(lp3949
g67
(g68
g69
NtRp3950
(dp3951
g72
(dp3952
g80
I5
ssg81
g3946
sg74
(lp3953
S'session_data_irecycle'
p3954
asbasbasbag67
(g83
g69
NtRp3955
(dp3956
g72
(dp3957
sg81
g3247
sg74
(lp3958
g67
(g88
g69
NtRp3959
(dp3960
g72
(dp3961
g92
g93
ssg81
g3955
sg74
(lp3962
S'session_file'
p3963
asbag67
(g88
g69
NtRp3964
(dp3965
g72
(dp3966
g99
g100
ssg81
g3955
sg74
(lp3967
S':'
asbag67
(g88
g69
NtRp3968
(dp3969
g72
(dp3970
sg81
g3955
sg74
(lp3971
g67
(g68
g69
NtRp3972
(dp3973
g72
(dp3974
g80
I5
ssg81
g3968
sg74
(lp3975
S"<open file '/home/diego/web2py/applications/irecycle/sessions/127.0.0.1-52497e39-155c-423e-8fad-ac44f096ff04', mode 'rb+' at 0x7f02e842e6f0>"
p3976
asbasbasbag67
(g83
g69
NtRp3977
(dp3978
g72
(dp3979
sg81
g3247
sg74
(lp3980
g67
(g88
g69
NtRp3981
(dp3982
g72
(dp3983
g92
g93
ssg81
g3977
sg74
(lp3984
S'session_filename'
p3985
asbag67
(g88
g69
NtRp3986
(dp3987
g72
(dp3988
g99
g100
ssg81
g3977
sg74
(lp3989
S':'
asbag67
(g88
g69
NtRp3990
(dp3991
g72
(dp3992
sg81
g3977
sg74
(lp3993
g67
(g68
g69
NtRp3994
(dp3995
g72
(dp3996
g80
I5
ssg81
g3990
sg74
(lp3997
S'/home/diego/web2py/applications/irecycle/sessions/127.0.0.1-52497e39-155c-423e-8fad-ac44f096ff04'
p3998
asbasbasbag67
(g83
g69
NtRp3999
(dp4000
g72
(dp4001
sg81
g3247
sg74
(lp4002
g67
(g88
g69
NtRp4003
(dp4004
g72
(dp4005
g92
g93
ssg81
g3999
sg74
(lp4006
S'session_id'
p4007
asbag67
(g88
g69
NtRp4008
(dp4009
g72
(dp4010
g99
g100
ssg81
g3999
sg74
(lp4011
S':'
asbag67
(g88
g69
NtRp4012
(dp4013
g72
(dp4014
sg81
g3999
sg74
(lp4015
g67
(g68
g69
NtRp4016
(dp4017
g72
(dp4018
g80
I5
ssg81
g4012
sg74
(lp4019
g485
asbasbasbag67
(g83
g69
NtRp4020
(dp4021
g72
(dp4022
sg81
g3247
sg74
(lp4023
g67
(g88
g69
NtRp4024
(dp4025
g72
(dp4026
g92
g93
ssg81
g4020
sg74
(lp4027
S'session_id_name'
p4028
asbag67
(g88
g69
NtRp4029
(dp4030
g72
(dp4031
g99
g100
ssg81
g4020
sg74
(lp4032
S':'
asbag67
(g88
g69
NtRp4033
(dp4034
g72
(dp4035
sg81
g4020
sg74
(lp4036
g67
(g68
g69
NtRp4037
(dp4038
g72
(dp4039
g80
I5
ssg81
g4033
sg74
(lp4040
g3304
asbasbasbag67
(g83
g69
NtRp4041
(dp4042
g72
(dp4043
sg81
g3247
sg74
(lp4044
g67
(g88
g69
NtRp4045
(dp4046
g72
(dp4047
g92
g93
ssg81
g4041
sg74
(lp4048
S'session_locked'
p4049
asbag67
(g88
g69
NtRp4050
(dp4051
g72
(dp4052
g99
g100
ssg81
g4041
sg74
(lp4053
S':'
asbag67
(g88
g69
NtRp4054
(dp4055
g72
(dp4056
sg81
g4041
sg74
(lp4057
g67
(g68
g69
NtRp4058
(dp4059
g72
(dp4060
g80
I5
ssg81
g4054
sg74
(lp4061
g1637
asbasbasbag67
(g83
g69
NtRp4062
(dp4063
g72
(dp4064
sg81
g3247
sg74
(lp4065
g67
(g88
g69
NtRp4066
(dp4067
g72
(dp4068
g92
g93
ssg81
g4062
sg74
(lp4069
S'session_new'
p4070
asbag67
(g88
g69
NtRp4071
(dp4072
g72
(dp4073
g99
g100
ssg81
g4062
sg74
(lp4074
S':'
asbag67
(g88
g69
NtRp4075
(dp4076
g72
(dp4077
sg81
g4062
sg74
(lp4078
g67
(g68
g69
NtRp4079
(dp4080
g72
(dp4081
g80
I5
ssg81
g4075
sg74
(lp4082
g110
asbasbasbag67
(g83
g69
NtRp4083
(dp4084
g72
(dp4085
sg81
g3247
sg74
(lp4086
g67
(g88
g69
NtRp4087
(dp4088
g72
(dp4089
g92
g93
ssg81
g4083
sg74
(lp4090
S'session_storage_type'
p4091
asbag67
(g88
g69
NtRp4092
(dp4093
g72
(dp4094
g99
g100
ssg81
g4083
sg74
(lp4095
S':'
asbag67
(g88
g69
NtRp4096
(dp4097
g72
(dp4098
sg81
g4083
sg74
(lp4099
g67
(g68
g69
NtRp4100
(dp4101
g72
(dp4102
g80
I5
ssg81
g4096
sg74
(lp4103
g3110
asbasbasbag67
(g83
g69
NtRp4104
(dp4105
g72
(dp4106
sg81
g3247
sg74
(lp4107
g67
(g88
g69
NtRp4108
(dp4109
g72
(dp4110
g92
g93
ssg81
g4104
sg74
(lp4111
S'status'
p4112
asbag67
(g88
g69
NtRp4113
(dp4114
g72
(dp4115
g99
g100
ssg81
g4104
sg74
(lp4116
S':'
asbag67
(g88
g69
NtRp4117
(dp4118
g72
(dp4119
sg81
g4104
sg74
(lp4120
g67
(g68
g69
NtRp4121
(dp4122
g72
(dp4123
g80
I5
ssg81
g4117
sg74
(lp4124
S'200'
p4125
asbasbasbag67
(g83
g69
NtRp4126
(dp4127
g72
(dp4128
sg81
g3247
sg74
(lp4129
g67
(g88
g69
NtRp4130
(dp4131
g72
(dp4132
g92
g93
ssg81
g4126
sg74
(lp4133
S'subtitle'
p4134
asbag67
(g88
g69
NtRp4135
(dp4136
g72
(dp4137
g99
g100
ssg81
g4126
sg74
(lp4138
S':'
asbag67
(g88
g69
NtRp4139
(dp4140
g72
(dp4141
sg81
g4126
sg74
(lp4142
g67
(g68
g69
NtRp4143
(dp4144
g72
(dp4145
g80
I5
ssg81
g4139
sg74
(lp4146
cgluon.languages
lazyT_unpickle
p4147
(S't\t\x00\x00\x00EuReciclo'
tRp4148
asbasbasbag67
(g83
g69
NtRp4149
(dp4150
g72
(dp4151
sg81
g3247
sg74
(lp4152
g67
(g88
g69
NtRp4153
(dp4154
g72
(dp4155
g92
g93
ssg81
g4149
sg74
(lp4156
S'title'
p4157
asbag67
(g88
g69
NtRp4158
(dp4159
g72
(dp4160
g99
g100
ssg81
g4149
sg74
(lp4161
S':'
asbag67
(g88
g69
NtRp4162
(dp4163
g72
(dp4164
sg81
g4149
sg74
(lp4165
g67
(g68
g69
NtRp4166
(dp4167
g72
(dp4168
g80
I5
ssg81
g4162
sg74
(lp4169
S'EuReciclo'
p4170
asbasbasbag67
(g83
g69
NtRp4171
(dp4172
g72
(dp4173
sg81
g3247
sg74
(lp4174
g67
(g88
g69
NtRp4175
(dp4176
g72
(dp4177
g92
g93
ssg81
g4171
sg74
(lp4178
S'view'
p4179
asbag67
(g88
g69
NtRp4180
(dp4181
g72
(dp4182
g99
g100
ssg81
g4171
sg74
(lp4183
S':'
asbag67
(g88
g69
NtRp4184
(dp4185
g72
(dp4186
sg81
g4171
sg74
(lp4187
g67
(g68
g69
NtRp4188
(dp4189
g72
(dp4190
g80
I5
ssg81
g4184
sg74
(lp4191
S'default/home.html'
p4192
asbasbasbasbasbsS'locals'
p4193
(dp4194
g4
S"'/home/diego/web2py/applications/irecycle/models/3_db.py'"
p4195
sg6
S'\'\\nEntrar = db.define_table("logn",\\n\\tField("name",...set, "user_address.id", "%(country)s - %(city)s")\''
p4196
sssS'traceback'
p4197
S'Traceback (most recent call last):\n  File "/home/diego/web2py/gluon/restricted.py", line 211, in restricted\n    ccode = compile2(code, layer)\n  File "/home/diego/web2py/gluon/restricted.py", line 194, in compile2\n    return compile(code.rstrip().replace(\'\\r\\n\', \'\\n\') + \'\\n\', layer, \'exec\')\n  File "/home/diego/web2py/applications/irecycle/models/3_db.py", line 4\n    Field("email", "reference user_email", notnull=True, requires=IS_EMAIL()),\n        ^\nSyntaxError: invalid syntax\n'
p4198
s.